; Listing generated by Microsoft (R) Optimizing Compiler Version 16.00.40219.01 

	TITLE	C:\Fili\Development\GP\RtsAiResearch\bwapi\bwapi\libReplayTool\GameAction.cpp
	.686P
	.XMM
	include listing.inc
	.model	flat

INCLUDELIB MSVCRTD
INCLUDELIB OLDNAMES

PUBLIC	??_C@_04NKFKOIHC@Chat?$AA@			; `string'
PUBLIC	??_C@_0BB@DENPHCHM@Make?5Game?5Public?$AA@	; `string'
PUBLIC	??_C@_0BB@LIPMMPLG@Dark?5Archon?5Meld?$AA@	; `string'
PUBLIC	??_C@_04BKFDJCNG@0x59?$AA@			; `string'
PUBLIC	??_C@_0N@NMOAPDHG@Minimap?5Ping?$AA@		; `string'
PUBLIC	??_C@_0L@LBCNLCCF@Leave?5Game?$AA@		; `string'
PUBLIC	??_C@_0BB@MGBIANOJ@Set?5Replay?5Speed?$AA@	; `string'
PUBLIC	??_C@_0M@GOBIDMLI@Set?5Latency?$AA@		; `string'
PUBLIC	??_C@_0O@PIDPABKE@Skip?5Briefing?$AA@		; `string'
PUBLIC	??_C@_0BJ@OACOAKNO@?$FLResult?$FNBriefing?5Started?$AA@ ; `string'
PUBLIC	??_C@_0BA@HJPKKBAA@?$FLResult?$FNUnknown?$AA@	; `string'
PUBLIC	??_C@_0BG@BEDBIGGC@?$FLResult?$FNNetwork?5Error?$AA@ ; `string'
PUBLIC	??_C@_0L@NKDFONHA@?$FLResult?$FNOK?$AA@		; `string'
PUBLIC	??_C@_0BF@PKMGMLFB@?$FLLobby?$FNFile?5Transfer?$AA@ ; `string'
PUBLIC	??_C@_0BD@EKKNDBJC@?$FLLobby?$FNBoot?5Player?$AA@ ; `string'
PUBLIC	??_C@_0N@KDILJGFG@?$FLLobby?$FNChat2?$AA@	; `string'
PUBLIC	??_C@_0M@PPEBHDOC@?$FLLobby?$FNChat?$AA@	; `string'
PUBLIC	??_C@_0BH@HCFKEAID@?$FLLobby?$FNSet?5Force?5Names?$AA@ ; `string'
PUBLIC	??_C@_0BG@KJAAGDBK@?$FLLobby?$FNSet?5Force?5Data?$AA@ ; `string'
PUBLIC	??_C@_0BE@KPJKPOMP@?$FLLobby?$FNRequest?5Info?$AA@ ; `string'
PUBLIC	??_C@_0BF@NDJBMNCF@?$FLLobby?$FNSet?5Game?5Seed?$AA@ ; `string'
PUBLIC	??_C@_0M@KAAJEOPP@?$FLLobby?$FN0x47?$AA@	; `string'
PUBLIC	??_C@_0M@LJBCHPLO@?$FLLobby?$FN0x46?$AA@	; `string'
PUBLIC	??_C@_0BE@CCEBBKEN@?$FLLobby?$FNSwap?5Players?$AA@ ; `string'
PUBLIC	??_C@_0BA@HNAGKNBE@?$FLLobby?$FNSet?5Slot?$AA@	; `string'
PUBLIC	??_C@_0BH@DINGDBEA@?$FLLobby?$FNSet?5Force?5?$CIUMS?$CJ?$AA@ ; `string'
PUBLIC	??_C@_0BJ@OGIAHMOJ@?$FLLobby?$FNSet?5Force?5?$CIMelee?$CJ?$AA@ ; `string'
PUBLIC	??_C@_0BA@OIMPIGAN@?$FLLobby?$FNSet?5Race?$AA@	; `string'
PUBLIC	??_C@_0BH@GNJCPAIB@?$FLLobby?$FNConfirm?5Version?$AA@ ; `string'
PUBLIC	??_C@_0BD@LHOLDPJB@?$FLLobby?$FNAsk?5Version?$AA@ ; `string'
PUBLIC	??_C@_0BM@PIHGGKL@?$FLLobby?$FNSet?5Slot?5Data?5?$CIHost?$CJ?$AA@ ; `string'
PUBLIC	??_C@_0BN@OJMALIBE@?$FLLobby?$FNSet?5Download?5Progress?$AA@ ; `string'
PUBLIC	??_C@_0BC@DICKFKJ@?$FLLobby?$FNStart?5Game?$AA@	; `string'
PUBLIC	??_C@_0BA@GMBCDJG@Voice?5Unsquelch?$AA@		; `string'
PUBLIC	??_C@_0O@BMDCHFNH@Voice?5Squelch?$AA@		; `string'
PUBLIC	??_C@_09HLCNEACO@Voice?5Off?$AA@		; `string'
PUBLIC	??_C@_08PAGDMOKP@Voice?5On?$AA@			; `string'
PUBLIC	??_C@_0BF@PHKLFOBD@Game?5Synchronization?$AA@	; `string'
PUBLIC	??_C@_0N@KGHFBHGG@Use?5Stimpack?$AA@		; `string'
PUBLIC	??_C@_0P@KIJNPCAM@Morph?5Building?$AA@		; `string'
PUBLIC	??_C@_0N@IBEDIMJF@Cancel?5Addon?$AA@		; `string'
PUBLIC	??_C@_0P@JCILHKMO@Cancel?5Upgrade?$AA@		; `string'
PUBLIC	??_C@_07CJFOONCK@Upgrade?$AA@			; `string'
PUBLIC	??_C@_0BA@HNONCJOL@Cancel?5Research?$AA@	; `string'
PUBLIC	??_C@_08NKDBNKBN@Research?$AA@			; `string'
PUBLIC	??_C@_08OLGKIKAG@Lift?5Off?$AA@			; `string'
PUBLIC	??_C@_0M@MMNGBMBH@Cancel?5Nuke?$AA@		; `string'
PUBLIC	??_C@_08MCEFCEML@Unburrow?$AA@			; `string'
PUBLIC	??_C@_06ILDJGADH@Burrow?$AA@			; `string'
PUBLIC	??_C@_0O@IMEEPEIA@Hold?5Position?$AA@		; `string'
PUBLIC	??_C@_0N@PMEPMLHE@Merge?5Archon?$AA@		; `string'
PUBLIC	??_C@_0P@ICLFFDLC@Exit?5Transport?$AA@		; `string'
PUBLIC	??_C@_0L@DFGLMHLP@Unload?5All?$AA@		; `string'
PUBLIC	??_C@_0O@GGKHOKHK@Build?5Fighter?$AA@		; `string'
PUBLIC	??_C@_05JOPHEEP@Siege?$AA@			; `string'
PUBLIC	??_C@_07BMOMMFKJ@Unsiege?$AA@			; `string'
PUBLIC	??_C@_04KKLCPKBO@0x24?$AA@			; `string'
PUBLIC	??_C@_0L@EDOHLEKH@Morph?5Unit?$AA@		; `string'
PUBLIC	??_C@_07JAHPJMFF@Decloak?$AA@			; `string'
PUBLIC	??_C@_05DHGKEIPM@Cloak?$AA@			; `string'
PUBLIC	??_C@_0N@OKLPBBP@Cancel?5Train?$AA@		; `string'
PUBLIC	??_C@_05GFNCIBPC@Train?$AA@			; `string'
PUBLIC	??_C@_0N@OAOLMLFB@Return?5Cargo?$AA@		; `string'
PUBLIC	??_C@_07MMBOBMNN@Nothing?$AA@			; `string'
PUBLIC	??_C@_0M@NLHPAPLI@Reaver?5Stop?$AA@		; `string'
PUBLIC	??_C@_0N@PEADPAMH@Carrier?5Stop?$AA@		; `string'
PUBLIC	??_C@_04MOIHHPNJ@Stop?$AA@			; `string'
PUBLIC	??_C@_0N@LFADDGHH@Cancel?5Morph?$AA@		; `string'
PUBLIC	??_C@_0BE@EFOFLOJA@Cancel?5Construction?$AA@	; `string'
PUBLIC	??_C@_04IDNJBHIE@0x17?$AA@			; `string'
PUBLIC	??_C@_04JKMCCGMF@0x16?$AA@			; `string'
PUBLIC	??_C@_0N@LBNBMPMJ@Target?5Click?$AA@		; `string'
PUBLIC	??_C@_0M@BDGMFCOP@Right?5Click?$AA@		; `string'
PUBLIC	??_C@_0M@PECPPPOO@Group?5Units?$AA@		; `string'
PUBLIC	??_C@_09PDOAOMEM@Use?5Cheat?$AA@		; `string'
PUBLIC	??_C@_07OBDOKAPF@Unpause?$AA@			; `string'
PUBLIC	??_C@_05PEDNBBBD@Pause?$AA@			; `string'
PUBLIC	??_C@_09IPLIPCBA@Set?5Speed?$AA@		; `string'
PUBLIC	??_C@_0L@NLHLHKFK@Set?5Allies?$AA@		; `string'
PUBLIC	??_C@_07BOMAKBLO@Set?5Fog?$AA@			; `string'
PUBLIC	??_C@_08CLNBJNCA@Placebox?$AA@			; `string'
PUBLIC	??_C@_0P@IINHCEMO@Shift?5Deselect?$AA@		; `string'
PUBLIC	??_C@_0N@NCDAONAE@Shift?5Select?$AA@		; `string'
PUBLIC	??_C@_06HJGPBJLE@Select?$AA@			; `string'
PUBLIC	??_C@_0N@DKOEBAOF@Restart?5Game?$AA@		; `string'
PUBLIC	??_C@_09EOPBCAJJ@Load?5Game?$AA@		; `string'
PUBLIC	??_C@_09IAJPBCOI@Save?5Game?$AA@		; `string'
PUBLIC	??_C@_0L@LFNIADGH@Keep?5Alive?$AA@		; `string'
PUBLIC	??_C@_04KJDGCOHA@0x04?$AA@			; `string'
PUBLIC	??_C@_04OGHHLILH@0x03?$AA@			; `string'
PUBLIC	??_C@_09JELFAMD@Null?5Chat?$AA@			; `string'
PUBLIC	??_C@_0N@LPBJEAGM@Private?5Chat?$AA@		; `string'
PUBLIC	??_C@_0M@MJLADDJO@Public?5Chat?$AA@		; `string'
PUBLIC	??_C@_07GIDPHHDH@Dropped?$AA@			; `string'
PUBLIC	??_C@_04HMPDNAFK@Draw?$AA@			; `string'
PUBLIC	??_C@_08IAMFKBPN@Finished?$AA@			; `string'
PUBLIC	??_C@_07FPEFHBMO@Victory?$AA@			; `string'
PUBLIC	??_C@_06JCCCHHDL@Defeat?$AA@			; `string'
PUBLIC	??_C@_04GMBKPCGK@Quit?$AA@			; `string'
PUBLIC	??_C@_0L@HBLPOPIK@Extra?5High?$AA@		; `string'
PUBLIC	??_C@_04PHMMJPOJ@High?$AA@			; `string'
PUBLIC	??_C@_03CMIMKEEK@Low?$AA@			; `string'
PUBLIC	??_C@_07MIBGPIAH@Fastest?$AA@			; `string'
PUBLIC	??_C@_06IPNKADFG@Faster?$AA@			; `string'
PUBLIC	??_C@_04HABAFPJG@Fast?$AA@			; `string'
PUBLIC	??_C@_06EFAGIKOH@Normal?$AA@			; `string'
PUBLIC	??_C@_04BEGLJGGO@Slow?$AA@			; `string'
PUBLIC	??_C@_06LBAHHGIM@Slower?$AA@			; `string'
PUBLIC	??_C@_07KOCOBOLI@Slowest?$AA@			; `string'
PUBLIC	??_C@_03LDFMNCOE@Add?$AA@			; `string'
PUBLIC	??_C@_06FLGNMNOC@Recall?$AA@			; `string'
PUBLIC	??_C@_04INACKGJP@Save?$AA@			; `string'
PUBLIC	?value@?$integral_constant@_N$0A@@tr1@std@@2_NB	; std::tr1::integral_constant<bool,0>::value
PUBLIC	?value@?$integral_constant@_N$00@tr1@std@@2_NB	; std::tr1::integral_constant<bool,1>::value
PUBLIC	?value@?$integral_constant@I$0A@@tr1@std@@2IB	; std::tr1::integral_constant<unsigned int,0>::value
PUBLIC	?_Rank@?$_Arithmetic_traits@_N@std@@2HB		; std::_Arithmetic_traits<bool>::_Rank
PUBLIC	?_Rank@?$_Arithmetic_traits@D@std@@2HB		; std::_Arithmetic_traits<char>::_Rank
PUBLIC	?_Rank@?$_Arithmetic_traits@C@std@@2HB		; std::_Arithmetic_traits<signed char>::_Rank
PUBLIC	?_Rank@?$_Arithmetic_traits@E@std@@2HB		; std::_Arithmetic_traits<unsigned char>::_Rank
PUBLIC	?_Rank@?$_Arithmetic_traits@F@std@@2HB		; std::_Arithmetic_traits<short>::_Rank
PUBLIC	?_Rank@?$_Arithmetic_traits@G@std@@2HB		; std::_Arithmetic_traits<unsigned short>::_Rank
PUBLIC	?_Rank@?$_Arithmetic_traits@H@std@@2HB		; std::_Arithmetic_traits<int>::_Rank
PUBLIC	?_Rank@?$_Arithmetic_traits@I@std@@2HB		; std::_Arithmetic_traits<unsigned int>::_Rank
PUBLIC	?_Rank@?$_Arithmetic_traits@J@std@@2HB		; std::_Arithmetic_traits<long>::_Rank
PUBLIC	?_Rank@?$_Arithmetic_traits@K@std@@2HB		; std::_Arithmetic_traits<unsigned long>::_Rank
PUBLIC	?_Rank@?$_Arithmetic_traits@_J@std@@2HB		; std::_Arithmetic_traits<__int64>::_Rank
PUBLIC	?_Rank@?$_Arithmetic_traits@_K@std@@2HB		; std::_Arithmetic_traits<unsigned __int64>::_Rank
PUBLIC	?_Rank@?$_Arithmetic_traits@M@std@@2HB		; std::_Arithmetic_traits<float>::_Rank
PUBLIC	?_Rank@?$_Arithmetic_traits@N@std@@2HB		; std::_Arithmetic_traits<double>::_Rank
PUBLIC	?_Rank@?$_Arithmetic_traits@O@std@@2HB		; std::_Arithmetic_traits<long double>::_Rank
PUBLIC	?_Value@?$_Size@U?$_Cons_node@U_Nil@tr1@std@@U123@@tr1@std@@@tr1@std@@2IB ; std::tr1::_Size<std::tr1::_Cons_node<std::tr1::_Nil,std::tr1::_Nil> >::_Value
PUBLIC	?collate@?$_Locbase@H@std@@2HB			; std::_Locbase<int>::collate
PUBLIC	?ctype@?$_Locbase@H@std@@2HB			; std::_Locbase<int>::ctype
PUBLIC	?monetary@?$_Locbase@H@std@@2HB			; std::_Locbase<int>::monetary
PUBLIC	?numeric@?$_Locbase@H@std@@2HB			; std::_Locbase<int>::numeric
PUBLIC	?time@?$_Locbase@H@std@@2HB			; std::_Locbase<int>::time
PUBLIC	?messages@?$_Locbase@H@std@@2HB			; std::_Locbase<int>::messages
PUBLIC	?all@?$_Locbase@H@std@@2HB			; std::_Locbase<int>::all
PUBLIC	?none@?$_Locbase@H@std@@2HB			; std::_Locbase<int>::none
PUBLIC	?skipws@?$_Iosb@H@std@@2W4_Fmtflags@12@B	; std::_Iosb<int>::skipws
PUBLIC	?unitbuf@?$_Iosb@H@std@@2W4_Fmtflags@12@B	; std::_Iosb<int>::unitbuf
PUBLIC	?uppercase@?$_Iosb@H@std@@2W4_Fmtflags@12@B	; std::_Iosb<int>::uppercase
PUBLIC	?showbase@?$_Iosb@H@std@@2W4_Fmtflags@12@B	; std::_Iosb<int>::showbase
PUBLIC	?showpoint@?$_Iosb@H@std@@2W4_Fmtflags@12@B	; std::_Iosb<int>::showpoint
PUBLIC	?showpos@?$_Iosb@H@std@@2W4_Fmtflags@12@B	; std::_Iosb<int>::showpos
PUBLIC	?left@?$_Iosb@H@std@@2W4_Fmtflags@12@B		; std::_Iosb<int>::left
PUBLIC	?right@?$_Iosb@H@std@@2W4_Fmtflags@12@B		; std::_Iosb<int>::right
PUBLIC	?internal@?$_Iosb@H@std@@2W4_Fmtflags@12@B	; std::_Iosb<int>::internal
PUBLIC	?dec@?$_Iosb@H@std@@2W4_Fmtflags@12@B		; std::_Iosb<int>::dec
PUBLIC	?oct@?$_Iosb@H@std@@2W4_Fmtflags@12@B		; std::_Iosb<int>::oct
PUBLIC	?hex@?$_Iosb@H@std@@2W4_Fmtflags@12@B		; std::_Iosb<int>::hex
PUBLIC	?scientific@?$_Iosb@H@std@@2W4_Fmtflags@12@B	; std::_Iosb<int>::scientific
PUBLIC	?fixed@?$_Iosb@H@std@@2W4_Fmtflags@12@B		; std::_Iosb<int>::fixed
PUBLIC	?hexfloat@?$_Iosb@H@std@@2W4_Fmtflags@12@B	; std::_Iosb<int>::hexfloat
PUBLIC	?boolalpha@?$_Iosb@H@std@@2W4_Fmtflags@12@B	; std::_Iosb<int>::boolalpha
PUBLIC	?_Stdio@?$_Iosb@H@std@@2W4_Fmtflags@12@B	; std::_Iosb<int>::_Stdio
PUBLIC	?adjustfield@?$_Iosb@H@std@@2W4_Fmtflags@12@B	; std::_Iosb<int>::adjustfield
PUBLIC	?basefield@?$_Iosb@H@std@@2W4_Fmtflags@12@B	; std::_Iosb<int>::basefield
PUBLIC	?floatfield@?$_Iosb@H@std@@2W4_Fmtflags@12@B	; std::_Iosb<int>::floatfield
PUBLIC	?goodbit@?$_Iosb@H@std@@2W4_Iostate@12@B	; std::_Iosb<int>::goodbit
PUBLIC	?eofbit@?$_Iosb@H@std@@2W4_Iostate@12@B		; std::_Iosb<int>::eofbit
PUBLIC	?failbit@?$_Iosb@H@std@@2W4_Iostate@12@B	; std::_Iosb<int>::failbit
PUBLIC	?badbit@?$_Iosb@H@std@@2W4_Iostate@12@B		; std::_Iosb<int>::badbit
PUBLIC	?_Hardfail@?$_Iosb@H@std@@2W4_Iostate@12@B	; std::_Iosb<int>::_Hardfail
PUBLIC	?in@?$_Iosb@H@std@@2W4_Openmode@12@B		; std::_Iosb<int>::in
PUBLIC	?out@?$_Iosb@H@std@@2W4_Openmode@12@B		; std::_Iosb<int>::out
PUBLIC	?ate@?$_Iosb@H@std@@2W4_Openmode@12@B		; std::_Iosb<int>::ate
PUBLIC	?app@?$_Iosb@H@std@@2W4_Openmode@12@B		; std::_Iosb<int>::app
PUBLIC	?trunc@?$_Iosb@H@std@@2W4_Openmode@12@B		; std::_Iosb<int>::trunc
PUBLIC	?_Nocreate@?$_Iosb@H@std@@2W4_Openmode@12@B	; std::_Iosb<int>::_Nocreate
PUBLIC	?_Noreplace@?$_Iosb@H@std@@2W4_Openmode@12@B	; std::_Iosb<int>::_Noreplace
PUBLIC	?binary@?$_Iosb@H@std@@2W4_Openmode@12@B	; std::_Iosb<int>::binary
PUBLIC	?beg@?$_Iosb@H@std@@2W4_Seekdir@12@B		; std::_Iosb<int>::beg
PUBLIC	?cur@?$_Iosb@H@std@@2W4_Seekdir@12@B		; std::_Iosb<int>::cur
PUBLIC	?end@?$_Iosb@H@std@@2W4_Seekdir@12@B		; std::_Iosb<int>::end
;	COMDAT ??_C@_04NKFKOIHC@Chat?$AA@
CONST	SEGMENT
??_C@_04NKFKOIHC@Chat?$AA@ DB 'Chat', 00H		; `string'
CONST	ENDS
;	COMDAT ??_C@_0BB@DENPHCHM@Make?5Game?5Public?$AA@
CONST	SEGMENT
??_C@_0BB@DENPHCHM@Make?5Game?5Public?$AA@ DB 'Make Game Public', 00H ; `string'
CONST	ENDS
;	COMDAT ??_C@_0BB@LIPMMPLG@Dark?5Archon?5Meld?$AA@
CONST	SEGMENT
??_C@_0BB@LIPMMPLG@Dark?5Archon?5Meld?$AA@ DB 'Dark Archon Meld', 00H ; `string'
CONST	ENDS
;	COMDAT ??_C@_04BKFDJCNG@0x59?$AA@
CONST	SEGMENT
??_C@_04BKFDJCNG@0x59?$AA@ DB '0x59', 00H		; `string'
CONST	ENDS
;	COMDAT ??_C@_0N@NMOAPDHG@Minimap?5Ping?$AA@
CONST	SEGMENT
??_C@_0N@NMOAPDHG@Minimap?5Ping?$AA@ DB 'Minimap Ping', 00H ; `string'
CONST	ENDS
;	COMDAT ??_C@_0L@LBCNLCCF@Leave?5Game?$AA@
CONST	SEGMENT
??_C@_0L@LBCNLCCF@Leave?5Game?$AA@ DB 'Leave Game', 00H	; `string'
CONST	ENDS
;	COMDAT ??_C@_0BB@MGBIANOJ@Set?5Replay?5Speed?$AA@
CONST	SEGMENT
??_C@_0BB@MGBIANOJ@Set?5Replay?5Speed?$AA@ DB 'Set Replay Speed', 00H ; `string'
CONST	ENDS
;	COMDAT ??_C@_0M@GOBIDMLI@Set?5Latency?$AA@
CONST	SEGMENT
??_C@_0M@GOBIDMLI@Set?5Latency?$AA@ DB 'Set Latency', 00H ; `string'
CONST	ENDS
;	COMDAT ??_C@_0O@PIDPABKE@Skip?5Briefing?$AA@
CONST	SEGMENT
??_C@_0O@PIDPABKE@Skip?5Briefing?$AA@ DB 'Skip Briefing', 00H ; `string'
CONST	ENDS
;	COMDAT ??_C@_0BJ@OACOAKNO@?$FLResult?$FNBriefing?5Started?$AA@
CONST	SEGMENT
??_C@_0BJ@OACOAKNO@?$FLResult?$FNBriefing?5Started?$AA@ DB '[Result]Brief'
	DB	'ing Started', 00H				; `string'
CONST	ENDS
;	COMDAT ??_C@_0BA@HJPKKBAA@?$FLResult?$FNUnknown?$AA@
CONST	SEGMENT
??_C@_0BA@HJPKKBAA@?$FLResult?$FNUnknown?$AA@ DB '[Result]Unknown', 00H ; `string'
CONST	ENDS
;	COMDAT ??_C@_0BG@BEDBIGGC@?$FLResult?$FNNetwork?5Error?$AA@
CONST	SEGMENT
??_C@_0BG@BEDBIGGC@?$FLResult?$FNNetwork?5Error?$AA@ DB '[Result]Network '
	DB	'Error', 00H					; `string'
CONST	ENDS
;	COMDAT ??_C@_0L@NKDFONHA@?$FLResult?$FNOK?$AA@
CONST	SEGMENT
??_C@_0L@NKDFONHA@?$FLResult?$FNOK?$AA@ DB '[Result]OK', 00H ; `string'
CONST	ENDS
;	COMDAT ??_C@_0BF@PKMGMLFB@?$FLLobby?$FNFile?5Transfer?$AA@
CONST	SEGMENT
??_C@_0BF@PKMGMLFB@?$FLLobby?$FNFile?5Transfer?$AA@ DB '[Lobby]File Trans'
	DB	'fer', 00H					; `string'
CONST	ENDS
;	COMDAT ??_C@_0BD@EKKNDBJC@?$FLLobby?$FNBoot?5Player?$AA@
CONST	SEGMENT
??_C@_0BD@EKKNDBJC@?$FLLobby?$FNBoot?5Player?$AA@ DB '[Lobby]Boot Player', 00H ; `string'
CONST	ENDS
;	COMDAT ??_C@_0N@KDILJGFG@?$FLLobby?$FNChat2?$AA@
CONST	SEGMENT
??_C@_0N@KDILJGFG@?$FLLobby?$FNChat2?$AA@ DB '[Lobby]Chat2', 00H ; `string'
CONST	ENDS
;	COMDAT ??_C@_0M@PPEBHDOC@?$FLLobby?$FNChat?$AA@
CONST	SEGMENT
??_C@_0M@PPEBHDOC@?$FLLobby?$FNChat?$AA@ DB '[Lobby]Chat', 00H ; `string'
CONST	ENDS
;	COMDAT ??_C@_0BH@HCFKEAID@?$FLLobby?$FNSet?5Force?5Names?$AA@
CONST	SEGMENT
??_C@_0BH@HCFKEAID@?$FLLobby?$FNSet?5Force?5Names?$AA@ DB '[Lobby]Set For'
	DB	'ce Names', 00H				; `string'
CONST	ENDS
;	COMDAT ??_C@_0BG@KJAAGDBK@?$FLLobby?$FNSet?5Force?5Data?$AA@
CONST	SEGMENT
??_C@_0BG@KJAAGDBK@?$FLLobby?$FNSet?5Force?5Data?$AA@ DB '[Lobby]Set Forc'
	DB	'e Data', 00H				; `string'
CONST	ENDS
;	COMDAT ??_C@_0BE@KPJKPOMP@?$FLLobby?$FNRequest?5Info?$AA@
CONST	SEGMENT
??_C@_0BE@KPJKPOMP@?$FLLobby?$FNRequest?5Info?$AA@ DB '[Lobby]Request Inf'
	DB	'o', 00H					; `string'
CONST	ENDS
;	COMDAT ??_C@_0BF@NDJBMNCF@?$FLLobby?$FNSet?5Game?5Seed?$AA@
CONST	SEGMENT
??_C@_0BF@NDJBMNCF@?$FLLobby?$FNSet?5Game?5Seed?$AA@ DB '[Lobby]Set Game '
	DB	'Seed', 00H					; `string'
CONST	ENDS
;	COMDAT ??_C@_0M@KAAJEOPP@?$FLLobby?$FN0x47?$AA@
CONST	SEGMENT
??_C@_0M@KAAJEOPP@?$FLLobby?$FN0x47?$AA@ DB '[Lobby]0x47', 00H ; `string'
CONST	ENDS
;	COMDAT ??_C@_0M@LJBCHPLO@?$FLLobby?$FN0x46?$AA@
CONST	SEGMENT
??_C@_0M@LJBCHPLO@?$FLLobby?$FN0x46?$AA@ DB '[Lobby]0x46', 00H ; `string'
CONST	ENDS
;	COMDAT ??_C@_0BE@CCEBBKEN@?$FLLobby?$FNSwap?5Players?$AA@
CONST	SEGMENT
??_C@_0BE@CCEBBKEN@?$FLLobby?$FNSwap?5Players?$AA@ DB '[Lobby]Swap Player'
	DB	's', 00H					; `string'
CONST	ENDS
;	COMDAT ??_C@_0BA@HNAGKNBE@?$FLLobby?$FNSet?5Slot?$AA@
CONST	SEGMENT
??_C@_0BA@HNAGKNBE@?$FLLobby?$FNSet?5Slot?$AA@ DB '[Lobby]Set Slot', 00H ; `string'
CONST	ENDS
;	COMDAT ??_C@_0BH@DINGDBEA@?$FLLobby?$FNSet?5Force?5?$CIUMS?$CJ?$AA@
CONST	SEGMENT
??_C@_0BH@DINGDBEA@?$FLLobby?$FNSet?5Force?5?$CIUMS?$CJ?$AA@ DB '[Lobby]S'
	DB	'et Force (UMS)', 00H			; `string'
CONST	ENDS
;	COMDAT ??_C@_0BJ@OGIAHMOJ@?$FLLobby?$FNSet?5Force?5?$CIMelee?$CJ?$AA@
CONST	SEGMENT
??_C@_0BJ@OGIAHMOJ@?$FLLobby?$FNSet?5Force?5?$CIMelee?$CJ?$AA@ DB '[Lobby'
	DB	']Set Force (Melee)', 00H			; `string'
CONST	ENDS
;	COMDAT ??_C@_0BA@OIMPIGAN@?$FLLobby?$FNSet?5Race?$AA@
CONST	SEGMENT
??_C@_0BA@OIMPIGAN@?$FLLobby?$FNSet?5Race?$AA@ DB '[Lobby]Set Race', 00H ; `string'
CONST	ENDS
;	COMDAT ??_C@_0BH@GNJCPAIB@?$FLLobby?$FNConfirm?5Version?$AA@
CONST	SEGMENT
??_C@_0BH@GNJCPAIB@?$FLLobby?$FNConfirm?5Version?$AA@ DB '[Lobby]Confirm '
	DB	'Version', 00H				; `string'
CONST	ENDS
;	COMDAT ??_C@_0BD@LHOLDPJB@?$FLLobby?$FNAsk?5Version?$AA@
CONST	SEGMENT
??_C@_0BD@LHOLDPJB@?$FLLobby?$FNAsk?5Version?$AA@ DB '[Lobby]Ask Version', 00H ; `string'
CONST	ENDS
;	COMDAT ??_C@_0BM@PIHGGKL@?$FLLobby?$FNSet?5Slot?5Data?5?$CIHost?$CJ?$AA@
CONST	SEGMENT
??_C@_0BM@PIHGGKL@?$FLLobby?$FNSet?5Slot?5Data?5?$CIHost?$CJ?$AA@ DB '[Lo'
	DB	'bby]Set Slot Data (Host)', 00H		; `string'
CONST	ENDS
;	COMDAT ??_C@_0BN@OJMALIBE@?$FLLobby?$FNSet?5Download?5Progress?$AA@
CONST	SEGMENT
??_C@_0BN@OJMALIBE@?$FLLobby?$FNSet?5Download?5Progress?$AA@ DB '[Lobby]S'
	DB	'et Download Progress', 00H			; `string'
CONST	ENDS
;	COMDAT ??_C@_0BC@DICKFKJ@?$FLLobby?$FNStart?5Game?$AA@
CONST	SEGMENT
??_C@_0BC@DICKFKJ@?$FLLobby?$FNStart?5Game?$AA@ DB '[Lobby]Start Game', 00H ; `string'
CONST	ENDS
;	COMDAT ??_C@_0BA@GMBCDJG@Voice?5Unsquelch?$AA@
CONST	SEGMENT
??_C@_0BA@GMBCDJG@Voice?5Unsquelch?$AA@ DB 'Voice Unsquelch', 00H ; `string'
CONST	ENDS
;	COMDAT ??_C@_0O@BMDCHFNH@Voice?5Squelch?$AA@
CONST	SEGMENT
??_C@_0O@BMDCHFNH@Voice?5Squelch?$AA@ DB 'Voice Squelch', 00H ; `string'
CONST	ENDS
;	COMDAT ??_C@_09HLCNEACO@Voice?5Off?$AA@
CONST	SEGMENT
??_C@_09HLCNEACO@Voice?5Off?$AA@ DB 'Voice Off', 00H	; `string'
CONST	ENDS
;	COMDAT ??_C@_08PAGDMOKP@Voice?5On?$AA@
CONST	SEGMENT
??_C@_08PAGDMOKP@Voice?5On?$AA@ DB 'Voice On', 00H	; `string'
CONST	ENDS
;	COMDAT ??_C@_0BF@PHKLFOBD@Game?5Synchronization?$AA@
CONST	SEGMENT
??_C@_0BF@PHKLFOBD@Game?5Synchronization?$AA@ DB 'Game Synchronization', 00H ; `string'
CONST	ENDS
;	COMDAT ??_C@_0N@KGHFBHGG@Use?5Stimpack?$AA@
CONST	SEGMENT
??_C@_0N@KGHFBHGG@Use?5Stimpack?$AA@ DB 'Use Stimpack', 00H ; `string'
CONST	ENDS
;	COMDAT ??_C@_0P@KIJNPCAM@Morph?5Building?$AA@
CONST	SEGMENT
??_C@_0P@KIJNPCAM@Morph?5Building?$AA@ DB 'Morph Building', 00H ; `string'
CONST	ENDS
;	COMDAT ??_C@_0N@IBEDIMJF@Cancel?5Addon?$AA@
CONST	SEGMENT
??_C@_0N@IBEDIMJF@Cancel?5Addon?$AA@ DB 'Cancel Addon', 00H ; `string'
CONST	ENDS
;	COMDAT ??_C@_0P@JCILHKMO@Cancel?5Upgrade?$AA@
CONST	SEGMENT
??_C@_0P@JCILHKMO@Cancel?5Upgrade?$AA@ DB 'Cancel Upgrade', 00H ; `string'
CONST	ENDS
;	COMDAT ??_C@_07CJFOONCK@Upgrade?$AA@
CONST	SEGMENT
??_C@_07CJFOONCK@Upgrade?$AA@ DB 'Upgrade', 00H		; `string'
CONST	ENDS
;	COMDAT ??_C@_0BA@HNONCJOL@Cancel?5Research?$AA@
CONST	SEGMENT
??_C@_0BA@HNONCJOL@Cancel?5Research?$AA@ DB 'Cancel Research', 00H ; `string'
CONST	ENDS
;	COMDAT ??_C@_08NKDBNKBN@Research?$AA@
CONST	SEGMENT
??_C@_08NKDBNKBN@Research?$AA@ DB 'Research', 00H	; `string'
CONST	ENDS
;	COMDAT ??_C@_08OLGKIKAG@Lift?5Off?$AA@
CONST	SEGMENT
??_C@_08OLGKIKAG@Lift?5Off?$AA@ DB 'Lift Off', 00H	; `string'
CONST	ENDS
;	COMDAT ??_C@_0M@MMNGBMBH@Cancel?5Nuke?$AA@
CONST	SEGMENT
??_C@_0M@MMNGBMBH@Cancel?5Nuke?$AA@ DB 'Cancel Nuke', 00H ; `string'
CONST	ENDS
;	COMDAT ??_C@_08MCEFCEML@Unburrow?$AA@
CONST	SEGMENT
??_C@_08MCEFCEML@Unburrow?$AA@ DB 'Unburrow', 00H	; `string'
CONST	ENDS
;	COMDAT ??_C@_06ILDJGADH@Burrow?$AA@
CONST	SEGMENT
??_C@_06ILDJGADH@Burrow?$AA@ DB 'Burrow', 00H		; `string'
CONST	ENDS
;	COMDAT ??_C@_0O@IMEEPEIA@Hold?5Position?$AA@
CONST	SEGMENT
??_C@_0O@IMEEPEIA@Hold?5Position?$AA@ DB 'Hold Position', 00H ; `string'
CONST	ENDS
;	COMDAT ??_C@_0N@PMEPMLHE@Merge?5Archon?$AA@
CONST	SEGMENT
??_C@_0N@PMEPMLHE@Merge?5Archon?$AA@ DB 'Merge Archon', 00H ; `string'
CONST	ENDS
;	COMDAT ??_C@_0P@ICLFFDLC@Exit?5Transport?$AA@
CONST	SEGMENT
??_C@_0P@ICLFFDLC@Exit?5Transport?$AA@ DB 'Exit Transport', 00H ; `string'
CONST	ENDS
;	COMDAT ??_C@_0L@DFGLMHLP@Unload?5All?$AA@
CONST	SEGMENT
??_C@_0L@DFGLMHLP@Unload?5All?$AA@ DB 'Unload All', 00H	; `string'
CONST	ENDS
;	COMDAT ??_C@_0O@GGKHOKHK@Build?5Fighter?$AA@
CONST	SEGMENT
??_C@_0O@GGKHOKHK@Build?5Fighter?$AA@ DB 'Build Fighter', 00H ; `string'
CONST	ENDS
;	COMDAT ??_C@_05JOPHEEP@Siege?$AA@
CONST	SEGMENT
??_C@_05JOPHEEP@Siege?$AA@ DB 'Siege', 00H		; `string'
CONST	ENDS
;	COMDAT ??_C@_07BMOMMFKJ@Unsiege?$AA@
CONST	SEGMENT
??_C@_07BMOMMFKJ@Unsiege?$AA@ DB 'Unsiege', 00H		; `string'
CONST	ENDS
;	COMDAT ??_C@_04KKLCPKBO@0x24?$AA@
CONST	SEGMENT
??_C@_04KKLCPKBO@0x24?$AA@ DB '0x24', 00H		; `string'
CONST	ENDS
;	COMDAT ??_C@_0L@EDOHLEKH@Morph?5Unit?$AA@
CONST	SEGMENT
??_C@_0L@EDOHLEKH@Morph?5Unit?$AA@ DB 'Morph Unit', 00H	; `string'
CONST	ENDS
;	COMDAT ??_C@_07JAHPJMFF@Decloak?$AA@
CONST	SEGMENT
??_C@_07JAHPJMFF@Decloak?$AA@ DB 'Decloak', 00H		; `string'
CONST	ENDS
;	COMDAT ??_C@_05DHGKEIPM@Cloak?$AA@
CONST	SEGMENT
??_C@_05DHGKEIPM@Cloak?$AA@ DB 'Cloak', 00H		; `string'
CONST	ENDS
;	COMDAT ??_C@_0N@OKLPBBP@Cancel?5Train?$AA@
CONST	SEGMENT
??_C@_0N@OKLPBBP@Cancel?5Train?$AA@ DB 'Cancel Train', 00H ; `string'
CONST	ENDS
;	COMDAT ??_C@_05GFNCIBPC@Train?$AA@
CONST	SEGMENT
??_C@_05GFNCIBPC@Train?$AA@ DB 'Train', 00H		; `string'
CONST	ENDS
;	COMDAT ??_C@_0N@OAOLMLFB@Return?5Cargo?$AA@
CONST	SEGMENT
??_C@_0N@OAOLMLFB@Return?5Cargo?$AA@ DB 'Return Cargo', 00H ; `string'
CONST	ENDS
;	COMDAT ??_C@_07MMBOBMNN@Nothing?$AA@
CONST	SEGMENT
??_C@_07MMBOBMNN@Nothing?$AA@ DB 'Nothing', 00H		; `string'
CONST	ENDS
;	COMDAT ??_C@_0M@NLHPAPLI@Reaver?5Stop?$AA@
CONST	SEGMENT
??_C@_0M@NLHPAPLI@Reaver?5Stop?$AA@ DB 'Reaver Stop', 00H ; `string'
CONST	ENDS
;	COMDAT ??_C@_0N@PEADPAMH@Carrier?5Stop?$AA@
CONST	SEGMENT
??_C@_0N@PEADPAMH@Carrier?5Stop?$AA@ DB 'Carrier Stop', 00H ; `string'
CONST	ENDS
;	COMDAT ??_C@_04MOIHHPNJ@Stop?$AA@
CONST	SEGMENT
??_C@_04MOIHHPNJ@Stop?$AA@ DB 'Stop', 00H		; `string'
CONST	ENDS
;	COMDAT ??_C@_0N@LFADDGHH@Cancel?5Morph?$AA@
CONST	SEGMENT
??_C@_0N@LFADDGHH@Cancel?5Morph?$AA@ DB 'Cancel Morph', 00H ; `string'
CONST	ENDS
;	COMDAT ??_C@_0BE@EFOFLOJA@Cancel?5Construction?$AA@
CONST	SEGMENT
??_C@_0BE@EFOFLOJA@Cancel?5Construction?$AA@ DB 'Cancel Construction', 00H ; `string'
CONST	ENDS
;	COMDAT ??_C@_04IDNJBHIE@0x17?$AA@
CONST	SEGMENT
??_C@_04IDNJBHIE@0x17?$AA@ DB '0x17', 00H		; `string'
CONST	ENDS
;	COMDAT ??_C@_04JKMCCGMF@0x16?$AA@
CONST	SEGMENT
??_C@_04JKMCCGMF@0x16?$AA@ DB '0x16', 00H		; `string'
CONST	ENDS
;	COMDAT ??_C@_0N@LBNBMPMJ@Target?5Click?$AA@
CONST	SEGMENT
??_C@_0N@LBNBMPMJ@Target?5Click?$AA@ DB 'Target Click', 00H ; `string'
CONST	ENDS
;	COMDAT ??_C@_0M@BDGMFCOP@Right?5Click?$AA@
CONST	SEGMENT
??_C@_0M@BDGMFCOP@Right?5Click?$AA@ DB 'Right Click', 00H ; `string'
CONST	ENDS
;	COMDAT ??_C@_0M@PECPPPOO@Group?5Units?$AA@
CONST	SEGMENT
??_C@_0M@PECPPPOO@Group?5Units?$AA@ DB 'Group Units', 00H ; `string'
CONST	ENDS
;	COMDAT ??_C@_09PDOAOMEM@Use?5Cheat?$AA@
CONST	SEGMENT
??_C@_09PDOAOMEM@Use?5Cheat?$AA@ DB 'Use Cheat', 00H	; `string'
CONST	ENDS
;	COMDAT ??_C@_07OBDOKAPF@Unpause?$AA@
CONST	SEGMENT
??_C@_07OBDOKAPF@Unpause?$AA@ DB 'Unpause', 00H		; `string'
CONST	ENDS
;	COMDAT ??_C@_05PEDNBBBD@Pause?$AA@
CONST	SEGMENT
??_C@_05PEDNBBBD@Pause?$AA@ DB 'Pause', 00H		; `string'
CONST	ENDS
;	COMDAT ??_C@_09IPLIPCBA@Set?5Speed?$AA@
CONST	SEGMENT
??_C@_09IPLIPCBA@Set?5Speed?$AA@ DB 'Set Speed', 00H	; `string'
CONST	ENDS
;	COMDAT ??_C@_0L@NLHLHKFK@Set?5Allies?$AA@
CONST	SEGMENT
??_C@_0L@NLHLHKFK@Set?5Allies?$AA@ DB 'Set Allies', 00H	; `string'
CONST	ENDS
;	COMDAT ??_C@_07BOMAKBLO@Set?5Fog?$AA@
CONST	SEGMENT
??_C@_07BOMAKBLO@Set?5Fog?$AA@ DB 'Set Fog', 00H	; `string'
CONST	ENDS
;	COMDAT ??_C@_08CLNBJNCA@Placebox?$AA@
CONST	SEGMENT
??_C@_08CLNBJNCA@Placebox?$AA@ DB 'Placebox', 00H	; `string'
CONST	ENDS
;	COMDAT ??_C@_0P@IINHCEMO@Shift?5Deselect?$AA@
CONST	SEGMENT
??_C@_0P@IINHCEMO@Shift?5Deselect?$AA@ DB 'Shift Deselect', 00H ; `string'
CONST	ENDS
;	COMDAT ??_C@_0N@NCDAONAE@Shift?5Select?$AA@
CONST	SEGMENT
??_C@_0N@NCDAONAE@Shift?5Select?$AA@ DB 'Shift Select', 00H ; `string'
CONST	ENDS
;	COMDAT ??_C@_06HJGPBJLE@Select?$AA@
CONST	SEGMENT
??_C@_06HJGPBJLE@Select?$AA@ DB 'Select', 00H		; `string'
CONST	ENDS
;	COMDAT ??_C@_0N@DKOEBAOF@Restart?5Game?$AA@
CONST	SEGMENT
??_C@_0N@DKOEBAOF@Restart?5Game?$AA@ DB 'Restart Game', 00H ; `string'
CONST	ENDS
;	COMDAT ??_C@_09EOPBCAJJ@Load?5Game?$AA@
CONST	SEGMENT
??_C@_09EOPBCAJJ@Load?5Game?$AA@ DB 'Load Game', 00H	; `string'
CONST	ENDS
;	COMDAT ??_C@_09IAJPBCOI@Save?5Game?$AA@
CONST	SEGMENT
??_C@_09IAJPBCOI@Save?5Game?$AA@ DB 'Save Game', 00H	; `string'
CONST	ENDS
;	COMDAT ??_C@_0L@LFNIADGH@Keep?5Alive?$AA@
CONST	SEGMENT
??_C@_0L@LFNIADGH@Keep?5Alive?$AA@ DB 'Keep Alive', 00H	; `string'
CONST	ENDS
;	COMDAT ??_C@_04KJDGCOHA@0x04?$AA@
CONST	SEGMENT
??_C@_04KJDGCOHA@0x04?$AA@ DB '0x04', 00H		; `string'
CONST	ENDS
;	COMDAT ??_C@_04OGHHLILH@0x03?$AA@
CONST	SEGMENT
??_C@_04OGHHLILH@0x03?$AA@ DB '0x03', 00H		; `string'
CONST	ENDS
;	COMDAT ??_C@_09JELFAMD@Null?5Chat?$AA@
CONST	SEGMENT
??_C@_09JELFAMD@Null?5Chat?$AA@ DB 'Null Chat', 00H	; `string'
CONST	ENDS
;	COMDAT ??_C@_0N@LPBJEAGM@Private?5Chat?$AA@
CONST	SEGMENT
??_C@_0N@LPBJEAGM@Private?5Chat?$AA@ DB 'Private Chat', 00H ; `string'
CONST	ENDS
;	COMDAT ??_C@_0M@MJLADDJO@Public?5Chat?$AA@
CONST	SEGMENT
??_C@_0M@MJLADDJO@Public?5Chat?$AA@ DB 'Public Chat', 00H ; `string'
CONST	ENDS
;	COMDAT ??_C@_07GIDPHHDH@Dropped?$AA@
CONST	SEGMENT
??_C@_07GIDPHHDH@Dropped?$AA@ DB 'Dropped', 00H		; `string'
CONST	ENDS
;	COMDAT ??_C@_04HMPDNAFK@Draw?$AA@
CONST	SEGMENT
??_C@_04HMPDNAFK@Draw?$AA@ DB 'Draw', 00H		; `string'
CONST	ENDS
;	COMDAT ??_C@_08IAMFKBPN@Finished?$AA@
CONST	SEGMENT
??_C@_08IAMFKBPN@Finished?$AA@ DB 'Finished', 00H	; `string'
CONST	ENDS
;	COMDAT ??_C@_07FPEFHBMO@Victory?$AA@
CONST	SEGMENT
??_C@_07FPEFHBMO@Victory?$AA@ DB 'Victory', 00H		; `string'
CONST	ENDS
;	COMDAT ??_C@_06JCCCHHDL@Defeat?$AA@
CONST	SEGMENT
??_C@_06JCCCHHDL@Defeat?$AA@ DB 'Defeat', 00H		; `string'
CONST	ENDS
;	COMDAT ??_C@_04GMBKPCGK@Quit?$AA@
CONST	SEGMENT
??_C@_04GMBKPCGK@Quit?$AA@ DB 'Quit', 00H		; `string'
CONST	ENDS
;	COMDAT ??_C@_0L@HBLPOPIK@Extra?5High?$AA@
CONST	SEGMENT
??_C@_0L@HBLPOPIK@Extra?5High?$AA@ DB 'Extra High', 00H	; `string'
CONST	ENDS
;	COMDAT ??_C@_04PHMMJPOJ@High?$AA@
CONST	SEGMENT
??_C@_04PHMMJPOJ@High?$AA@ DB 'High', 00H		; `string'
CONST	ENDS
;	COMDAT ??_C@_03CMIMKEEK@Low?$AA@
CONST	SEGMENT
??_C@_03CMIMKEEK@Low?$AA@ DB 'Low', 00H			; `string'
CONST	ENDS
;	COMDAT ??_C@_07MIBGPIAH@Fastest?$AA@
CONST	SEGMENT
??_C@_07MIBGPIAH@Fastest?$AA@ DB 'Fastest', 00H		; `string'
CONST	ENDS
;	COMDAT ??_C@_06IPNKADFG@Faster?$AA@
CONST	SEGMENT
??_C@_06IPNKADFG@Faster?$AA@ DB 'Faster', 00H		; `string'
CONST	ENDS
;	COMDAT ??_C@_04HABAFPJG@Fast?$AA@
CONST	SEGMENT
??_C@_04HABAFPJG@Fast?$AA@ DB 'Fast', 00H		; `string'
CONST	ENDS
;	COMDAT ??_C@_06EFAGIKOH@Normal?$AA@
CONST	SEGMENT
??_C@_06EFAGIKOH@Normal?$AA@ DB 'Normal', 00H		; `string'
CONST	ENDS
;	COMDAT ??_C@_04BEGLJGGO@Slow?$AA@
CONST	SEGMENT
??_C@_04BEGLJGGO@Slow?$AA@ DB 'Slow', 00H		; `string'
CONST	ENDS
;	COMDAT ??_C@_06LBAHHGIM@Slower?$AA@
CONST	SEGMENT
??_C@_06LBAHHGIM@Slower?$AA@ DB 'Slower', 00H		; `string'
CONST	ENDS
;	COMDAT ??_C@_07KOCOBOLI@Slowest?$AA@
CONST	SEGMENT
??_C@_07KOCOBOLI@Slowest?$AA@ DB 'Slowest', 00H		; `string'
CONST	ENDS
_DATA	SEGMENT
_pszGroupType DD FLAT:??_C@_04INACKGJP@Save?$AA@
	DD	FLAT:??_C@_06FLGNMNOC@Recall?$AA@
	DD	FLAT:??_C@_03LDFMNCOE@Add?$AA@
_pszGameSpeed DD FLAT:??_C@_07KOCOBOLI@Slowest?$AA@
	DD	FLAT:??_C@_06LBAHHGIM@Slower?$AA@
	DD	FLAT:??_C@_04BEGLJGGO@Slow?$AA@
	DD	FLAT:??_C@_06EFAGIKOH@Normal?$AA@
	DD	FLAT:??_C@_04HABAFPJG@Fast?$AA@
	DD	FLAT:??_C@_06IPNKADFG@Faster?$AA@
	DD	FLAT:??_C@_07MIBGPIAH@Fastest?$AA@
_pszLatency DD	FLAT:??_C@_03CMIMKEEK@Low?$AA@
	DD	FLAT:??_C@_04PHMMJPOJ@High?$AA@
	DD	FLAT:??_C@_0L@HBLPOPIK@Extra?5High?$AA@
_pszLeaveType DD FLAT:??_C@_04GMBKPCGK@Quit?$AA@
	DD	FLAT:??_C@_06JCCCHHDL@Defeat?$AA@
	DD	FLAT:??_C@_07FPEFHBMO@Victory?$AA@
	DD	FLAT:??_C@_08IAMFKBPN@Finished?$AA@
	DD	FLAT:??_C@_04HMPDNAFK@Draw?$AA@
	DD	FLAT:??_C@_07GIDPHHDH@Dropped?$AA@
	ORG $+4
_pszActionNames DD FLAT:??_C@_0M@MJLADDJO@Public?5Chat?$AA@
	DD	FLAT:??_C@_0N@LPBJEAGM@Private?5Chat?$AA@
	DD	FLAT:??_C@_09JELFAMD@Null?5Chat?$AA@
	DD	FLAT:??_C@_04OGHHLILH@0x03?$AA@
	DD	FLAT:??_C@_04KJDGCOHA@0x04?$AA@
	DD	FLAT:??_C@_0L@LFNIADGH@Keep?5Alive?$AA@
	DD	FLAT:??_C@_09IAJPBCOI@Save?5Game?$AA@
	DD	FLAT:??_C@_09EOPBCAJJ@Load?5Game?$AA@
	DD	FLAT:??_C@_0N@DKOEBAOF@Restart?5Game?$AA@
	DD	FLAT:??_C@_06HJGPBJLE@Select?$AA@
	DD	FLAT:??_C@_0N@NCDAONAE@Shift?5Select?$AA@
	DD	FLAT:??_C@_0P@IINHCEMO@Shift?5Deselect?$AA@
	DD	FLAT:??_C@_08CLNBJNCA@Placebox?$AA@
	DD	FLAT:??_C@_07BOMAKBLO@Set?5Fog?$AA@
	DD	FLAT:??_C@_0L@NLHLHKFK@Set?5Allies?$AA@
	DD	FLAT:??_C@_09IPLIPCBA@Set?5Speed?$AA@
	DD	FLAT:??_C@_05PEDNBBBD@Pause?$AA@
	DD	FLAT:??_C@_07OBDOKAPF@Unpause?$AA@
	DD	FLAT:??_C@_09PDOAOMEM@Use?5Cheat?$AA@
	DD	FLAT:??_C@_0M@PECPPPOO@Group?5Units?$AA@
	DD	FLAT:??_C@_0M@BDGMFCOP@Right?5Click?$AA@
	DD	FLAT:??_C@_0N@LBNBMPMJ@Target?5Click?$AA@
	DD	FLAT:??_C@_04JKMCCGMF@0x16?$AA@
	DD	FLAT:??_C@_04IDNJBHIE@0x17?$AA@
	DD	FLAT:??_C@_0BE@EFOFLOJA@Cancel?5Construction?$AA@
	DD	FLAT:??_C@_0N@LFADDGHH@Cancel?5Morph?$AA@
	DD	FLAT:??_C@_04MOIHHPNJ@Stop?$AA@
	DD	FLAT:??_C@_0N@PEADPAMH@Carrier?5Stop?$AA@
	DD	FLAT:??_C@_0M@NLHPAPLI@Reaver?5Stop?$AA@
	DD	FLAT:??_C@_07MMBOBMNN@Nothing?$AA@
	DD	FLAT:??_C@_0N@OAOLMLFB@Return?5Cargo?$AA@
	DD	FLAT:??_C@_05GFNCIBPC@Train?$AA@
	DD	FLAT:??_C@_0N@OKLPBBP@Cancel?5Train?$AA@
	DD	FLAT:??_C@_05DHGKEIPM@Cloak?$AA@
	DD	FLAT:??_C@_07JAHPJMFF@Decloak?$AA@
	DD	FLAT:??_C@_0L@EDOHLEKH@Morph?5Unit?$AA@
	DD	FLAT:??_C@_04KKLCPKBO@0x24?$AA@
	DD	FLAT:??_C@_07BMOMMFKJ@Unsiege?$AA@
	DD	FLAT:??_C@_05JOPHEEP@Siege?$AA@
	DD	FLAT:??_C@_0O@GGKHOKHK@Build?5Fighter?$AA@
	DD	FLAT:??_C@_0L@DFGLMHLP@Unload?5All?$AA@
	DD	FLAT:??_C@_0P@ICLFFDLC@Exit?5Transport?$AA@
	DD	FLAT:??_C@_0N@PMEPMLHE@Merge?5Archon?$AA@
	DD	FLAT:??_C@_0O@IMEEPEIA@Hold?5Position?$AA@
	DD	FLAT:??_C@_06ILDJGADH@Burrow?$AA@
	DD	FLAT:??_C@_08MCEFCEML@Unburrow?$AA@
	DD	FLAT:??_C@_0M@MMNGBMBH@Cancel?5Nuke?$AA@
	DD	FLAT:??_C@_08OLGKIKAG@Lift?5Off?$AA@
	DD	FLAT:??_C@_08NKDBNKBN@Research?$AA@
	DD	FLAT:??_C@_0BA@HNONCJOL@Cancel?5Research?$AA@
	DD	FLAT:??_C@_07CJFOONCK@Upgrade?$AA@
	DD	FLAT:??_C@_0P@JCILHKMO@Cancel?5Upgrade?$AA@
	DD	FLAT:??_C@_0N@IBEDIMJF@Cancel?5Addon?$AA@
	DD	FLAT:??_C@_0P@KIJNPCAM@Morph?5Building?$AA@
	DD	FLAT:??_C@_0N@KGHFBHGG@Use?5Stimpack?$AA@
	DD	FLAT:??_C@_0BF@PHKLFOBD@Game?5Synchronization?$AA@
	DD	FLAT:??_C@_08PAGDMOKP@Voice?5On?$AA@
	DD	FLAT:??_C@_09HLCNEACO@Voice?5Off?$AA@
	DD	FLAT:??_C@_0O@BMDCHFNH@Voice?5Squelch?$AA@
	DD	FLAT:??_C@_0BA@GMBCDJG@Voice?5Unsquelch?$AA@
	DD	FLAT:??_C@_0BC@DICKFKJ@?$FLLobby?$FNStart?5Game?$AA@
	DD	FLAT:??_C@_0BN@OJMALIBE@?$FLLobby?$FNSet?5Download?5Progress?$AA@
	DD	FLAT:??_C@_0BM@PIHGGKL@?$FLLobby?$FNSet?5Slot?5Data?5?$CIHost?$CJ?$AA@
	DD	FLAT:??_C@_0BD@LHOLDPJB@?$FLLobby?$FNAsk?5Version?$AA@
	DD	FLAT:??_C@_0BH@GNJCPAIB@?$FLLobby?$FNConfirm?5Version?$AA@
	DD	FLAT:??_C@_0BA@OIMPIGAN@?$FLLobby?$FNSet?5Race?$AA@
	DD	FLAT:??_C@_0BJ@OGIAHMOJ@?$FLLobby?$FNSet?5Force?5?$CIMelee?$CJ?$AA@
	DD	FLAT:??_C@_0BH@DINGDBEA@?$FLLobby?$FNSet?5Force?5?$CIUMS?$CJ?$AA@
	DD	FLAT:??_C@_0BA@HNAGKNBE@?$FLLobby?$FNSet?5Slot?$AA@
	DD	FLAT:??_C@_0BE@CCEBBKEN@?$FLLobby?$FNSwap?5Players?$AA@
	DD	FLAT:??_C@_0M@LJBCHPLO@?$FLLobby?$FN0x46?$AA@
	DD	FLAT:??_C@_0M@KAAJEOPP@?$FLLobby?$FN0x47?$AA@
	DD	FLAT:??_C@_0BF@NDJBMNCF@?$FLLobby?$FNSet?5Game?5Seed?$AA@
	DD	FLAT:??_C@_0BE@KPJKPOMP@?$FLLobby?$FNRequest?5Info?$AA@
	DD	FLAT:??_C@_0BG@KJAAGDBK@?$FLLobby?$FNSet?5Force?5Data?$AA@
	DD	FLAT:??_C@_0BH@HCFKEAID@?$FLLobby?$FNSet?5Force?5Names?$AA@
	DD	FLAT:??_C@_0M@PPEBHDOC@?$FLLobby?$FNChat?$AA@
	DD	FLAT:??_C@_0N@KDILJGFG@?$FLLobby?$FNChat2?$AA@
	DD	FLAT:??_C@_0BD@EKKNDBJC@?$FLLobby?$FNBoot?5Player?$AA@
	DD	FLAT:??_C@_0BF@PKMGMLFB@?$FLLobby?$FNFile?5Transfer?$AA@
	DD	FLAT:??_C@_0L@NKDFONHA@?$FLResult?$FNOK?$AA@
	DD	FLAT:??_C@_0BG@BEDBIGGC@?$FLResult?$FNNetwork?5Error?$AA@
	DD	FLAT:??_C@_0BA@HJPKKBAA@?$FLResult?$FNUnknown?$AA@
	DD	FLAT:??_C@_0BJ@OACOAKNO@?$FLResult?$FNBriefing?5Started?$AA@
	DD	FLAT:??_C@_0O@PIDPABKE@Skip?5Briefing?$AA@
	DD	FLAT:??_C@_0M@GOBIDMLI@Set?5Latency?$AA@
	DD	FLAT:??_C@_0BB@MGBIANOJ@Set?5Replay?5Speed?$AA@
	DD	FLAT:??_C@_0L@LBCNLCCF@Leave?5Game?$AA@
	DD	FLAT:??_C@_0N@NMOAPDHG@Minimap?5Ping?$AA@
	DD	FLAT:??_C@_04BKFDJCNG@0x59?$AA@
	DD	FLAT:??_C@_0BB@LIPMMPLG@Dark?5Archon?5Meld?$AA@
	DD	FLAT:??_C@_0BB@DENPHCHM@Make?5Game?5Public?$AA@
	DD	FLAT:??_C@_04NKFKOIHC@Chat?$AA@
_DATA	ENDS
;	COMDAT ??_C@_03LDFMNCOE@Add?$AA@
CONST	SEGMENT
??_C@_03LDFMNCOE@Add?$AA@ DB 'Add', 00H			; `string'
CONST	ENDS
;	COMDAT ??_C@_06FLGNMNOC@Recall?$AA@
CONST	SEGMENT
??_C@_06FLGNMNOC@Recall?$AA@ DB 'Recall', 00H		; `string'
CONST	ENDS
;	COMDAT ??_C@_04INACKGJP@Save?$AA@
CONST	SEGMENT
??_C@_04INACKGJP@Save?$AA@ DB 'Save', 00H		; `string'
CONST	ENDS
;	COMDAT ?end@?$_Iosb@H@std@@2W4_Seekdir@12@B
CONST	SEGMENT
?end@?$_Iosb@H@std@@2W4_Seekdir@12@B DD 02H		; std::_Iosb<int>::end
CONST	ENDS
;	COMDAT ?cur@?$_Iosb@H@std@@2W4_Seekdir@12@B
CONST	SEGMENT
?cur@?$_Iosb@H@std@@2W4_Seekdir@12@B DD 01H		; std::_Iosb<int>::cur
CONST	ENDS
;	COMDAT ?beg@?$_Iosb@H@std@@2W4_Seekdir@12@B
CONST	SEGMENT
?beg@?$_Iosb@H@std@@2W4_Seekdir@12@B DD 00H		; std::_Iosb<int>::beg
CONST	ENDS
;	COMDAT ?binary@?$_Iosb@H@std@@2W4_Openmode@12@B
CONST	SEGMENT
?binary@?$_Iosb@H@std@@2W4_Openmode@12@B DD 020H	; std::_Iosb<int>::binary
CONST	ENDS
;	COMDAT ?_Noreplace@?$_Iosb@H@std@@2W4_Openmode@12@B
CONST	SEGMENT
?_Noreplace@?$_Iosb@H@std@@2W4_Openmode@12@B DD 080H	; std::_Iosb<int>::_Noreplace
CONST	ENDS
;	COMDAT ?_Nocreate@?$_Iosb@H@std@@2W4_Openmode@12@B
CONST	SEGMENT
?_Nocreate@?$_Iosb@H@std@@2W4_Openmode@12@B DD 040H	; std::_Iosb<int>::_Nocreate
CONST	ENDS
;	COMDAT ?trunc@?$_Iosb@H@std@@2W4_Openmode@12@B
CONST	SEGMENT
?trunc@?$_Iosb@H@std@@2W4_Openmode@12@B DD 010H		; std::_Iosb<int>::trunc
CONST	ENDS
;	COMDAT ?app@?$_Iosb@H@std@@2W4_Openmode@12@B
CONST	SEGMENT
?app@?$_Iosb@H@std@@2W4_Openmode@12@B DD 08H		; std::_Iosb<int>::app
CONST	ENDS
;	COMDAT ?ate@?$_Iosb@H@std@@2W4_Openmode@12@B
CONST	SEGMENT
?ate@?$_Iosb@H@std@@2W4_Openmode@12@B DD 04H		; std::_Iosb<int>::ate
CONST	ENDS
;	COMDAT ?out@?$_Iosb@H@std@@2W4_Openmode@12@B
CONST	SEGMENT
?out@?$_Iosb@H@std@@2W4_Openmode@12@B DD 02H		; std::_Iosb<int>::out
CONST	ENDS
;	COMDAT ?in@?$_Iosb@H@std@@2W4_Openmode@12@B
CONST	SEGMENT
?in@?$_Iosb@H@std@@2W4_Openmode@12@B DD 01H		; std::_Iosb<int>::in
CONST	ENDS
;	COMDAT ?_Hardfail@?$_Iosb@H@std@@2W4_Iostate@12@B
CONST	SEGMENT
?_Hardfail@?$_Iosb@H@std@@2W4_Iostate@12@B DD 010H	; std::_Iosb<int>::_Hardfail
CONST	ENDS
;	COMDAT ?badbit@?$_Iosb@H@std@@2W4_Iostate@12@B
CONST	SEGMENT
?badbit@?$_Iosb@H@std@@2W4_Iostate@12@B DD 04H		; std::_Iosb<int>::badbit
CONST	ENDS
;	COMDAT ?failbit@?$_Iosb@H@std@@2W4_Iostate@12@B
CONST	SEGMENT
?failbit@?$_Iosb@H@std@@2W4_Iostate@12@B DD 02H		; std::_Iosb<int>::failbit
CONST	ENDS
;	COMDAT ?eofbit@?$_Iosb@H@std@@2W4_Iostate@12@B
CONST	SEGMENT
?eofbit@?$_Iosb@H@std@@2W4_Iostate@12@B DD 01H		; std::_Iosb<int>::eofbit
CONST	ENDS
;	COMDAT ?goodbit@?$_Iosb@H@std@@2W4_Iostate@12@B
CONST	SEGMENT
?goodbit@?$_Iosb@H@std@@2W4_Iostate@12@B DD 00H		; std::_Iosb<int>::goodbit
CONST	ENDS
;	COMDAT ?floatfield@?$_Iosb@H@std@@2W4_Fmtflags@12@B
CONST	SEGMENT
?floatfield@?$_Iosb@H@std@@2W4_Fmtflags@12@B DD 03000H	; std::_Iosb<int>::floatfield
CONST	ENDS
;	COMDAT ?basefield@?$_Iosb@H@std@@2W4_Fmtflags@12@B
CONST	SEGMENT
?basefield@?$_Iosb@H@std@@2W4_Fmtflags@12@B DD 0e00H	; std::_Iosb<int>::basefield
CONST	ENDS
;	COMDAT ?adjustfield@?$_Iosb@H@std@@2W4_Fmtflags@12@B
CONST	SEGMENT
?adjustfield@?$_Iosb@H@std@@2W4_Fmtflags@12@B DD 01c0H	; std::_Iosb<int>::adjustfield
CONST	ENDS
;	COMDAT ?_Stdio@?$_Iosb@H@std@@2W4_Fmtflags@12@B
CONST	SEGMENT
?_Stdio@?$_Iosb@H@std@@2W4_Fmtflags@12@B DD 08000H	; std::_Iosb<int>::_Stdio
CONST	ENDS
;	COMDAT ?boolalpha@?$_Iosb@H@std@@2W4_Fmtflags@12@B
CONST	SEGMENT
?boolalpha@?$_Iosb@H@std@@2W4_Fmtflags@12@B DD 04000H	; std::_Iosb<int>::boolalpha
CONST	ENDS
;	COMDAT ?hexfloat@?$_Iosb@H@std@@2W4_Fmtflags@12@B
CONST	SEGMENT
?hexfloat@?$_Iosb@H@std@@2W4_Fmtflags@12@B DD 03000H	; std::_Iosb<int>::hexfloat
CONST	ENDS
;	COMDAT ?fixed@?$_Iosb@H@std@@2W4_Fmtflags@12@B
CONST	SEGMENT
?fixed@?$_Iosb@H@std@@2W4_Fmtflags@12@B DD 02000H	; std::_Iosb<int>::fixed
CONST	ENDS
;	COMDAT ?scientific@?$_Iosb@H@std@@2W4_Fmtflags@12@B
CONST	SEGMENT
?scientific@?$_Iosb@H@std@@2W4_Fmtflags@12@B DD 01000H	; std::_Iosb<int>::scientific
CONST	ENDS
;	COMDAT ?hex@?$_Iosb@H@std@@2W4_Fmtflags@12@B
CONST	SEGMENT
?hex@?$_Iosb@H@std@@2W4_Fmtflags@12@B DD 0800H		; std::_Iosb<int>::hex
CONST	ENDS
;	COMDAT ?oct@?$_Iosb@H@std@@2W4_Fmtflags@12@B
CONST	SEGMENT
?oct@?$_Iosb@H@std@@2W4_Fmtflags@12@B DD 0400H		; std::_Iosb<int>::oct
CONST	ENDS
;	COMDAT ?dec@?$_Iosb@H@std@@2W4_Fmtflags@12@B
CONST	SEGMENT
?dec@?$_Iosb@H@std@@2W4_Fmtflags@12@B DD 0200H		; std::_Iosb<int>::dec
CONST	ENDS
;	COMDAT ?internal@?$_Iosb@H@std@@2W4_Fmtflags@12@B
CONST	SEGMENT
?internal@?$_Iosb@H@std@@2W4_Fmtflags@12@B DD 0100H	; std::_Iosb<int>::internal
CONST	ENDS
;	COMDAT ?right@?$_Iosb@H@std@@2W4_Fmtflags@12@B
CONST	SEGMENT
?right@?$_Iosb@H@std@@2W4_Fmtflags@12@B DD 080H		; std::_Iosb<int>::right
CONST	ENDS
;	COMDAT ?left@?$_Iosb@H@std@@2W4_Fmtflags@12@B
CONST	SEGMENT
?left@?$_Iosb@H@std@@2W4_Fmtflags@12@B DD 040H		; std::_Iosb<int>::left
CONST	ENDS
;	COMDAT ?showpos@?$_Iosb@H@std@@2W4_Fmtflags@12@B
CONST	SEGMENT
?showpos@?$_Iosb@H@std@@2W4_Fmtflags@12@B DD 020H	; std::_Iosb<int>::showpos
CONST	ENDS
;	COMDAT ?showpoint@?$_Iosb@H@std@@2W4_Fmtflags@12@B
CONST	SEGMENT
?showpoint@?$_Iosb@H@std@@2W4_Fmtflags@12@B DD 010H	; std::_Iosb<int>::showpoint
CONST	ENDS
;	COMDAT ?showbase@?$_Iosb@H@std@@2W4_Fmtflags@12@B
CONST	SEGMENT
?showbase@?$_Iosb@H@std@@2W4_Fmtflags@12@B DD 08H	; std::_Iosb<int>::showbase
CONST	ENDS
;	COMDAT ?uppercase@?$_Iosb@H@std@@2W4_Fmtflags@12@B
CONST	SEGMENT
?uppercase@?$_Iosb@H@std@@2W4_Fmtflags@12@B DD 04H	; std::_Iosb<int>::uppercase
CONST	ENDS
;	COMDAT ?unitbuf@?$_Iosb@H@std@@2W4_Fmtflags@12@B
CONST	SEGMENT
?unitbuf@?$_Iosb@H@std@@2W4_Fmtflags@12@B DD 02H	; std::_Iosb<int>::unitbuf
CONST	ENDS
;	COMDAT ?skipws@?$_Iosb@H@std@@2W4_Fmtflags@12@B
CONST	SEGMENT
?skipws@?$_Iosb@H@std@@2W4_Fmtflags@12@B DD 01H		; std::_Iosb<int>::skipws
CONST	ENDS
;	COMDAT ?none@?$_Locbase@H@std@@2HB
CONST	SEGMENT
?none@?$_Locbase@H@std@@2HB DD 00H			; std::_Locbase<int>::none
CONST	ENDS
;	COMDAT ?all@?$_Locbase@H@std@@2HB
CONST	SEGMENT
?all@?$_Locbase@H@std@@2HB DD 03fH			; std::_Locbase<int>::all
CONST	ENDS
;	COMDAT ?messages@?$_Locbase@H@std@@2HB
CONST	SEGMENT
?messages@?$_Locbase@H@std@@2HB DD 020H			; std::_Locbase<int>::messages
CONST	ENDS
;	COMDAT ?time@?$_Locbase@H@std@@2HB
CONST	SEGMENT
?time@?$_Locbase@H@std@@2HB DD 010H			; std::_Locbase<int>::time
CONST	ENDS
;	COMDAT ?numeric@?$_Locbase@H@std@@2HB
CONST	SEGMENT
?numeric@?$_Locbase@H@std@@2HB DD 08H			; std::_Locbase<int>::numeric
CONST	ENDS
;	COMDAT ?monetary@?$_Locbase@H@std@@2HB
CONST	SEGMENT
?monetary@?$_Locbase@H@std@@2HB DD 04H			; std::_Locbase<int>::monetary
CONST	ENDS
;	COMDAT ?ctype@?$_Locbase@H@std@@2HB
CONST	SEGMENT
?ctype@?$_Locbase@H@std@@2HB DD 02H			; std::_Locbase<int>::ctype
CONST	ENDS
;	COMDAT ?collate@?$_Locbase@H@std@@2HB
CONST	SEGMENT
?collate@?$_Locbase@H@std@@2HB DD 01H			; std::_Locbase<int>::collate
CONST	ENDS
;	COMDAT ?_Value@?$_Size@U?$_Cons_node@U_Nil@tr1@std@@U123@@tr1@std@@@tr1@std@@2IB
CONST	SEGMENT
?_Value@?$_Size@U?$_Cons_node@U_Nil@tr1@std@@U123@@tr1@std@@@tr1@std@@2IB DD 00H ; std::tr1::_Size<std::tr1::_Cons_node<std::tr1::_Nil,std::tr1::_Nil> >::_Value
CONST	ENDS
;	COMDAT ?_Rank@?$_Arithmetic_traits@O@std@@2HB
CONST	SEGMENT
?_Rank@?$_Arithmetic_traits@O@std@@2HB DD 09H		; std::_Arithmetic_traits<long double>::_Rank
CONST	ENDS
;	COMDAT ?_Rank@?$_Arithmetic_traits@N@std@@2HB
CONST	SEGMENT
?_Rank@?$_Arithmetic_traits@N@std@@2HB DD 08H		; std::_Arithmetic_traits<double>::_Rank
CONST	ENDS
;	COMDAT ?_Rank@?$_Arithmetic_traits@M@std@@2HB
CONST	SEGMENT
?_Rank@?$_Arithmetic_traits@M@std@@2HB DD 07H		; std::_Arithmetic_traits<float>::_Rank
CONST	ENDS
;	COMDAT ?_Rank@?$_Arithmetic_traits@_K@std@@2HB
CONST	SEGMENT
?_Rank@?$_Arithmetic_traits@_K@std@@2HB DD 06H		; std::_Arithmetic_traits<unsigned __int64>::_Rank
CONST	ENDS
;	COMDAT ?_Rank@?$_Arithmetic_traits@_J@std@@2HB
CONST	SEGMENT
?_Rank@?$_Arithmetic_traits@_J@std@@2HB DD 06H		; std::_Arithmetic_traits<__int64>::_Rank
CONST	ENDS
;	COMDAT ?_Rank@?$_Arithmetic_traits@K@std@@2HB
CONST	SEGMENT
?_Rank@?$_Arithmetic_traits@K@std@@2HB DD 05H		; std::_Arithmetic_traits<unsigned long>::_Rank
CONST	ENDS
;	COMDAT ?_Rank@?$_Arithmetic_traits@J@std@@2HB
CONST	SEGMENT
?_Rank@?$_Arithmetic_traits@J@std@@2HB DD 05H		; std::_Arithmetic_traits<long>::_Rank
CONST	ENDS
;	COMDAT ?_Rank@?$_Arithmetic_traits@I@std@@2HB
CONST	SEGMENT
?_Rank@?$_Arithmetic_traits@I@std@@2HB DD 04H		; std::_Arithmetic_traits<unsigned int>::_Rank
CONST	ENDS
;	COMDAT ?_Rank@?$_Arithmetic_traits@H@std@@2HB
CONST	SEGMENT
?_Rank@?$_Arithmetic_traits@H@std@@2HB DD 04H		; std::_Arithmetic_traits<int>::_Rank
CONST	ENDS
;	COMDAT ?_Rank@?$_Arithmetic_traits@G@std@@2HB
CONST	SEGMENT
?_Rank@?$_Arithmetic_traits@G@std@@2HB DD 03H		; std::_Arithmetic_traits<unsigned short>::_Rank
CONST	ENDS
;	COMDAT ?_Rank@?$_Arithmetic_traits@F@std@@2HB
CONST	SEGMENT
?_Rank@?$_Arithmetic_traits@F@std@@2HB DD 03H		; std::_Arithmetic_traits<short>::_Rank
CONST	ENDS
;	COMDAT ?_Rank@?$_Arithmetic_traits@E@std@@2HB
CONST	SEGMENT
?_Rank@?$_Arithmetic_traits@E@std@@2HB DD 02H		; std::_Arithmetic_traits<unsigned char>::_Rank
CONST	ENDS
;	COMDAT ?_Rank@?$_Arithmetic_traits@C@std@@2HB
CONST	SEGMENT
?_Rank@?$_Arithmetic_traits@C@std@@2HB DD 02H		; std::_Arithmetic_traits<signed char>::_Rank
CONST	ENDS
;	COMDAT ?_Rank@?$_Arithmetic_traits@D@std@@2HB
CONST	SEGMENT
?_Rank@?$_Arithmetic_traits@D@std@@2HB DD 02H		; std::_Arithmetic_traits<char>::_Rank
CONST	ENDS
;	COMDAT ?_Rank@?$_Arithmetic_traits@_N@std@@2HB
CONST	SEGMENT
?_Rank@?$_Arithmetic_traits@_N@std@@2HB DD 01H		; std::_Arithmetic_traits<bool>::_Rank
CONST	ENDS
;	COMDAT ?value@?$integral_constant@I$0A@@tr1@std@@2IB
CONST	SEGMENT
?value@?$integral_constant@I$0A@@tr1@std@@2IB DD 00H	; std::tr1::integral_constant<unsigned int,0>::value
CONST	ENDS
;	COMDAT ?value@?$integral_constant@_N$00@tr1@std@@2_NB
CONST	SEGMENT
?value@?$integral_constant@_N$00@tr1@std@@2_NB DB 01H	; std::tr1::integral_constant<bool,1>::value
CONST	ENDS
;	COMDAT ?value@?$integral_constant@_N$0A@@tr1@std@@2_NB
CONST	SEGMENT
?value@?$integral_constant@_N$0A@@tr1@std@@2_NB DB 00H	; std::tr1::integral_constant<bool,0>::value
CONST	ENDS
PUBLIC	??1?$pair@V?$_Tree_iterator@V?$_Tree_val@V?$_Tmap_traits@EPAVGameAction@ReplayTool@@U?$less@E@std@@V?$allocator@U?$pair@$$CBEPAVGameAction@ReplayTool@@@std@@@4@$0A@@std@@@std@@@std@@_N@std@@QAE@XZ ; std::pair<std::_Tree_iterator<std::_Tree_val<std::_Tmap_traits<unsigned char,ReplayTool::GameAction *,std::less<unsigned char>,std::allocator<std::pair<unsigned char const ,ReplayTool::GameAction *> >,0> > >,bool>::~pair<std::_Tree_iterator<std::_Tree_val<std::_Tmap_traits<unsigned char,ReplayTool::GameAction *,std::less<unsigned char>,std::allocator<std::pair<unsigned char const ,ReplayTool::GameAction *> >,0> > >,bool>
PUBLIC	??$insert@U?$pair@EPAVGameAction@ReplayTool@@@std@@@?$_Tree@V?$_Tmap_traits@EPAVGameAction@ReplayTool@@U?$less@E@std@@V?$allocator@U?$pair@$$CBEPAVGameAction@ReplayTool@@@std@@@4@$0A@@std@@@std@@QAE?AU?$pair@V?$_Tree_iterator@V?$_Tree_val@V?$_Tmap_traits@EPAVGameAction@ReplayTool@@U?$less@E@std@@V?$allocator@U?$pair@$$CBEPAVGameAction@ReplayTool@@@std@@@4@$0A@@std@@@std@@@std@@_N@1@$$QAU?$pair@EPAVGameAction@ReplayTool@@@1@@Z ; std::_Tree<std::_Tmap_traits<unsigned char,ReplayTool::GameAction *,std::less<unsigned char>,std::allocator<std::pair<unsigned char const ,ReplayTool::GameAction *> >,0> >::insert<std::pair<unsigned char,ReplayTool::GameAction *> >
PUBLIC	??$make_pair@EAAPAVGameAction@ReplayTool@@@std@@YA?AU?$pair@EPAVGameAction@ReplayTool@@@0@$$QAEAAPAVGameAction@ReplayTool@@@Z ; std::make_pair<unsigned char,ReplayTool::GameAction * &>
PUBLIC	??1?$_Tree_iterator@V?$_Tree_val@V?$_Tmap_traits@EPAVGameAction@ReplayTool@@U?$less@E@std@@V?$allocator@U?$pair@$$CBEPAVGameAction@ReplayTool@@@std@@@4@$0A@@std@@@std@@@std@@QAE@XZ ; std::_Tree_iterator<std::_Tree_val<std::_Tmap_traits<unsigned char,ReplayTool::GameAction *,std::less<unsigned char>,std::allocator<std::pair<unsigned char const ,ReplayTool::GameAction *> >,0> > >::~_Tree_iterator<std::_Tree_val<std::_Tmap_traits<unsigned char,ReplayTool::GameAction *,std::less<unsigned char>,std::allocator<std::pair<unsigned char const ,ReplayTool::GameAction *> >,0> > >
PUBLIC	??8?$_Tree_const_iterator@V?$_Tree_val@V?$_Tmap_traits@EPAVGameAction@ReplayTool@@U?$less@E@std@@V?$allocator@U?$pair@$$CBEPAVGameAction@ReplayTool@@@std@@@4@$0A@@std@@@std@@@std@@QBE_NABV01@@Z ; std::_Tree_const_iterator<std::_Tree_val<std::_Tmap_traits<unsigned char,ReplayTool::GameAction *,std::less<unsigned char>,std::allocator<std::pair<unsigned char const ,ReplayTool::GameAction *> >,0> > >::operator==
PUBLIC	?find@?$_Tree@V?$_Tmap_traits@EPAVGameAction@ReplayTool@@U?$less@E@std@@V?$allocator@U?$pair@$$CBEPAVGameAction@ReplayTool@@@std@@@4@$0A@@std@@@std@@QAE?AV?$_Tree_iterator@V?$_Tree_val@V?$_Tmap_traits@EPAVGameAction@ReplayTool@@U?$less@E@std@@V?$allocator@U?$pair@$$CBEPAVGameAction@ReplayTool@@@std@@@4@$0A@@std@@@std@@@2@ABE@Z ; std::_Tree<std::_Tmap_traits<unsigned char,ReplayTool::GameAction *,std::less<unsigned char>,std::allocator<std::pair<unsigned char const ,ReplayTool::GameAction *> >,0> >::find
PUBLIC	?end@?$_Tree@V?$_Tmap_traits@EPAVGameAction@ReplayTool@@U?$less@E@std@@V?$allocator@U?$pair@$$CBEPAVGameAction@ReplayTool@@@std@@@4@$0A@@std@@@std@@QAE?AV?$_Tree_iterator@V?$_Tree_val@V?$_Tmap_traits@EPAVGameAction@ReplayTool@@U?$less@E@std@@V?$allocator@U?$pair@$$CBEPAVGameAction@ReplayTool@@@std@@@4@$0A@@std@@@std@@@2@XZ ; std::_Tree<std::_Tmap_traits<unsigned char,ReplayTool::GameAction *,std::less<unsigned char>,std::allocator<std::pair<unsigned char const ,ReplayTool::GameAction *> >,0> >::end
PUBLIC	?getAction@GameAction@ReplayTool@@QBEEXZ	; ReplayTool::GameAction::getAction
PUBLIC	?add@Factory@GameAction@ReplayTool@@QAEXPAV23@@Z ; ReplayTool::GameAction::Factory::add
EXTRN	___security_cookie:DWORD
EXTRN	___CxxFrameHandler3:PROC
EXTRN	@__security_check_cookie@4:PROC
EXTRN	__RTC_CheckEsp:PROC
EXTRN	__RTC_Shutdown:PROC
EXTRN	__RTC_InitBase:PROC
;	COMDAT xdata$x
; File c:\fili\development\gp\rtsairesearch\bwapi\bwapi\libreplaytool\gameaction.cpp
xdata$x	SEGMENT
__unwindtable$?add@Factory@GameAction@ReplayTool@@QAEXPAV23@@Z DD 0ffffffffH
	DD	FLAT:__unwindfunclet$?add@Factory@GameAction@ReplayTool@@QAEXPAV23@@Z$0
	DD	00H
	DD	FLAT:__unwindfunclet$?add@Factory@GameAction@ReplayTool@@QAEXPAV23@@Z$1
__ehfuncinfo$?add@Factory@GameAction@ReplayTool@@QAEXPAV23@@Z DD 019930522H
	DD	02H
	DD	FLAT:__unwindtable$?add@Factory@GameAction@ReplayTool@@QAEXPAV23@@Z
	DD	2 DUP(00H)
	DD	2 DUP(00H)
	DD	00H
	DD	01H
xdata$x	ENDS
;	COMDAT rtc$TMZ
rtc$TMZ	SEGMENT
__RTC_Shutdown.rtc$TMZ DD FLAT:__RTC_Shutdown
rtc$TMZ	ENDS
;	COMDAT rtc$IMZ
rtc$IMZ	SEGMENT
__RTC_InitBase.rtc$IMZ DD FLAT:__RTC_InitBase
; Function compile flags: /Odtp /RTCsu /ZI
rtc$IMZ	ENDS
;	COMDAT ?add@Factory@GameAction@ReplayTool@@QAEXPAV23@@Z
_TEXT	SEGMENT
tv149 = -348						; size = 4
tv151 = -344						; size = 4
tv147 = -340						; size = 4
tv136 = -336						; size = 4
$T172958 = -325						; size = 1
$T172959 = -313						; size = 1
$T172960 = -304						; size = 12
$T172961 = -284						; size = 12
$T172962 = -261						; size = 1
$T172963 = -252						; size = 8
$T172964 = -236						; size = 16
_this$ = -20						; size = 4
__$EHRec$ = -12						; size = 12
_prototype$ = 8						; size = 4
?add@Factory@GameAction@ReplayTool@@QAEXPAV23@@Z PROC	; ReplayTool::GameAction::Factory::add, COMDAT
; _this$ = ecx

; 10   : {

  00000	55		 push	 ebp
  00001	8b ec		 mov	 ebp, esp
  00003	6a ff		 push	 -1
  00005	68 00 00 00 00	 push	 __ehhandler$?add@Factory@GameAction@ReplayTool@@QAEXPAV23@@Z
  0000a	64 a1 00 00 00
	00		 mov	 eax, DWORD PTR fs:0
  00010	50		 push	 eax
  00011	81 ec 50 01 00
	00		 sub	 esp, 336		; 00000150H
  00017	53		 push	 ebx
  00018	56		 push	 esi
  00019	57		 push	 edi
  0001a	51		 push	 ecx
  0001b	8d bd a4 fe ff
	ff		 lea	 edi, DWORD PTR [ebp-348]
  00021	b9 54 00 00 00	 mov	 ecx, 84			; 00000054H
  00026	b8 cc cc cc cc	 mov	 eax, -858993460		; ccccccccH
  0002b	f3 ab		 rep stosd
  0002d	59		 pop	 ecx
  0002e	a1 00 00 00 00	 mov	 eax, DWORD PTR ___security_cookie
  00033	33 c5		 xor	 eax, ebp
  00035	50		 push	 eax
  00036	8d 45 f4	 lea	 eax, DWORD PTR __$EHRec$[ebp]
  00039	64 a3 00 00 00
	00		 mov	 DWORD PTR fs:0, eax
  0003f	89 4d ec	 mov	 DWORD PTR _this$[ebp], ecx

; 11   :   if (prototype != nullptr)

  00042	83 7d 08 00	 cmp	 DWORD PTR _prototype$[ebp], 0
  00046	0f 84 e9 00 00
	00		 je	 $LN3@add

; 12   :   {
; 13   :     if (actions.find(prototype->getAction()) == actions.end())

  0004c	8b 4d 08	 mov	 ecx, DWORD PTR _prototype$[ebp]
  0004f	e8 00 00 00 00	 call	 ?getAction@GameAction@ReplayTool@@QBEEXZ ; ReplayTool::GameAction::getAction
  00054	88 85 c7 fe ff
	ff		 mov	 BYTE PTR $T172959[ebp], al
  0005a	8d 85 e4 fe ff
	ff		 lea	 eax, DWORD PTR $T172961[ebp]
  00060	50		 push	 eax
  00061	8b 4d ec	 mov	 ecx, DWORD PTR _this$[ebp]
  00064	e8 00 00 00 00	 call	 ?end@?$_Tree@V?$_Tmap_traits@EPAVGameAction@ReplayTool@@U?$less@E@std@@V?$allocator@U?$pair@$$CBEPAVGameAction@ReplayTool@@@std@@@4@$0A@@std@@@std@@QAE?AV?$_Tree_iterator@V?$_Tree_val@V?$_Tmap_traits@EPAVGameAction@ReplayTool@@U?$less@E@std@@V?$allocator@U?$pair@$$CBEPAVGameAction@ReplayTool@@@std@@@4@$0A@@std@@@std@@@2@XZ ; std::_Tree<std::_Tmap_traits<unsigned char,ReplayTool::GameAction *,std::less<unsigned char>,std::allocator<std::pair<unsigned char const ,ReplayTool::GameAction *> >,0> >::end
  00069	89 85 b0 fe ff
	ff		 mov	 DWORD PTR tv136[ebp], eax
  0006f	8b 8d b0 fe ff
	ff		 mov	 ecx, DWORD PTR tv136[ebp]
  00075	89 8d ac fe ff
	ff		 mov	 DWORD PTR tv147[ebp], ecx
  0007b	c7 45 fc 00 00
	00 00		 mov	 DWORD PTR __$EHRec$[ebp+8], 0
  00082	8b 95 ac fe ff
	ff		 mov	 edx, DWORD PTR tv147[ebp]
  00088	52		 push	 edx
  00089	8d 85 c7 fe ff
	ff		 lea	 eax, DWORD PTR $T172959[ebp]
  0008f	50		 push	 eax
  00090	8d 8d d0 fe ff
	ff		 lea	 ecx, DWORD PTR $T172960[ebp]
  00096	51		 push	 ecx
  00097	8b 4d ec	 mov	 ecx, DWORD PTR _this$[ebp]
  0009a	e8 00 00 00 00	 call	 ?find@?$_Tree@V?$_Tmap_traits@EPAVGameAction@ReplayTool@@U?$less@E@std@@V?$allocator@U?$pair@$$CBEPAVGameAction@ReplayTool@@@std@@@4@$0A@@std@@@std@@QAE?AV?$_Tree_iterator@V?$_Tree_val@V?$_Tmap_traits@EPAVGameAction@ReplayTool@@U?$less@E@std@@V?$allocator@U?$pair@$$CBEPAVGameAction@ReplayTool@@@std@@@4@$0A@@std@@@std@@@2@ABE@Z ; std::_Tree<std::_Tmap_traits<unsigned char,ReplayTool::GameAction *,std::less<unsigned char>,std::allocator<std::pair<unsigned char const ,ReplayTool::GameAction *> >,0> >::find
  0009f	89 85 a8 fe ff
	ff		 mov	 DWORD PTR tv151[ebp], eax
  000a5	8b 95 a8 fe ff
	ff		 mov	 edx, DWORD PTR tv151[ebp]
  000ab	89 95 a4 fe ff
	ff		 mov	 DWORD PTR tv149[ebp], edx
  000b1	c6 45 fc 01	 mov	 BYTE PTR __$EHRec$[ebp+8], 1
  000b5	8b 8d a4 fe ff
	ff		 mov	 ecx, DWORD PTR tv149[ebp]
  000bb	e8 00 00 00 00	 call	 ??8?$_Tree_const_iterator@V?$_Tree_val@V?$_Tmap_traits@EPAVGameAction@ReplayTool@@U?$less@E@std@@V?$allocator@U?$pair@$$CBEPAVGameAction@ReplayTool@@@std@@@4@$0A@@std@@@std@@@std@@QBE_NABV01@@Z ; std::_Tree_const_iterator<std::_Tree_val<std::_Tmap_traits<unsigned char,ReplayTool::GameAction *,std::less<unsigned char>,std::allocator<std::pair<unsigned char const ,ReplayTool::GameAction *> >,0> > >::operator==
  000c0	88 85 bb fe ff
	ff		 mov	 BYTE PTR $T172958[ebp], al
  000c6	c6 45 fc 00	 mov	 BYTE PTR __$EHRec$[ebp+8], 0
  000ca	8d 8d d0 fe ff
	ff		 lea	 ecx, DWORD PTR $T172960[ebp]
  000d0	e8 00 00 00 00	 call	 ??1?$_Tree_iterator@V?$_Tree_val@V?$_Tmap_traits@EPAVGameAction@ReplayTool@@U?$less@E@std@@V?$allocator@U?$pair@$$CBEPAVGameAction@ReplayTool@@@std@@@4@$0A@@std@@@std@@@std@@QAE@XZ
  000d5	c7 45 fc ff ff
	ff ff		 mov	 DWORD PTR __$EHRec$[ebp+8], -1
  000dc	8d 8d e4 fe ff
	ff		 lea	 ecx, DWORD PTR $T172961[ebp]
  000e2	e8 00 00 00 00	 call	 ??1?$_Tree_iterator@V?$_Tree_val@V?$_Tmap_traits@EPAVGameAction@ReplayTool@@U?$less@E@std@@V?$allocator@U?$pair@$$CBEPAVGameAction@ReplayTool@@@std@@@4@$0A@@std@@@std@@@std@@QAE@XZ
  000e7	0f b6 85 bb fe
	ff ff		 movzx	 eax, BYTE PTR $T172958[ebp]
  000ee	85 c0		 test	 eax, eax
  000f0	74 43		 je	 SHORT $LN3@add

; 14   :       actions.insert(make_pair(prototype->getAction(), prototype));

  000f2	8b 4d 08	 mov	 ecx, DWORD PTR _prototype$[ebp]
  000f5	e8 00 00 00 00	 call	 ?getAction@GameAction@ReplayTool@@QBEEXZ ; ReplayTool::GameAction::getAction
  000fa	88 85 fb fe ff
	ff		 mov	 BYTE PTR $T172962[ebp], al
  00100	8d 45 08	 lea	 eax, DWORD PTR _prototype$[ebp]
  00103	50		 push	 eax
  00104	8d 8d fb fe ff
	ff		 lea	 ecx, DWORD PTR $T172962[ebp]
  0010a	51		 push	 ecx
  0010b	8d 95 04 ff ff
	ff		 lea	 edx, DWORD PTR $T172963[ebp]
  00111	52		 push	 edx
  00112	e8 00 00 00 00	 call	 ??$make_pair@EAAPAVGameAction@ReplayTool@@@std@@YA?AU?$pair@EPAVGameAction@ReplayTool@@@0@$$QAEAAPAVGameAction@ReplayTool@@@Z ; std::make_pair<unsigned char,ReplayTool::GameAction * &>
  00117	83 c4 0c	 add	 esp, 12			; 0000000cH
  0011a	50		 push	 eax
  0011b	8d 85 14 ff ff
	ff		 lea	 eax, DWORD PTR $T172964[ebp]
  00121	50		 push	 eax
  00122	8b 4d ec	 mov	 ecx, DWORD PTR _this$[ebp]
  00125	e8 00 00 00 00	 call	 ??$insert@U?$pair@EPAVGameAction@ReplayTool@@@std@@@?$_Tree@V?$_Tmap_traits@EPAVGameAction@ReplayTool@@U?$less@E@std@@V?$allocator@U?$pair@$$CBEPAVGameAction@ReplayTool@@@std@@@4@$0A@@std@@@std@@QAE?AU?$pair@V?$_Tree_iterator@V?$_Tree_val@V?$_Tmap_traits@EPAVGameAction@ReplayTool@@U?$less@E@std@@V?$allocator@U?$pair@$$CBEPAVGameAction@ReplayTool@@@std@@@4@$0A@@std@@@std@@@std@@_N@1@$$QAU?$pair@EPAVGameAction@ReplayTool@@@1@@Z ; std::_Tree<std::_Tmap_traits<unsigned char,ReplayTool::GameAction *,std::less<unsigned char>,std::allocator<std::pair<unsigned char const ,ReplayTool::GameAction *> >,0> >::insert<std::pair<unsigned char,ReplayTool::GameAction *> >
  0012a	8d 8d 14 ff ff
	ff		 lea	 ecx, DWORD PTR $T172964[ebp]
  00130	e8 00 00 00 00	 call	 ??1?$pair@V?$_Tree_iterator@V?$_Tree_val@V?$_Tmap_traits@EPAVGameAction@ReplayTool@@U?$less@E@std@@V?$allocator@U?$pair@$$CBEPAVGameAction@ReplayTool@@@std@@@4@$0A@@std@@@std@@@std@@_N@std@@QAE@XZ
$LN3@add:

; 15   :   }
; 16   : }

  00135	8b 4d f4	 mov	 ecx, DWORD PTR __$EHRec$[ebp]
  00138	64 89 0d 00 00
	00 00		 mov	 DWORD PTR fs:0, ecx
  0013f	59		 pop	 ecx
  00140	5f		 pop	 edi
  00141	5e		 pop	 esi
  00142	5b		 pop	 ebx
  00143	81 c4 5c 01 00
	00		 add	 esp, 348		; 0000015cH
  00149	3b ec		 cmp	 ebp, esp
  0014b	e8 00 00 00 00	 call	 __RTC_CheckEsp
  00150	8b e5		 mov	 esp, ebp
  00152	5d		 pop	 ebp
  00153	c2 04 00	 ret	 4
_TEXT	ENDS
;	COMDAT text$x
text$x	SEGMENT
__unwindfunclet$?add@Factory@GameAction@ReplayTool@@QAEXPAV23@@Z$0:
  00000	8d 8d e4 fe ff
	ff		 lea	 ecx, DWORD PTR $T172961[ebp]
  00006	e9 00 00 00 00	 jmp	 ??1?$_Tree_iterator@V?$_Tree_val@V?$_Tmap_traits@EPAVGameAction@ReplayTool@@U?$less@E@std@@V?$allocator@U?$pair@$$CBEPAVGameAction@ReplayTool@@@std@@@4@$0A@@std@@@std@@@std@@QAE@XZ
__unwindfunclet$?add@Factory@GameAction@ReplayTool@@QAEXPAV23@@Z$1:
  0000b	8d 8d d0 fe ff
	ff		 lea	 ecx, DWORD PTR $T172960[ebp]
  00011	e9 00 00 00 00	 jmp	 ??1?$_Tree_iterator@V?$_Tree_val@V?$_Tmap_traits@EPAVGameAction@ReplayTool@@U?$less@E@std@@V?$allocator@U?$pair@$$CBEPAVGameAction@ReplayTool@@@std@@@4@$0A@@std@@@std@@@std@@QAE@XZ
__ehhandler$?add@Factory@GameAction@ReplayTool@@QAEXPAV23@@Z:
  00016	8b 54 24 08	 mov	 edx, DWORD PTR [esp+8]
  0001a	8d 42 0c	 lea	 eax, DWORD PTR [edx+12]
  0001d	8b 8a a0 fe ff
	ff		 mov	 ecx, DWORD PTR [edx-352]
  00023	33 c8		 xor	 ecx, eax
  00025	e8 00 00 00 00	 call	 @__security_check_cookie@4
  0002a	b8 00 00 00 00	 mov	 eax, OFFSET __ehfuncinfo$?add@Factory@GameAction@ReplayTool@@QAEXPAV23@@Z
  0002f	e9 00 00 00 00	 jmp	 ___CxxFrameHandler3
text$x	ENDS
?add@Factory@GameAction@ReplayTool@@QAEXPAV23@@Z ENDP	; ReplayTool::GameAction::Factory::add
; Function compile flags: /Odtp /RTCsu /ZI
; File c:\fili\development\gp\rtsairesearch\bwapi\bwapi\libreplaytool\gameaction.h
;	COMDAT ?getAction@GameAction@ReplayTool@@QBEEXZ
_TEXT	SEGMENT
_this$ = -8						; size = 4
?getAction@GameAction@ReplayTool@@QBEEXZ PROC		; ReplayTool::GameAction::getAction, COMDAT
; _this$ = ecx

; 33   :   ActionID getAction() const { return action; }

  00000	55		 push	 ebp
  00001	8b ec		 mov	 ebp, esp
  00003	81 ec cc 00 00
	00		 sub	 esp, 204		; 000000ccH
  00009	53		 push	 ebx
  0000a	56		 push	 esi
  0000b	57		 push	 edi
  0000c	51		 push	 ecx
  0000d	8d bd 34 ff ff
	ff		 lea	 edi, DWORD PTR [ebp-204]
  00013	b9 33 00 00 00	 mov	 ecx, 51			; 00000033H
  00018	b8 cc cc cc cc	 mov	 eax, -858993460		; ccccccccH
  0001d	f3 ab		 rep stosd
  0001f	59		 pop	 ecx
  00020	89 4d f8	 mov	 DWORD PTR _this$[ebp], ecx
  00023	8b 45 f8	 mov	 eax, DWORD PTR _this$[ebp]
  00026	8a 40 05	 mov	 al, BYTE PTR [eax+5]
  00029	5f		 pop	 edi
  0002a	5e		 pop	 esi
  0002b	5b		 pop	 ebx
  0002c	8b e5		 mov	 esp, ebp
  0002e	5d		 pop	 ebp
  0002f	c3		 ret	 0
?getAction@GameAction@ReplayTool@@QBEEXZ ENDP		; ReplayTool::GameAction::getAction
_TEXT	ENDS
PUBLIC	??1?$_Tree_const_iterator@V?$_Tree_val@V?$_Tmap_traits@EPAVGameAction@ReplayTool@@U?$less@E@std@@V?$allocator@U?$pair@$$CBEPAVGameAction@ReplayTool@@@std@@@4@$0A@@std@@@std@@@std@@QAE@XZ ; std::_Tree_const_iterator<std::_Tree_val<std::_Tmap_traits<unsigned char,ReplayTool::GameAction *,std::less<unsigned char>,std::allocator<std::pair<unsigned char const ,ReplayTool::GameAction *> >,0> > >::~_Tree_const_iterator<std::_Tree_val<std::_Tmap_traits<unsigned char,ReplayTool::GameAction *,std::less<unsigned char>,std::allocator<std::pair<unsigned char const ,ReplayTool::GameAction *> >,0> > >
; Function compile flags: /Odtp /RTCsu /ZI
;	COMDAT ??1?$_Tree_iterator@V?$_Tree_val@V?$_Tmap_traits@EPAVGameAction@ReplayTool@@U?$less@E@std@@V?$allocator@U?$pair@$$CBEPAVGameAction@ReplayTool@@@std@@@4@$0A@@std@@@std@@@std@@QAE@XZ
_TEXT	SEGMENT
_this$ = -8						; size = 4
??1?$_Tree_iterator@V?$_Tree_val@V?$_Tmap_traits@EPAVGameAction@ReplayTool@@U?$less@E@std@@V?$allocator@U?$pair@$$CBEPAVGameAction@ReplayTool@@@std@@@4@$0A@@std@@@std@@@std@@QAE@XZ PROC ; std::_Tree_iterator<std::_Tree_val<std::_Tmap_traits<unsigned char,ReplayTool::GameAction *,std::less<unsigned char>,std::allocator<std::pair<unsigned char const ,ReplayTool::GameAction *> >,0> > >::~_Tree_iterator<std::_Tree_val<std::_Tmap_traits<unsigned char,ReplayTool::GameAction *,std::less<unsigned char>,std::allocator<std::pair<unsigned char const ,ReplayTool::GameAction *> >,0> > >, COMDAT
; _this$ = ecx
  00000	55		 push	 ebp
  00001	8b ec		 mov	 ebp, esp
  00003	81 ec cc 00 00
	00		 sub	 esp, 204		; 000000ccH
  00009	53		 push	 ebx
  0000a	56		 push	 esi
  0000b	57		 push	 edi
  0000c	51		 push	 ecx
  0000d	8d bd 34 ff ff
	ff		 lea	 edi, DWORD PTR [ebp-204]
  00013	b9 33 00 00 00	 mov	 ecx, 51			; 00000033H
  00018	b8 cc cc cc cc	 mov	 eax, -858993460		; ccccccccH
  0001d	f3 ab		 rep stosd
  0001f	59		 pop	 ecx
  00020	89 4d f8	 mov	 DWORD PTR _this$[ebp], ecx
  00023	8b 4d f8	 mov	 ecx, DWORD PTR _this$[ebp]
  00026	e8 00 00 00 00	 call	 ??1?$_Tree_const_iterator@V?$_Tree_val@V?$_Tmap_traits@EPAVGameAction@ReplayTool@@U?$less@E@std@@V?$allocator@U?$pair@$$CBEPAVGameAction@ReplayTool@@@std@@@4@$0A@@std@@@std@@@std@@QAE@XZ
  0002b	5f		 pop	 edi
  0002c	5e		 pop	 esi
  0002d	5b		 pop	 ebx
  0002e	81 c4 cc 00 00
	00		 add	 esp, 204		; 000000ccH
  00034	3b ec		 cmp	 ebp, esp
  00036	e8 00 00 00 00	 call	 __RTC_CheckEsp
  0003b	8b e5		 mov	 esp, ebp
  0003d	5d		 pop	 ebp
  0003e	c3		 ret	 0
??1?$_Tree_iterator@V?$_Tree_val@V?$_Tmap_traits@EPAVGameAction@ReplayTool@@U?$less@E@std@@V?$allocator@U?$pair@$$CBEPAVGameAction@ReplayTool@@@std@@@4@$0A@@std@@@std@@@std@@QAE@XZ ENDP ; std::_Tree_iterator<std::_Tree_val<std::_Tmap_traits<unsigned char,ReplayTool::GameAction *,std::less<unsigned char>,std::allocator<std::pair<unsigned char const ,ReplayTool::GameAction *> >,0> > >::~_Tree_iterator<std::_Tree_val<std::_Tmap_traits<unsigned char,ReplayTool::GameAction *,std::less<unsigned char>,std::allocator<std::pair<unsigned char const ,ReplayTool::GameAction *> >,0> > >
_TEXT	ENDS
PUBLIC	??1?$_Pair_base@V?$_Tree_iterator@V?$_Tree_val@V?$_Tmap_traits@EPAVGameAction@ReplayTool@@U?$less@E@std@@V?$allocator@U?$pair@$$CBEPAVGameAction@ReplayTool@@@std@@@4@$0A@@std@@@std@@@std@@_N@std@@QAE@XZ ; std::_Pair_base<std::_Tree_iterator<std::_Tree_val<std::_Tmap_traits<unsigned char,ReplayTool::GameAction *,std::less<unsigned char>,std::allocator<std::pair<unsigned char const ,ReplayTool::GameAction *> >,0> > >,bool>::~_Pair_base<std::_Tree_iterator<std::_Tree_val<std::_Tmap_traits<unsigned char,ReplayTool::GameAction *,std::less<unsigned char>,std::allocator<std::pair<unsigned char const ,ReplayTool::GameAction *> >,0> > >,bool>
; Function compile flags: /Odtp /RTCsu /ZI
;	COMDAT ??1?$pair@V?$_Tree_iterator@V?$_Tree_val@V?$_Tmap_traits@EPAVGameAction@ReplayTool@@U?$less@E@std@@V?$allocator@U?$pair@$$CBEPAVGameAction@ReplayTool@@@std@@@4@$0A@@std@@@std@@@std@@_N@std@@QAE@XZ
_TEXT	SEGMENT
_this$ = -8						; size = 4
??1?$pair@V?$_Tree_iterator@V?$_Tree_val@V?$_Tmap_traits@EPAVGameAction@ReplayTool@@U?$less@E@std@@V?$allocator@U?$pair@$$CBEPAVGameAction@ReplayTool@@@std@@@4@$0A@@std@@@std@@@std@@_N@std@@QAE@XZ PROC ; std::pair<std::_Tree_iterator<std::_Tree_val<std::_Tmap_traits<unsigned char,ReplayTool::GameAction *,std::less<unsigned char>,std::allocator<std::pair<unsigned char const ,ReplayTool::GameAction *> >,0> > >,bool>::~pair<std::_Tree_iterator<std::_Tree_val<std::_Tmap_traits<unsigned char,ReplayTool::GameAction *,std::less<unsigned char>,std::allocator<std::pair<unsigned char const ,ReplayTool::GameAction *> >,0> > >,bool>, COMDAT
; _this$ = ecx
  00000	55		 push	 ebp
  00001	8b ec		 mov	 ebp, esp
  00003	81 ec cc 00 00
	00		 sub	 esp, 204		; 000000ccH
  00009	53		 push	 ebx
  0000a	56		 push	 esi
  0000b	57		 push	 edi
  0000c	51		 push	 ecx
  0000d	8d bd 34 ff ff
	ff		 lea	 edi, DWORD PTR [ebp-204]
  00013	b9 33 00 00 00	 mov	 ecx, 51			; 00000033H
  00018	b8 cc cc cc cc	 mov	 eax, -858993460		; ccccccccH
  0001d	f3 ab		 rep stosd
  0001f	59		 pop	 ecx
  00020	89 4d f8	 mov	 DWORD PTR _this$[ebp], ecx
  00023	8b 4d f8	 mov	 ecx, DWORD PTR _this$[ebp]
  00026	e8 00 00 00 00	 call	 ??1?$_Pair_base@V?$_Tree_iterator@V?$_Tree_val@V?$_Tmap_traits@EPAVGameAction@ReplayTool@@U?$less@E@std@@V?$allocator@U?$pair@$$CBEPAVGameAction@ReplayTool@@@std@@@4@$0A@@std@@@std@@@std@@_N@std@@QAE@XZ
  0002b	5f		 pop	 edi
  0002c	5e		 pop	 esi
  0002d	5b		 pop	 ebx
  0002e	81 c4 cc 00 00
	00		 add	 esp, 204		; 000000ccH
  00034	3b ec		 cmp	 ebp, esp
  00036	e8 00 00 00 00	 call	 __RTC_CheckEsp
  0003b	8b e5		 mov	 esp, ebp
  0003d	5d		 pop	 ebp
  0003e	c3		 ret	 0
??1?$pair@V?$_Tree_iterator@V?$_Tree_val@V?$_Tmap_traits@EPAVGameAction@ReplayTool@@U?$less@E@std@@V?$allocator@U?$pair@$$CBEPAVGameAction@ReplayTool@@@std@@@4@$0A@@std@@@std@@@std@@_N@std@@QAE@XZ ENDP ; std::pair<std::_Tree_iterator<std::_Tree_val<std::_Tmap_traits<unsigned char,ReplayTool::GameAction *,std::less<unsigned char>,std::allocator<std::pair<unsigned char const ,ReplayTool::GameAction *> >,0> > >,bool>::~pair<std::_Tree_iterator<std::_Tree_val<std::_Tmap_traits<unsigned char,ReplayTool::GameAction *,std::less<unsigned char>,std::allocator<std::pair<unsigned char const ,ReplayTool::GameAction *> >,0> > >,bool>
_TEXT	ENDS
PUBLIC	??1?$_Tree_unchecked_const_iterator@V?$_Tree_val@V?$_Tmap_traits@EPAVGameAction@ReplayTool@@U?$less@E@std@@V?$allocator@U?$pair@$$CBEPAVGameAction@ReplayTool@@@std@@@4@$0A@@std@@@std@@U_Iterator_base12@2@@std@@QAE@XZ ; std::_Tree_unchecked_const_iterator<std::_Tree_val<std::_Tmap_traits<unsigned char,ReplayTool::GameAction *,std::less<unsigned char>,std::allocator<std::pair<unsigned char const ,ReplayTool::GameAction *> >,0> >,std::_Iterator_base12>::~_Tree_unchecked_const_iterator<std::_Tree_val<std::_Tmap_traits<unsigned char,ReplayTool::GameAction *,std::less<unsigned char>,std::allocator<std::pair<unsigned char const ,ReplayTool::GameAction *> >,0> >,std::_Iterator_base12>
; Function compile flags: /Odtp /RTCsu /ZI
;	COMDAT ??1?$_Tree_const_iterator@V?$_Tree_val@V?$_Tmap_traits@EPAVGameAction@ReplayTool@@U?$less@E@std@@V?$allocator@U?$pair@$$CBEPAVGameAction@ReplayTool@@@std@@@4@$0A@@std@@@std@@@std@@QAE@XZ
_TEXT	SEGMENT
_this$ = -8						; size = 4
??1?$_Tree_const_iterator@V?$_Tree_val@V?$_Tmap_traits@EPAVGameAction@ReplayTool@@U?$less@E@std@@V?$allocator@U?$pair@$$CBEPAVGameAction@ReplayTool@@@std@@@4@$0A@@std@@@std@@@std@@QAE@XZ PROC ; std::_Tree_const_iterator<std::_Tree_val<std::_Tmap_traits<unsigned char,ReplayTool::GameAction *,std::less<unsigned char>,std::allocator<std::pair<unsigned char const ,ReplayTool::GameAction *> >,0> > >::~_Tree_const_iterator<std::_Tree_val<std::_Tmap_traits<unsigned char,ReplayTool::GameAction *,std::less<unsigned char>,std::allocator<std::pair<unsigned char const ,ReplayTool::GameAction *> >,0> > >, COMDAT
; _this$ = ecx
  00000	55		 push	 ebp
  00001	8b ec		 mov	 ebp, esp
  00003	81 ec cc 00 00
	00		 sub	 esp, 204		; 000000ccH
  00009	53		 push	 ebx
  0000a	56		 push	 esi
  0000b	57		 push	 edi
  0000c	51		 push	 ecx
  0000d	8d bd 34 ff ff
	ff		 lea	 edi, DWORD PTR [ebp-204]
  00013	b9 33 00 00 00	 mov	 ecx, 51			; 00000033H
  00018	b8 cc cc cc cc	 mov	 eax, -858993460		; ccccccccH
  0001d	f3 ab		 rep stosd
  0001f	59		 pop	 ecx
  00020	89 4d f8	 mov	 DWORD PTR _this$[ebp], ecx
  00023	8b 4d f8	 mov	 ecx, DWORD PTR _this$[ebp]
  00026	e8 00 00 00 00	 call	 ??1?$_Tree_unchecked_const_iterator@V?$_Tree_val@V?$_Tmap_traits@EPAVGameAction@ReplayTool@@U?$less@E@std@@V?$allocator@U?$pair@$$CBEPAVGameAction@ReplayTool@@@std@@@4@$0A@@std@@@std@@U_Iterator_base12@2@@std@@QAE@XZ
  0002b	5f		 pop	 edi
  0002c	5e		 pop	 esi
  0002d	5b		 pop	 ebx
  0002e	81 c4 cc 00 00
	00		 add	 esp, 204		; 000000ccH
  00034	3b ec		 cmp	 ebp, esp
  00036	e8 00 00 00 00	 call	 __RTC_CheckEsp
  0003b	8b e5		 mov	 esp, ebp
  0003d	5d		 pop	 ebp
  0003e	c3		 ret	 0
??1?$_Tree_const_iterator@V?$_Tree_val@V?$_Tmap_traits@EPAVGameAction@ReplayTool@@U?$less@E@std@@V?$allocator@U?$pair@$$CBEPAVGameAction@ReplayTool@@@std@@@4@$0A@@std@@@std@@@std@@QAE@XZ ENDP ; std::_Tree_const_iterator<std::_Tree_val<std::_Tmap_traits<unsigned char,ReplayTool::GameAction *,std::less<unsigned char>,std::allocator<std::pair<unsigned char const ,ReplayTool::GameAction *> >,0> > >::~_Tree_const_iterator<std::_Tree_val<std::_Tmap_traits<unsigned char,ReplayTool::GameAction *,std::less<unsigned char>,std::allocator<std::pair<unsigned char const ,ReplayTool::GameAction *> >,0> > >
; Function compile flags: /Odtp /RTCsu /ZI
_TEXT	ENDS
;	COMDAT ??1?$_Pair_base@V?$_Tree_iterator@V?$_Tree_val@V?$_Tmap_traits@EPAVGameAction@ReplayTool@@U?$less@E@std@@V?$allocator@U?$pair@$$CBEPAVGameAction@ReplayTool@@@std@@@4@$0A@@std@@@std@@@std@@_N@std@@QAE@XZ
_TEXT	SEGMENT
_this$ = -8						; size = 4
??1?$_Pair_base@V?$_Tree_iterator@V?$_Tree_val@V?$_Tmap_traits@EPAVGameAction@ReplayTool@@U?$less@E@std@@V?$allocator@U?$pair@$$CBEPAVGameAction@ReplayTool@@@std@@@4@$0A@@std@@@std@@@std@@_N@std@@QAE@XZ PROC ; std::_Pair_base<std::_Tree_iterator<std::_Tree_val<std::_Tmap_traits<unsigned char,ReplayTool::GameAction *,std::less<unsigned char>,std::allocator<std::pair<unsigned char const ,ReplayTool::GameAction *> >,0> > >,bool>::~_Pair_base<std::_Tree_iterator<std::_Tree_val<std::_Tmap_traits<unsigned char,ReplayTool::GameAction *,std::less<unsigned char>,std::allocator<std::pair<unsigned char const ,ReplayTool::GameAction *> >,0> > >,bool>, COMDAT
; _this$ = ecx
  00000	55		 push	 ebp
  00001	8b ec		 mov	 ebp, esp
  00003	81 ec cc 00 00
	00		 sub	 esp, 204		; 000000ccH
  00009	53		 push	 ebx
  0000a	56		 push	 esi
  0000b	57		 push	 edi
  0000c	51		 push	 ecx
  0000d	8d bd 34 ff ff
	ff		 lea	 edi, DWORD PTR [ebp-204]
  00013	b9 33 00 00 00	 mov	 ecx, 51			; 00000033H
  00018	b8 cc cc cc cc	 mov	 eax, -858993460		; ccccccccH
  0001d	f3 ab		 rep stosd
  0001f	59		 pop	 ecx
  00020	89 4d f8	 mov	 DWORD PTR _this$[ebp], ecx
  00023	8b 4d f8	 mov	 ecx, DWORD PTR _this$[ebp]
  00026	e8 00 00 00 00	 call	 ??1?$_Tree_iterator@V?$_Tree_val@V?$_Tmap_traits@EPAVGameAction@ReplayTool@@U?$less@E@std@@V?$allocator@U?$pair@$$CBEPAVGameAction@ReplayTool@@@std@@@4@$0A@@std@@@std@@@std@@QAE@XZ
  0002b	5f		 pop	 edi
  0002c	5e		 pop	 esi
  0002d	5b		 pop	 ebx
  0002e	81 c4 cc 00 00
	00		 add	 esp, 204		; 000000ccH
  00034	3b ec		 cmp	 ebp, esp
  00036	e8 00 00 00 00	 call	 __RTC_CheckEsp
  0003b	8b e5		 mov	 esp, ebp
  0003d	5d		 pop	 ebp
  0003e	c3		 ret	 0
??1?$_Pair_base@V?$_Tree_iterator@V?$_Tree_val@V?$_Tmap_traits@EPAVGameAction@ReplayTool@@U?$less@E@std@@V?$allocator@U?$pair@$$CBEPAVGameAction@ReplayTool@@@std@@@4@$0A@@std@@@std@@@std@@_N@std@@QAE@XZ ENDP ; std::_Pair_base<std::_Tree_iterator<std::_Tree_val<std::_Tmap_traits<unsigned char,ReplayTool::GameAction *,std::less<unsigned char>,std::allocator<std::pair<unsigned char const ,ReplayTool::GameAction *> >,0> > >,bool>::~_Pair_base<std::_Tree_iterator<std::_Tree_val<std::_Tmap_traits<unsigned char,ReplayTool::GameAction *,std::less<unsigned char>,std::allocator<std::pair<unsigned char const ,ReplayTool::GameAction *> >,0> > >,bool>
_TEXT	ENDS
PUBLIC	??1?$_Iterator012@Ubidirectional_iterator_tag@std@@U?$pair@$$CBEPAVGameAction@ReplayTool@@@2@HPBU32@ABU32@U_Iterator_base12@2@@std@@QAE@XZ ; std::_Iterator012<std::bidirectional_iterator_tag,std::pair<unsigned char const ,ReplayTool::GameAction *>,int,std::pair<unsigned char const ,ReplayTool::GameAction *> const *,std::pair<unsigned char const ,ReplayTool::GameAction *> const &,std::_Iterator_base12>::~_Iterator012<std::bidirectional_iterator_tag,std::pair<unsigned char const ,ReplayTool::GameAction *>,int,std::pair<unsigned char const ,ReplayTool::GameAction *> const *,std::pair<unsigned char const ,ReplayTool::GameAction *> const &,std::_Iterator_base12>
; Function compile flags: /Odtp /RTCsu /ZI
;	COMDAT ??1?$_Tree_unchecked_const_iterator@V?$_Tree_val@V?$_Tmap_traits@EPAVGameAction@ReplayTool@@U?$less@E@std@@V?$allocator@U?$pair@$$CBEPAVGameAction@ReplayTool@@@std@@@4@$0A@@std@@@std@@U_Iterator_base12@2@@std@@QAE@XZ
_TEXT	SEGMENT
_this$ = -8						; size = 4
??1?$_Tree_unchecked_const_iterator@V?$_Tree_val@V?$_Tmap_traits@EPAVGameAction@ReplayTool@@U?$less@E@std@@V?$allocator@U?$pair@$$CBEPAVGameAction@ReplayTool@@@std@@@4@$0A@@std@@@std@@U_Iterator_base12@2@@std@@QAE@XZ PROC ; std::_Tree_unchecked_const_iterator<std::_Tree_val<std::_Tmap_traits<unsigned char,ReplayTool::GameAction *,std::less<unsigned char>,std::allocator<std::pair<unsigned char const ,ReplayTool::GameAction *> >,0> >,std::_Iterator_base12>::~_Tree_unchecked_const_iterator<std::_Tree_val<std::_Tmap_traits<unsigned char,ReplayTool::GameAction *,std::less<unsigned char>,std::allocator<std::pair<unsigned char const ,ReplayTool::GameAction *> >,0> >,std::_Iterator_base12>, COMDAT
; _this$ = ecx
  00000	55		 push	 ebp
  00001	8b ec		 mov	 ebp, esp
  00003	81 ec cc 00 00
	00		 sub	 esp, 204		; 000000ccH
  00009	53		 push	 ebx
  0000a	56		 push	 esi
  0000b	57		 push	 edi
  0000c	51		 push	 ecx
  0000d	8d bd 34 ff ff
	ff		 lea	 edi, DWORD PTR [ebp-204]
  00013	b9 33 00 00 00	 mov	 ecx, 51			; 00000033H
  00018	b8 cc cc cc cc	 mov	 eax, -858993460		; ccccccccH
  0001d	f3 ab		 rep stosd
  0001f	59		 pop	 ecx
  00020	89 4d f8	 mov	 DWORD PTR _this$[ebp], ecx
  00023	8b 4d f8	 mov	 ecx, DWORD PTR _this$[ebp]
  00026	e8 00 00 00 00	 call	 ??1?$_Iterator012@Ubidirectional_iterator_tag@std@@U?$pair@$$CBEPAVGameAction@ReplayTool@@@2@HPBU32@ABU32@U_Iterator_base12@2@@std@@QAE@XZ
  0002b	5f		 pop	 edi
  0002c	5e		 pop	 esi
  0002d	5b		 pop	 ebx
  0002e	81 c4 cc 00 00
	00		 add	 esp, 204		; 000000ccH
  00034	3b ec		 cmp	 ebp, esp
  00036	e8 00 00 00 00	 call	 __RTC_CheckEsp
  0003b	8b e5		 mov	 esp, ebp
  0003d	5d		 pop	 ebp
  0003e	c3		 ret	 0
??1?$_Tree_unchecked_const_iterator@V?$_Tree_val@V?$_Tmap_traits@EPAVGameAction@ReplayTool@@U?$less@E@std@@V?$allocator@U?$pair@$$CBEPAVGameAction@ReplayTool@@@std@@@4@$0A@@std@@@std@@U_Iterator_base12@2@@std@@QAE@XZ ENDP ; std::_Tree_unchecked_const_iterator<std::_Tree_val<std::_Tmap_traits<unsigned char,ReplayTool::GameAction *,std::less<unsigned char>,std::allocator<std::pair<unsigned char const ,ReplayTool::GameAction *> >,0> >,std::_Iterator_base12>::~_Tree_unchecked_const_iterator<std::_Tree_val<std::_Tmap_traits<unsigned char,ReplayTool::GameAction *,std::less<unsigned char>,std::allocator<std::pair<unsigned char const ,ReplayTool::GameAction *> >,0> >,std::_Iterator_base12>
_TEXT	ENDS
PUBLIC	??1_Iterator_base12@std@@QAE@XZ			; std::_Iterator_base12::~_Iterator_base12
; Function compile flags: /Odtp /RTCsu /ZI
;	COMDAT ??1?$_Iterator012@Ubidirectional_iterator_tag@std@@U?$pair@$$CBEPAVGameAction@ReplayTool@@@2@HPBU32@ABU32@U_Iterator_base12@2@@std@@QAE@XZ
_TEXT	SEGMENT
_this$ = -8						; size = 4
??1?$_Iterator012@Ubidirectional_iterator_tag@std@@U?$pair@$$CBEPAVGameAction@ReplayTool@@@2@HPBU32@ABU32@U_Iterator_base12@2@@std@@QAE@XZ PROC ; std::_Iterator012<std::bidirectional_iterator_tag,std::pair<unsigned char const ,ReplayTool::GameAction *>,int,std::pair<unsigned char const ,ReplayTool::GameAction *> const *,std::pair<unsigned char const ,ReplayTool::GameAction *> const &,std::_Iterator_base12>::~_Iterator012<std::bidirectional_iterator_tag,std::pair<unsigned char const ,ReplayTool::GameAction *>,int,std::pair<unsigned char const ,ReplayTool::GameAction *> const *,std::pair<unsigned char const ,ReplayTool::GameAction *> const &,std::_Iterator_base12>, COMDAT
; _this$ = ecx
  00000	55		 push	 ebp
  00001	8b ec		 mov	 ebp, esp
  00003	81 ec cc 00 00
	00		 sub	 esp, 204		; 000000ccH
  00009	53		 push	 ebx
  0000a	56		 push	 esi
  0000b	57		 push	 edi
  0000c	51		 push	 ecx
  0000d	8d bd 34 ff ff
	ff		 lea	 edi, DWORD PTR [ebp-204]
  00013	b9 33 00 00 00	 mov	 ecx, 51			; 00000033H
  00018	b8 cc cc cc cc	 mov	 eax, -858993460		; ccccccccH
  0001d	f3 ab		 rep stosd
  0001f	59		 pop	 ecx
  00020	89 4d f8	 mov	 DWORD PTR _this$[ebp], ecx
  00023	8b 4d f8	 mov	 ecx, DWORD PTR _this$[ebp]
  00026	e8 00 00 00 00	 call	 ??1_Iterator_base12@std@@QAE@XZ ; std::_Iterator_base12::~_Iterator_base12
  0002b	5f		 pop	 edi
  0002c	5e		 pop	 esi
  0002d	5b		 pop	 ebx
  0002e	81 c4 cc 00 00
	00		 add	 esp, 204		; 000000ccH
  00034	3b ec		 cmp	 ebp, esp
  00036	e8 00 00 00 00	 call	 __RTC_CheckEsp
  0003b	8b e5		 mov	 esp, ebp
  0003d	5d		 pop	 ebp
  0003e	c3		 ret	 0
??1?$_Iterator012@Ubidirectional_iterator_tag@std@@U?$pair@$$CBEPAVGameAction@ReplayTool@@@2@HPBU32@ABU32@U_Iterator_base12@2@@std@@QAE@XZ ENDP ; std::_Iterator012<std::bidirectional_iterator_tag,std::pair<unsigned char const ,ReplayTool::GameAction *>,int,std::pair<unsigned char const ,ReplayTool::GameAction *> const *,std::pair<unsigned char const ,ReplayTool::GameAction *> const &,std::_Iterator_base12>::~_Iterator012<std::bidirectional_iterator_tag,std::pair<unsigned char const ,ReplayTool::GameAction *>,int,std::pair<unsigned char const ,ReplayTool::GameAction *> const *,std::pair<unsigned char const ,ReplayTool::GameAction *> const &,std::_Iterator_base12>
_TEXT	ENDS
PUBLIC	?_Orphan_me@_Iterator_base12@std@@QAEXXZ	; std::_Iterator_base12::_Orphan_me
EXTRN	__imp_??1_Lockit@std@@QAE@XZ:PROC
EXTRN	__imp_??0_Lockit@std@@QAE@H@Z:PROC
EXTRN	@_RTC_CheckStackVars@8:PROC
;	COMDAT xdata$x
; File c:\program files (x86)\microsoft visual studio 10.0\vc\include\xutility
xdata$x	SEGMENT
__unwindtable$??1_Iterator_base12@std@@QAE@XZ DD 0ffffffffH
	DD	FLAT:__unwindfunclet$??1_Iterator_base12@std@@QAE@XZ$0
__ehfuncinfo$??1_Iterator_base12@std@@QAE@XZ DD 019930522H
	DD	01H
	DD	FLAT:__unwindtable$??1_Iterator_base12@std@@QAE@XZ
	DD	2 DUP(00H)
	DD	2 DUP(00H)
	DD	00H
	DD	01H
; Function compile flags: /Odtp /RTCsu /ZI
xdata$x	ENDS
;	COMDAT ??1_Iterator_base12@std@@QAE@XZ
_TEXT	SEGMENT
__Lock$ = -32						; size = 4
_this$ = -20						; size = 4
__$EHRec$ = -12						; size = 12
??1_Iterator_base12@std@@QAE@XZ PROC			; std::_Iterator_base12::~_Iterator_base12, COMDAT
; _this$ = ecx

; 128  : 		{	// destroy the iterator

  00000	55		 push	 ebp
  00001	8b ec		 mov	 ebp, esp
  00003	6a ff		 push	 -1
  00005	68 00 00 00 00	 push	 __ehhandler$??1_Iterator_base12@std@@QAE@XZ
  0000a	64 a1 00 00 00
	00		 mov	 eax, DWORD PTR fs:0
  00010	50		 push	 eax
  00011	81 ec d8 00 00
	00		 sub	 esp, 216		; 000000d8H
  00017	53		 push	 ebx
  00018	56		 push	 esi
  00019	57		 push	 edi
  0001a	51		 push	 ecx
  0001b	8d bd 1c ff ff
	ff		 lea	 edi, DWORD PTR [ebp-228]
  00021	b9 36 00 00 00	 mov	 ecx, 54			; 00000036H
  00026	b8 cc cc cc cc	 mov	 eax, -858993460		; ccccccccH
  0002b	f3 ab		 rep stosd
  0002d	59		 pop	 ecx
  0002e	a1 00 00 00 00	 mov	 eax, DWORD PTR ___security_cookie
  00033	33 c5		 xor	 eax, ebp
  00035	50		 push	 eax
  00036	8d 45 f4	 lea	 eax, DWORD PTR __$EHRec$[ebp]
  00039	64 a3 00 00 00
	00		 mov	 DWORD PTR fs:0, eax
  0003f	89 4d ec	 mov	 DWORD PTR _this$[ebp], ecx

; 129  :  #if _ITERATOR_DEBUG_LEVEL == 2
; 130  : 		_Lockit _Lock(_LOCK_DEBUG);

  00042	8b f4		 mov	 esi, esp
  00044	6a 03		 push	 3
  00046	8d 4d e0	 lea	 ecx, DWORD PTR __Lock$[ebp]
  00049	ff 15 00 00 00
	00		 call	 DWORD PTR __imp_??0_Lockit@std@@QAE@H@Z
  0004f	3b f4		 cmp	 esi, esp
  00051	e8 00 00 00 00	 call	 __RTC_CheckEsp
  00056	c7 45 fc 00 00
	00 00		 mov	 DWORD PTR __$EHRec$[ebp+8], 0

; 131  : 		_Orphan_me();

  0005d	8b 4d ec	 mov	 ecx, DWORD PTR _this$[ebp]
  00060	e8 00 00 00 00	 call	 ?_Orphan_me@_Iterator_base12@std@@QAEXXZ ; std::_Iterator_base12::_Orphan_me

; 132  :  #endif /* _ITERATOR_DEBUG_LEVEL == 2 */
; 133  : 		}

  00065	c7 45 fc ff ff
	ff ff		 mov	 DWORD PTR __$EHRec$[ebp+8], -1
  0006c	8b f4		 mov	 esi, esp
  0006e	8d 4d e0	 lea	 ecx, DWORD PTR __Lock$[ebp]
  00071	ff 15 00 00 00
	00		 call	 DWORD PTR __imp_??1_Lockit@std@@QAE@XZ
  00077	3b f4		 cmp	 esi, esp
  00079	e8 00 00 00 00	 call	 __RTC_CheckEsp
  0007e	52		 push	 edx
  0007f	8b cd		 mov	 ecx, ebp
  00081	50		 push	 eax
  00082	8d 15 00 00 00
	00		 lea	 edx, DWORD PTR $LN7@Iterator_b
  00088	e8 00 00 00 00	 call	 @_RTC_CheckStackVars@8
  0008d	58		 pop	 eax
  0008e	5a		 pop	 edx
  0008f	8b 4d f4	 mov	 ecx, DWORD PTR __$EHRec$[ebp]
  00092	64 89 0d 00 00
	00 00		 mov	 DWORD PTR fs:0, ecx
  00099	59		 pop	 ecx
  0009a	5f		 pop	 edi
  0009b	5e		 pop	 esi
  0009c	5b		 pop	 ebx
  0009d	81 c4 e4 00 00
	00		 add	 esp, 228		; 000000e4H
  000a3	3b ec		 cmp	 ebp, esp
  000a5	e8 00 00 00 00	 call	 __RTC_CheckEsp
  000aa	8b e5		 mov	 esp, ebp
  000ac	5d		 pop	 ebp
  000ad	c3		 ret	 0
  000ae	8b ff		 npad	 2
$LN7@Iterator_b:
  000b0	01 00 00 00	 DD	 1
  000b4	00 00 00 00	 DD	 $LN6@Iterator_b
$LN6@Iterator_b:
  000b8	e0 ff ff ff	 DD	 -32			; ffffffe0H
  000bc	04 00 00 00	 DD	 4
  000c0	00 00 00 00	 DD	 $LN4@Iterator_b
$LN4@Iterator_b:
  000c4	5f		 DB	 95			; 0000005fH
  000c5	4c		 DB	 76			; 0000004cH
  000c6	6f		 DB	 111			; 0000006fH
  000c7	63		 DB	 99			; 00000063H
  000c8	6b		 DB	 107			; 0000006bH
  000c9	00		 DB	 0
_TEXT	ENDS
;	COMDAT text$x
text$x	SEGMENT
__unwindfunclet$??1_Iterator_base12@std@@QAE@XZ$0:
  00000	8b f4		 mov	 esi, esp
  00002	8d 4d e0	 lea	 ecx, DWORD PTR __Lock$[ebp]
  00005	ff 15 00 00 00
	00		 call	 DWORD PTR __imp_??1_Lockit@std@@QAE@XZ
  0000b	3b f4		 cmp	 esi, esp
  0000d	e9 00 00 00 00	 jmp	 __RTC_CheckEsp
__ehhandler$??1_Iterator_base12@std@@QAE@XZ:
  00012	8b 54 24 08	 mov	 edx, DWORD PTR [esp+8]
  00016	8d 42 0c	 lea	 eax, DWORD PTR [edx+12]
  00019	8b 8a 18 ff ff
	ff		 mov	 ecx, DWORD PTR [edx-232]
  0001f	33 c8		 xor	 ecx, eax
  00021	e8 00 00 00 00	 call	 @__security_check_cookie@4
  00026	b8 00 00 00 00	 mov	 eax, OFFSET __ehfuncinfo$??1_Iterator_base12@std@@QAE@XZ
  0002b	e9 00 00 00 00	 jmp	 ___CxxFrameHandler3
text$x	ENDS
??1_Iterator_base12@std@@QAE@XZ ENDP			; std::_Iterator_base12::~_Iterator_base12
PUBLIC	??_C@_1DC@POOIKBAO@?$AAI?$AAT?$AAE?$AAR?$AAA?$AAT?$AAO?$AAR?$AA?5?$AAL?$AAI?$AAS?$AAT?$AA?5?$AAC?$AAO?$AAR?$AAR?$AAU?$AAP?$AAT?$AAE?$AAD?$AA?$CB?$AA?$AA@ ; `string'
PUBLIC	??_C@_1JA@DBMECOPL@?$AAc?$AA?3?$AA?2?$AAp?$AAr?$AAo?$AAg?$AAr?$AAa?$AAm?$AA?5?$AAf?$AAi?$AAl?$AAe?$AAs?$AA?5?$AA?$CI?$AAx?$AA8?$AA6?$AA?$CJ?$AA?2?$AAm?$AAi?$AAc?$AAr?$AAo?$AAs?$AAo?$AAf?$AAt@ ; `string'
EXTRN	__imp_?_Debug_message@std@@YAXPB_W0I@Z:PROC
;	COMDAT ??_C@_1DC@POOIKBAO@?$AAI?$AAT?$AAE?$AAR?$AAA?$AAT?$AAO?$AAR?$AA?5?$AAL?$AAI?$AAS?$AAT?$AA?5?$AAC?$AAO?$AAR?$AAR?$AAU?$AAP?$AAT?$AAE?$AAD?$AA?$CB?$AA?$AA@
CONST	SEGMENT
??_C@_1DC@POOIKBAO@?$AAI?$AAT?$AAE?$AAR?$AAA?$AAT?$AAO?$AAR?$AA?5?$AAL?$AAI?$AAS?$AAT?$AA?5?$AAC?$AAO?$AAR?$AAR?$AAU?$AAP?$AAT?$AAE?$AAD?$AA?$CB?$AA?$AA@ DB 'I'
	DB	00H, 'T', 00H, 'E', 00H, 'R', 00H, 'A', 00H, 'T', 00H, 'O', 00H
	DB	'R', 00H, ' ', 00H, 'L', 00H, 'I', 00H, 'S', 00H, 'T', 00H, ' '
	DB	00H, 'C', 00H, 'O', 00H, 'R', 00H, 'R', 00H, 'U', 00H, 'P', 00H
	DB	'T', 00H, 'E', 00H, 'D', 00H, '!', 00H, 00H, 00H ; `string'
CONST	ENDS
;	COMDAT ??_C@_1JA@DBMECOPL@?$AAc?$AA?3?$AA?2?$AAp?$AAr?$AAo?$AAg?$AAr?$AAa?$AAm?$AA?5?$AAf?$AAi?$AAl?$AAe?$AAs?$AA?5?$AA?$CI?$AAx?$AA8?$AA6?$AA?$CJ?$AA?2?$AAm?$AAi?$AAc?$AAr?$AAo?$AAs?$AAo?$AAf?$AAt@
CONST	SEGMENT
??_C@_1JA@DBMECOPL@?$AAc?$AA?3?$AA?2?$AAp?$AAr?$AAo?$AAg?$AAr?$AAa?$AAm?$AA?5?$AAf?$AAi?$AAl?$AAe?$AAs?$AA?5?$AA?$CI?$AAx?$AA8?$AA6?$AA?$CJ?$AA?2?$AAm?$AAi?$AAc?$AAr?$AAo?$AAs?$AAo?$AAf?$AAt@ DB 'c'
	DB	00H, ':', 00H, '\', 00H, 'p', 00H, 'r', 00H, 'o', 00H, 'g', 00H
	DB	'r', 00H, 'a', 00H, 'm', 00H, ' ', 00H, 'f', 00H, 'i', 00H, 'l'
	DB	00H, 'e', 00H, 's', 00H, ' ', 00H, '(', 00H, 'x', 00H, '8', 00H
	DB	'6', 00H, ')', 00H, '\', 00H, 'm', 00H, 'i', 00H, 'c', 00H, 'r'
	DB	00H, 'o', 00H, 's', 00H, 'o', 00H, 'f', 00H, 't', 00H, ' ', 00H
	DB	'v', 00H, 'i', 00H, 's', 00H, 'u', 00H, 'a', 00H, 'l', 00H, ' '
	DB	00H, 's', 00H, 't', 00H, 'u', 00H, 'd', 00H, 'i', 00H, 'o', 00H
	DB	' ', 00H, '1', 00H, '0', 00H, '.', 00H, '0', 00H, '\', 00H, 'v'
	DB	00H, 'c', 00H, '\', 00H, 'i', 00H, 'n', 00H, 'c', 00H, 'l', 00H
	DB	'u', 00H, 'd', 00H, 'e', 00H, '\', 00H, 'x', 00H, 'u', 00H, 't'
	DB	00H, 'i', 00H, 'l', 00H, 'i', 00H, 't', 00H, 'y', 00H, 00H, 00H ; `string'
; Function compile flags: /Odtp /RTCsu /ZI
CONST	ENDS
;	COMDAT ?_Orphan_me@_Iterator_base12@std@@QAEXXZ
_TEXT	SEGMENT
__Pnext$11557 = -20					; size = 4
_this$ = -8						; size = 4
?_Orphan_me@_Iterator_base12@std@@QAEXXZ PROC		; std::_Iterator_base12::_Orphan_me, COMDAT
; _this$ = ecx

; 172  : 		{	// cut ties with parent

  00000	55		 push	 ebp
  00001	8b ec		 mov	 ebp, esp
  00003	81 ec d8 00 00
	00		 sub	 esp, 216		; 000000d8H
  00009	53		 push	 ebx
  0000a	56		 push	 esi
  0000b	57		 push	 edi
  0000c	51		 push	 ecx
  0000d	8d bd 28 ff ff
	ff		 lea	 edi, DWORD PTR [ebp-216]
  00013	b9 36 00 00 00	 mov	 ecx, 54			; 00000036H
  00018	b8 cc cc cc cc	 mov	 eax, -858993460		; ccccccccH
  0001d	f3 ab		 rep stosd
  0001f	59		 pop	 ecx
  00020	89 4d f8	 mov	 DWORD PTR _this$[ebp], ecx

; 173  :  #if _ITERATOR_DEBUG_LEVEL == 2
; 174  : 		if (_Myproxy != 0)

  00023	8b 45 f8	 mov	 eax, DWORD PTR _this$[ebp]
  00026	83 38 00	 cmp	 DWORD PTR [eax], 0
  00029	74 67		 je	 SHORT $LN5@Orphan_me

; 175  : 			{	// adopted, remove self from list
; 176  : 			_Iterator_base12 **_Pnext = &_Myproxy->_Myfirstiter;

  0002b	8b 45 f8	 mov	 eax, DWORD PTR _this$[ebp]
  0002e	8b 08		 mov	 ecx, DWORD PTR [eax]
  00030	83 c1 04	 add	 ecx, 4
  00033	89 4d ec	 mov	 DWORD PTR __Pnext$11557[ebp], ecx
$LN3@Orphan_me:

; 177  : 			while (*_Pnext != 0 && *_Pnext != this)

  00036	8b 45 ec	 mov	 eax, DWORD PTR __Pnext$11557[ebp]
  00039	83 38 00	 cmp	 DWORD PTR [eax], 0
  0003c	74 17		 je	 SHORT $LN2@Orphan_me
  0003e	8b 45 ec	 mov	 eax, DWORD PTR __Pnext$11557[ebp]
  00041	8b 08		 mov	 ecx, DWORD PTR [eax]
  00043	3b 4d f8	 cmp	 ecx, DWORD PTR _this$[ebp]
  00046	74 0d		 je	 SHORT $LN2@Orphan_me

; 178  : 				_Pnext = &(*_Pnext)->_Mynextiter;

  00048	8b 45 ec	 mov	 eax, DWORD PTR __Pnext$11557[ebp]
  0004b	8b 08		 mov	 ecx, DWORD PTR [eax]
  0004d	83 c1 04	 add	 ecx, 4
  00050	89 4d ec	 mov	 DWORD PTR __Pnext$11557[ebp], ecx
  00053	eb e1		 jmp	 SHORT $LN3@Orphan_me
$LN2@Orphan_me:

; 179  : 
; 180  : 			if (*_Pnext == 0)

  00055	8b 45 ec	 mov	 eax, DWORD PTR __Pnext$11557[ebp]
  00058	83 38 00	 cmp	 DWORD PTR [eax], 0
  0005b	75 21		 jne	 SHORT $LN1@Orphan_me

; 181  : 				_DEBUG_ERROR("ITERATOR LIST CORRUPTED!");

  0005d	8b f4		 mov	 esi, esp
  0005f	68 b5 00 00 00	 push	 181			; 000000b5H
  00064	68 00 00 00 00	 push	 OFFSET ??_C@_1JA@DBMECOPL@?$AAc?$AA?3?$AA?2?$AAp?$AAr?$AAo?$AAg?$AAr?$AAa?$AAm?$AA?5?$AAf?$AAi?$AAl?$AAe?$AAs?$AA?5?$AA?$CI?$AAx?$AA8?$AA6?$AA?$CJ?$AA?2?$AAm?$AAi?$AAc?$AAr?$AAo?$AAs?$AAo?$AAf?$AAt@
  00069	68 00 00 00 00	 push	 OFFSET ??_C@_1DC@POOIKBAO@?$AAI?$AAT?$AAE?$AAR?$AAA?$AAT?$AAO?$AAR?$AA?5?$AAL?$AAI?$AAS?$AAT?$AA?5?$AAC?$AAO?$AAR?$AAR?$AAU?$AAP?$AAT?$AAE?$AAD?$AA?$CB?$AA?$AA@
  0006e	ff 15 00 00 00
	00		 call	 DWORD PTR __imp_?_Debug_message@std@@YAXPB_W0I@Z
  00074	83 c4 0c	 add	 esp, 12			; 0000000cH
  00077	3b f4		 cmp	 esi, esp
  00079	e8 00 00 00 00	 call	 __RTC_CheckEsp
$LN1@Orphan_me:

; 182  : 			*_Pnext = _Mynextiter;

  0007e	8b 45 ec	 mov	 eax, DWORD PTR __Pnext$11557[ebp]
  00081	8b 4d f8	 mov	 ecx, DWORD PTR _this$[ebp]
  00084	8b 51 04	 mov	 edx, DWORD PTR [ecx+4]
  00087	89 10		 mov	 DWORD PTR [eax], edx

; 183  : 			_Myproxy = 0;

  00089	8b 45 f8	 mov	 eax, DWORD PTR _this$[ebp]
  0008c	c7 00 00 00 00
	00		 mov	 DWORD PTR [eax], 0
$LN5@Orphan_me:

; 184  : 			}
; 185  :  #endif /* _ITERATOR_DEBUG_LEVEL == 2 */
; 186  : 		}

  00092	5f		 pop	 edi
  00093	5e		 pop	 esi
  00094	5b		 pop	 ebx
  00095	81 c4 d8 00 00
	00		 add	 esp, 216		; 000000d8H
  0009b	3b ec		 cmp	 ebp, esp
  0009d	e8 00 00 00 00	 call	 __RTC_CheckEsp
  000a2	8b e5		 mov	 esp, ebp
  000a4	5d		 pop	 ebp
  000a5	c3		 ret	 0
?_Orphan_me@_Iterator_base12@std@@QAEXXZ ENDP		; std::_Iterator_base12::_Orphan_me
_TEXT	ENDS
PUBLIC	??D?$_Tree_iterator@V?$_Tree_val@V?$_Tmap_traits@EPAVGameAction@ReplayTool@@U?$less@E@std@@V?$allocator@U?$pair@$$CBEPAVGameAction@ReplayTool@@@std@@@4@$0A@@std@@@std@@@std@@QBEAAU?$pair@$$CBEPAVGameAction@ReplayTool@@@1@XZ ; std::_Tree_iterator<std::_Tree_val<std::_Tmap_traits<unsigned char,ReplayTool::GameAction *,std::less<unsigned char>,std::allocator<std::pair<unsigned char const ,ReplayTool::GameAction *> >,0> > >::operator*
PUBLIC	??9?$_Tree_const_iterator@V?$_Tree_val@V?$_Tmap_traits@EPAVGameAction@ReplayTool@@U?$less@E@std@@V?$allocator@U?$pair@$$CBEPAVGameAction@ReplayTool@@@std@@@4@$0A@@std@@@std@@@std@@QBE_NABV01@@Z ; std::_Tree_const_iterator<std::_Tree_val<std::_Tmap_traits<unsigned char,ReplayTool::GameAction *,std::less<unsigned char>,std::allocator<std::pair<unsigned char const ,ReplayTool::GameAction *> >,0> > >::operator!=
PUBLIC	?create@Factory@GameAction@ReplayTool@@QAEPAV23@EE@Z ; ReplayTool::GameAction::Factory::create
;	COMDAT xdata$x
; File c:\fili\development\gp\rtsairesearch\bwapi\bwapi\libreplaytool\gameaction.cpp
xdata$x	SEGMENT
__unwindtable$?create@Factory@GameAction@ReplayTool@@QAEPAV23@EE@Z DD 0ffffffffH
	DD	FLAT:__unwindfunclet$?create@Factory@GameAction@ReplayTool@@QAEPAV23@EE@Z$0
	DD	00H
	DD	FLAT:__unwindfunclet$?create@Factory@GameAction@ReplayTool@@QAEPAV23@EE@Z$1
__ehfuncinfo$?create@Factory@GameAction@ReplayTool@@QAEPAV23@EE@Z DD 019930522H
	DD	02H
	DD	FLAT:__unwindtable$?create@Factory@GameAction@ReplayTool@@QAEPAV23@EE@Z
	DD	2 DUP(00H)
	DD	2 DUP(00H)
	DD	00H
	DD	01H
; Function compile flags: /Odtp /RTCsu /ZI
xdata$x	ENDS
;	COMDAT ?create@Factory@GameAction@ReplayTool@@QAEPAV23@EE@Z
_TEXT	SEGMENT
tv143 = -300						; size = 4
tv136 = -296						; size = 4
tv69 = -296						; size = 4
$T173025 = -285						; size = 1
$T173026 = -276						; size = 12
$T173027 = -256						; size = 4
$T173028 = -244						; size = 4
_itr$ = -40						; size = 12
_this$ = -20						; size = 4
__$EHRec$ = -12						; size = 12
_player$ = 8						; size = 1
_action$ = 12						; size = 1
?create@Factory@GameAction@ReplayTool@@QAEPAV23@EE@Z PROC ; ReplayTool::GameAction::Factory::create, COMDAT
; _this$ = ecx

; 19   : {

  00000	55		 push	 ebp
  00001	8b ec		 mov	 ebp, esp
  00003	6a ff		 push	 -1
  00005	68 00 00 00 00	 push	 __ehhandler$?create@Factory@GameAction@ReplayTool@@QAEPAV23@EE@Z
  0000a	64 a1 00 00 00
	00		 mov	 eax, DWORD PTR fs:0
  00010	50		 push	 eax
  00011	81 ec 20 01 00
	00		 sub	 esp, 288		; 00000120H
  00017	53		 push	 ebx
  00018	56		 push	 esi
  00019	57		 push	 edi
  0001a	51		 push	 ecx
  0001b	8d bd d4 fe ff
	ff		 lea	 edi, DWORD PTR [ebp-300]
  00021	b9 48 00 00 00	 mov	 ecx, 72			; 00000048H
  00026	b8 cc cc cc cc	 mov	 eax, -858993460		; ccccccccH
  0002b	f3 ab		 rep stosd
  0002d	59		 pop	 ecx
  0002e	a1 00 00 00 00	 mov	 eax, DWORD PTR ___security_cookie
  00033	33 c5		 xor	 eax, ebp
  00035	50		 push	 eax
  00036	8d 45 f4	 lea	 eax, DWORD PTR __$EHRec$[ebp]
  00039	64 a3 00 00 00
	00		 mov	 DWORD PTR fs:0, eax
  0003f	89 4d ec	 mov	 DWORD PTR _this$[ebp], ecx

; 20   :   ActionMap::iterator itr = actions.find(action);

  00042	8d 45 0c	 lea	 eax, DWORD PTR _action$[ebp]
  00045	50		 push	 eax
  00046	8d 4d d8	 lea	 ecx, DWORD PTR _itr$[ebp]
  00049	51		 push	 ecx
  0004a	8b 4d ec	 mov	 ecx, DWORD PTR _this$[ebp]
  0004d	e8 00 00 00 00	 call	 ?find@?$_Tree@V?$_Tmap_traits@EPAVGameAction@ReplayTool@@U?$less@E@std@@V?$allocator@U?$pair@$$CBEPAVGameAction@ReplayTool@@@std@@@4@$0A@@std@@@std@@QAE?AV?$_Tree_iterator@V?$_Tree_val@V?$_Tmap_traits@EPAVGameAction@ReplayTool@@U?$less@E@std@@V?$allocator@U?$pair@$$CBEPAVGameAction@ReplayTool@@@std@@@4@$0A@@std@@@std@@@2@ABE@Z ; std::_Tree<std::_Tmap_traits<unsigned char,ReplayTool::GameAction *,std::less<unsigned char>,std::allocator<std::pair<unsigned char const ,ReplayTool::GameAction *> >,0> >::find
  00052	c7 45 fc 00 00
	00 00		 mov	 DWORD PTR __$EHRec$[ebp+8], 0

; 21   : 
; 22   :   if (itr != actions.end())

  00059	8d 85 ec fe ff
	ff		 lea	 eax, DWORD PTR $T173026[ebp]
  0005f	50		 push	 eax
  00060	8b 4d ec	 mov	 ecx, DWORD PTR _this$[ebp]
  00063	e8 00 00 00 00	 call	 ?end@?$_Tree@V?$_Tmap_traits@EPAVGameAction@ReplayTool@@U?$less@E@std@@V?$allocator@U?$pair@$$CBEPAVGameAction@ReplayTool@@@std@@@4@$0A@@std@@@std@@QAE?AV?$_Tree_iterator@V?$_Tree_val@V?$_Tmap_traits@EPAVGameAction@ReplayTool@@U?$less@E@std@@V?$allocator@U?$pair@$$CBEPAVGameAction@ReplayTool@@@std@@@4@$0A@@std@@@std@@@2@XZ ; std::_Tree<std::_Tmap_traits<unsigned char,ReplayTool::GameAction *,std::less<unsigned char>,std::allocator<std::pair<unsigned char const ,ReplayTool::GameAction *> >,0> >::end
  00068	89 85 d8 fe ff
	ff		 mov	 DWORD PTR tv69[ebp], eax
  0006e	8b 8d d8 fe ff
	ff		 mov	 ecx, DWORD PTR tv69[ebp]
  00074	89 8d d4 fe ff
	ff		 mov	 DWORD PTR tv143[ebp], ecx
  0007a	c6 45 fc 01	 mov	 BYTE PTR __$EHRec$[ebp+8], 1
  0007e	8b 95 d4 fe ff
	ff		 mov	 edx, DWORD PTR tv143[ebp]
  00084	52		 push	 edx
  00085	8d 4d d8	 lea	 ecx, DWORD PTR _itr$[ebp]
  00088	e8 00 00 00 00	 call	 ??9?$_Tree_const_iterator@V?$_Tree_val@V?$_Tmap_traits@EPAVGameAction@ReplayTool@@U?$less@E@std@@V?$allocator@U?$pair@$$CBEPAVGameAction@ReplayTool@@@std@@@4@$0A@@std@@@std@@@std@@QBE_NABV01@@Z ; std::_Tree_const_iterator<std::_Tree_val<std::_Tmap_traits<unsigned char,ReplayTool::GameAction *,std::less<unsigned char>,std::allocator<std::pair<unsigned char const ,ReplayTool::GameAction *> >,0> > >::operator!=
  0008d	88 85 e3 fe ff
	ff		 mov	 BYTE PTR $T173025[ebp], al
  00093	c6 45 fc 00	 mov	 BYTE PTR __$EHRec$[ebp+8], 0
  00097	8d 8d ec fe ff
	ff		 lea	 ecx, DWORD PTR $T173026[ebp]
  0009d	e8 00 00 00 00	 call	 ??1?$_Tree_iterator@V?$_Tree_val@V?$_Tmap_traits@EPAVGameAction@ReplayTool@@U?$less@E@std@@V?$allocator@U?$pair@$$CBEPAVGameAction@ReplayTool@@@std@@@4@$0A@@std@@@std@@@std@@QAE@XZ
  000a2	0f b6 85 e3 fe
	ff ff		 movzx	 eax, BYTE PTR $T173025[ebp]
  000a9	85 c0		 test	 eax, eax
  000ab	74 51		 je	 SHORT $LN2@create

; 23   :     return (*itr).second->from(player);

  000ad	8d 4d d8	 lea	 ecx, DWORD PTR _itr$[ebp]
  000b0	e8 00 00 00 00	 call	 ??D?$_Tree_iterator@V?$_Tree_val@V?$_Tmap_traits@EPAVGameAction@ReplayTool@@U?$less@E@std@@V?$allocator@U?$pair@$$CBEPAVGameAction@ReplayTool@@@std@@@4@$0A@@std@@@std@@@std@@QBEAAU?$pair@$$CBEPAVGameAction@ReplayTool@@@1@XZ ; std::_Tree_iterator<std::_Tree_val<std::_Tmap_traits<unsigned char,ReplayTool::GameAction *,std::less<unsigned char>,std::allocator<std::pair<unsigned char const ,ReplayTool::GameAction *> >,0> > >::operator*
  000b5	8b 40 04	 mov	 eax, DWORD PTR [eax+4]
  000b8	89 85 d8 fe ff
	ff		 mov	 DWORD PTR tv136[ebp], eax
  000be	8b f4		 mov	 esi, esp
  000c0	0f b6 4d 08	 movzx	 ecx, BYTE PTR _player$[ebp]
  000c4	51		 push	 ecx
  000c5	8b 95 d8 fe ff
	ff		 mov	 edx, DWORD PTR tv136[ebp]
  000cb	8b 02		 mov	 eax, DWORD PTR [edx]
  000cd	8b 8d d8 fe ff
	ff		 mov	 ecx, DWORD PTR tv136[ebp]
  000d3	8b 50 04	 mov	 edx, DWORD PTR [eax+4]
  000d6	ff d2		 call	 edx
  000d8	3b f4		 cmp	 esi, esp
  000da	e8 00 00 00 00	 call	 __RTC_CheckEsp
  000df	89 85 00 ff ff
	ff		 mov	 DWORD PTR $T173027[ebp], eax
  000e5	c7 45 fc ff ff
	ff ff		 mov	 DWORD PTR __$EHRec$[ebp+8], -1
  000ec	8d 4d d8	 lea	 ecx, DWORD PTR _itr$[ebp]
  000ef	e8 00 00 00 00	 call	 ??1?$_Tree_iterator@V?$_Tree_val@V?$_Tmap_traits@EPAVGameAction@ReplayTool@@U?$less@E@std@@V?$allocator@U?$pair@$$CBEPAVGameAction@ReplayTool@@@std@@@4@$0A@@std@@@std@@@std@@QAE@XZ
  000f4	8b 85 00 ff ff
	ff		 mov	 eax, DWORD PTR $T173027[ebp]
  000fa	eb 32		 jmp	 SHORT $LN3@create

; 24   :   else

  000fc	eb 21		 jmp	 SHORT $LN1@create
$LN2@create:

; 25   :     return nullptr;

  000fe	c7 85 0c ff ff
	ff 00 00 00 00	 mov	 DWORD PTR $T173028[ebp], 0
  00108	c7 45 fc ff ff
	ff ff		 mov	 DWORD PTR __$EHRec$[ebp+8], -1
  0010f	8d 4d d8	 lea	 ecx, DWORD PTR _itr$[ebp]
  00112	e8 00 00 00 00	 call	 ??1?$_Tree_iterator@V?$_Tree_val@V?$_Tmap_traits@EPAVGameAction@ReplayTool@@U?$less@E@std@@V?$allocator@U?$pair@$$CBEPAVGameAction@ReplayTool@@@std@@@4@$0A@@std@@@std@@@std@@QAE@XZ
  00117	8b 85 0c ff ff
	ff		 mov	 eax, DWORD PTR $T173028[ebp]
  0011d	eb 0f		 jmp	 SHORT $LN3@create
$LN1@create:

; 26   : }

  0011f	c7 45 fc ff ff
	ff ff		 mov	 DWORD PTR __$EHRec$[ebp+8], -1
  00126	8d 4d d8	 lea	 ecx, DWORD PTR _itr$[ebp]
  00129	e8 00 00 00 00	 call	 ??1?$_Tree_iterator@V?$_Tree_val@V?$_Tmap_traits@EPAVGameAction@ReplayTool@@U?$less@E@std@@V?$allocator@U?$pair@$$CBEPAVGameAction@ReplayTool@@@std@@@4@$0A@@std@@@std@@@std@@QAE@XZ
$LN3@create:
  0012e	52		 push	 edx
  0012f	8b cd		 mov	 ecx, ebp
  00131	50		 push	 eax
  00132	8d 15 00 00 00
	00		 lea	 edx, DWORD PTR $LN10@create
  00138	e8 00 00 00 00	 call	 @_RTC_CheckStackVars@8
  0013d	58		 pop	 eax
  0013e	5a		 pop	 edx
  0013f	8b 4d f4	 mov	 ecx, DWORD PTR __$EHRec$[ebp]
  00142	64 89 0d 00 00
	00 00		 mov	 DWORD PTR fs:0, ecx
  00149	59		 pop	 ecx
  0014a	5f		 pop	 edi
  0014b	5e		 pop	 esi
  0014c	5b		 pop	 ebx
  0014d	81 c4 2c 01 00
	00		 add	 esp, 300		; 0000012cH
  00153	3b ec		 cmp	 ebp, esp
  00155	e8 00 00 00 00	 call	 __RTC_CheckEsp
  0015a	8b e5		 mov	 esp, ebp
  0015c	5d		 pop	 ebp
  0015d	c2 08 00	 ret	 8
$LN10@create:
  00160	01 00 00 00	 DD	 1
  00164	00 00 00 00	 DD	 $LN9@create
$LN9@create:
  00168	d8 ff ff ff	 DD	 -40			; ffffffd8H
  0016c	0c 00 00 00	 DD	 12			; 0000000cH
  00170	00 00 00 00	 DD	 $LN7@create
$LN7@create:
  00174	69		 DB	 105			; 00000069H
  00175	74		 DB	 116			; 00000074H
  00176	72		 DB	 114			; 00000072H
  00177	00		 DB	 0
_TEXT	ENDS
;	COMDAT text$x
text$x	SEGMENT
__unwindfunclet$?create@Factory@GameAction@ReplayTool@@QAEPAV23@EE@Z$0:
  00000	8d 4d d8	 lea	 ecx, DWORD PTR _itr$[ebp]
  00003	e9 00 00 00 00	 jmp	 ??1?$_Tree_iterator@V?$_Tree_val@V?$_Tmap_traits@EPAVGameAction@ReplayTool@@U?$less@E@std@@V?$allocator@U?$pair@$$CBEPAVGameAction@ReplayTool@@@std@@@4@$0A@@std@@@std@@@std@@QAE@XZ
__unwindfunclet$?create@Factory@GameAction@ReplayTool@@QAEPAV23@EE@Z$1:
  00008	8d 8d ec fe ff
	ff		 lea	 ecx, DWORD PTR $T173026[ebp]
  0000e	e9 00 00 00 00	 jmp	 ??1?$_Tree_iterator@V?$_Tree_val@V?$_Tmap_traits@EPAVGameAction@ReplayTool@@U?$less@E@std@@V?$allocator@U?$pair@$$CBEPAVGameAction@ReplayTool@@@std@@@4@$0A@@std@@@std@@@std@@QAE@XZ
__ehhandler$?create@Factory@GameAction@ReplayTool@@QAEPAV23@EE@Z:
  00013	8b 54 24 08	 mov	 edx, DWORD PTR [esp+8]
  00017	8d 42 0c	 lea	 eax, DWORD PTR [edx+12]
  0001a	8b 8a d0 fe ff
	ff		 mov	 ecx, DWORD PTR [edx-304]
  00020	33 c8		 xor	 ecx, eax
  00022	e8 00 00 00 00	 call	 @__security_check_cookie@4
  00027	b8 00 00 00 00	 mov	 eax, OFFSET __ehfuncinfo$?create@Factory@GameAction@ReplayTool@@QAEPAV23@EE@Z
  0002c	e9 00 00 00 00	 jmp	 ___CxxFrameHandler3
text$x	ENDS
?create@Factory@GameAction@ReplayTool@@QAEPAV23@EE@Z ENDP ; ReplayTool::GameAction::Factory::create
PUBLIC	??0Factory@GameAction@ReplayTool@@QAE@XZ	; ReplayTool::GameAction::Factory::Factory
PUBLIC	?instance@Factory@GameAction@ReplayTool@@SAAAV123@XZ ; ReplayTool::GameAction::Factory::instance
EXTRN	_atexit:PROC
_BSS	SEGMENT
?instance@?1??0Factory@GameAction@ReplayTool@@SAAAV123@XZ@4V123@A DB 014H DUP (?) ; `ReplayTool::GameAction::Factory::instance'::`2'::instance
?$S1@?1??instance@Factory@GameAction@ReplayTool@@SAAAV234@XZ@4IA DD 01H DUP (?) ; `ReplayTool::GameAction::Factory::instance'::`2'::$S1
_BSS	ENDS
;	COMDAT xdata$x
xdata$x	SEGMENT
__unwindtable$?instance@Factory@GameAction@ReplayTool@@SAAAV123@XZ DD 0ffffffffH
	DD	FLAT:__unwindfunclet$?instance@Factory@GameAction@ReplayTool@@SAAAV123@XZ$0
__ehfuncinfo$?instance@Factory@GameAction@ReplayTool@@SAAAV123@XZ DD 019930522H
	DD	01H
	DD	FLAT:__unwindtable$?instance@Factory@GameAction@ReplayTool@@SAAAV123@XZ
	DD	2 DUP(00H)
	DD	2 DUP(00H)
	DD	00H
	DD	01H
; Function compile flags: /Odtp /RTCsu /ZI
xdata$x	ENDS
;	COMDAT ?instance@Factory@GameAction@ReplayTool@@SAAAV123@XZ
_TEXT	SEGMENT
__$EHRec$ = -12						; size = 12
?instance@Factory@GameAction@ReplayTool@@SAAAV123@XZ PROC ; ReplayTool::GameAction::Factory::instance, COMDAT

; 29   : {

  00000	55		 push	 ebp
  00001	8b ec		 mov	 ebp, esp
  00003	6a ff		 push	 -1
  00005	68 00 00 00 00	 push	 __ehhandler$?instance@Factory@GameAction@ReplayTool@@SAAAV123@XZ
  0000a	64 a1 00 00 00
	00		 mov	 eax, DWORD PTR fs:0
  00010	50		 push	 eax
  00011	81 ec c0 00 00
	00		 sub	 esp, 192		; 000000c0H
  00017	53		 push	 ebx
  00018	56		 push	 esi
  00019	57		 push	 edi
  0001a	8d bd 34 ff ff
	ff		 lea	 edi, DWORD PTR [ebp-204]
  00020	b9 30 00 00 00	 mov	 ecx, 48			; 00000030H
  00025	b8 cc cc cc cc	 mov	 eax, -858993460		; ccccccccH
  0002a	f3 ab		 rep stosd
  0002c	a1 00 00 00 00	 mov	 eax, DWORD PTR ___security_cookie
  00031	33 c5		 xor	 eax, ebp
  00033	50		 push	 eax
  00034	8d 45 f4	 lea	 eax, DWORD PTR __$EHRec$[ebp]
  00037	64 a3 00 00 00
	00		 mov	 DWORD PTR fs:0, eax

; 30   :   static Factory instance;

  0003d	a1 00 00 00 00	 mov	 eax, DWORD PTR ?$S1@?1??instance@Factory@GameAction@ReplayTool@@SAAAV234@XZ@4IA
  00042	83 e0 01	 and	 eax, 1
  00045	75 32		 jne	 SHORT $LN1@instance
  00047	a1 00 00 00 00	 mov	 eax, DWORD PTR ?$S1@?1??instance@Factory@GameAction@ReplayTool@@SAAAV234@XZ@4IA
  0004c	83 c8 01	 or	 eax, 1
  0004f	a3 00 00 00 00	 mov	 DWORD PTR ?$S1@?1??instance@Factory@GameAction@ReplayTool@@SAAAV234@XZ@4IA, eax
  00054	c7 45 fc 00 00
	00 00		 mov	 DWORD PTR __$EHRec$[ebp+8], 0
  0005b	b9 00 00 00 00	 mov	 ecx, OFFSET ?instance@?1??0Factory@GameAction@ReplayTool@@SAAAV123@XZ@4V123@A
  00060	e8 00 00 00 00	 call	 ??0Factory@GameAction@ReplayTool@@QAE@XZ
  00065	68 00 00 00 00	 push	 OFFSET ??__Finstance@?1??instance@Factory@GameAction@ReplayTool@@SAAAV123@XZ@YAXXZ ; `ReplayTool::GameAction::Factory::instance'::`2'::`dynamic atexit destructor for 'instance''
  0006a	e8 00 00 00 00	 call	 _atexit
  0006f	83 c4 04	 add	 esp, 4
  00072	c7 45 fc ff ff
	ff ff		 mov	 DWORD PTR __$EHRec$[ebp+8], -1
$LN1@instance:

; 31   :   return instance;

  00079	b8 00 00 00 00	 mov	 eax, OFFSET ?instance@?1??0Factory@GameAction@ReplayTool@@SAAAV123@XZ@4V123@A

; 32   : }

  0007e	8b 4d f4	 mov	 ecx, DWORD PTR __$EHRec$[ebp]
  00081	64 89 0d 00 00
	00 00		 mov	 DWORD PTR fs:0, ecx
  00088	59		 pop	 ecx
  00089	5f		 pop	 edi
  0008a	5e		 pop	 esi
  0008b	5b		 pop	 ebx
  0008c	81 c4 cc 00 00
	00		 add	 esp, 204		; 000000ccH
  00092	3b ec		 cmp	 ebp, esp
  00094	e8 00 00 00 00	 call	 __RTC_CheckEsp
  00099	8b e5		 mov	 esp, ebp
  0009b	5d		 pop	 ebp
  0009c	c3		 ret	 0
_TEXT	ENDS
;	COMDAT text$x
text$x	SEGMENT
__unwindfunclet$?instance@Factory@GameAction@ReplayTool@@SAAAV123@XZ$0:
  00000	a1 00 00 00 00	 mov	 eax, DWORD PTR ?$S1@?1??instance@Factory@GameAction@ReplayTool@@SAAAV234@XZ@4IA
  00005	83 e0 fe	 and	 eax, -2			; fffffffeH
  00008	a3 00 00 00 00	 mov	 DWORD PTR ?$S1@?1??instance@Factory@GameAction@ReplayTool@@SAAAV234@XZ@4IA, eax
  0000d	c3		 ret	 0
__ehhandler$?instance@Factory@GameAction@ReplayTool@@SAAAV123@XZ:
  0000e	8b 54 24 08	 mov	 edx, DWORD PTR [esp+8]
  00012	8d 42 0c	 lea	 eax, DWORD PTR [edx+12]
  00015	8b 8a 30 ff ff
	ff		 mov	 ecx, DWORD PTR [edx-208]
  0001b	33 c8		 xor	 ecx, eax
  0001d	e8 00 00 00 00	 call	 @__security_check_cookie@4
  00022	b8 00 00 00 00	 mov	 eax, OFFSET __ehfuncinfo$?instance@Factory@GameAction@ReplayTool@@SAAAV123@XZ
  00027	e9 00 00 00 00	 jmp	 ___CxxFrameHandler3
text$x	ENDS
?instance@Factory@GameAction@ReplayTool@@SAAAV123@XZ ENDP ; ReplayTool::GameAction::Factory::instance
PUBLIC	??0?$map@EPAVGameAction@ReplayTool@@U?$less@E@std@@V?$allocator@U?$pair@$$CBEPAVGameAction@ReplayTool@@@std@@@4@@std@@QAE@XZ ; std::map<unsigned char,ReplayTool::GameAction *,std::less<unsigned char>,std::allocator<std::pair<unsigned char const ,ReplayTool::GameAction *> > >::map<unsigned char,ReplayTool::GameAction *,std::less<unsigned char>,std::allocator<std::pair<unsigned char const ,ReplayTool::GameAction *> > >
; Function compile flags: /Odtp /RTCsu /ZI
;	COMDAT ??0Factory@GameAction@ReplayTool@@QAE@XZ
_TEXT	SEGMENT
_this$ = -8						; size = 4
??0Factory@GameAction@ReplayTool@@QAE@XZ PROC		; ReplayTool::GameAction::Factory::Factory, COMDAT
; _this$ = ecx
  00000	55		 push	 ebp
  00001	8b ec		 mov	 ebp, esp
  00003	81 ec cc 00 00
	00		 sub	 esp, 204		; 000000ccH
  00009	53		 push	 ebx
  0000a	56		 push	 esi
  0000b	57		 push	 edi
  0000c	51		 push	 ecx
  0000d	8d bd 34 ff ff
	ff		 lea	 edi, DWORD PTR [ebp-204]
  00013	b9 33 00 00 00	 mov	 ecx, 51			; 00000033H
  00018	b8 cc cc cc cc	 mov	 eax, -858993460		; ccccccccH
  0001d	f3 ab		 rep stosd
  0001f	59		 pop	 ecx
  00020	89 4d f8	 mov	 DWORD PTR _this$[ebp], ecx
  00023	8b 4d f8	 mov	 ecx, DWORD PTR _this$[ebp]
  00026	e8 00 00 00 00	 call	 ??0?$map@EPAVGameAction@ReplayTool@@U?$less@E@std@@V?$allocator@U?$pair@$$CBEPAVGameAction@ReplayTool@@@std@@@4@@std@@QAE@XZ ; std::map<unsigned char,ReplayTool::GameAction *,std::less<unsigned char>,std::allocator<std::pair<unsigned char const ,ReplayTool::GameAction *> > >::map<unsigned char,ReplayTool::GameAction *,std::less<unsigned char>,std::allocator<std::pair<unsigned char const ,ReplayTool::GameAction *> > >
  0002b	8b 45 f8	 mov	 eax, DWORD PTR _this$[ebp]
  0002e	5f		 pop	 edi
  0002f	5e		 pop	 esi
  00030	5b		 pop	 ebx
  00031	81 c4 cc 00 00
	00		 add	 esp, 204		; 000000ccH
  00037	3b ec		 cmp	 ebp, esp
  00039	e8 00 00 00 00	 call	 __RTC_CheckEsp
  0003e	8b e5		 mov	 esp, ebp
  00040	5d		 pop	 ebp
  00041	c3		 ret	 0
??0Factory@GameAction@ReplayTool@@QAE@XZ ENDP		; ReplayTool::GameAction::Factory::Factory
_TEXT	ENDS
PUBLIC	??_7GameAction@ReplayTool@@6B@			; ReplayTool::GameAction::`vftable'
PUBLIC	??0GameAction@ReplayTool@@QAE@EE@Z		; ReplayTool::GameAction::GameAction
PUBLIC	??_R4GameAction@ReplayTool@@6B@			; ReplayTool::GameAction::`RTTI Complete Object Locator'
PUBLIC	??_R0?AVGameAction@ReplayTool@@@8		; ReplayTool::GameAction `RTTI Type Descriptor'
PUBLIC	??_R3GameAction@ReplayTool@@8			; ReplayTool::GameAction::`RTTI Class Hierarchy Descriptor'
PUBLIC	??_R2GameAction@ReplayTool@@8			; ReplayTool::GameAction::`RTTI Base Class Array'
PUBLIC	??_R1A@?0A@EA@GameAction@ReplayTool@@8		; ReplayTool::GameAction::`RTTI Base Class Descriptor at (0,-1,0,64)'
PUBLIC	?read@GameAction@ReplayTool@@UAEXAAVAbstractReplayReader@2@@Z ; ReplayTool::GameAction::read
PUBLIC	?from@GameAction@ReplayTool@@UAEPAV12@E@Z	; ReplayTool::GameAction::from
PUBLIC	?toString@GameAction@ReplayTool@@UBE?AV?$basic_string@DU?$char_traits@D@std@@V?$allocator@D@2@@std@@XZ ; ReplayTool::GameAction::toString
EXTRN	??_7type_info@@6B@:QWORD			; type_info::`vftable'
;	COMDAT ??_R1A@?0A@EA@GameAction@ReplayTool@@8
rdata$r	SEGMENT
??_R1A@?0A@EA@GameAction@ReplayTool@@8 DD FLAT:??_R0?AVGameAction@ReplayTool@@@8 ; ReplayTool::GameAction::`RTTI Base Class Descriptor at (0,-1,0,64)'
	DD	00H
	DD	00H
	DD	0ffffffffH
	DD	00H
	DD	040H
	DD	FLAT:??_R3GameAction@ReplayTool@@8
rdata$r	ENDS
;	COMDAT ??_R2GameAction@ReplayTool@@8
rdata$r	SEGMENT
??_R2GameAction@ReplayTool@@8 DD FLAT:??_R1A@?0A@EA@GameAction@ReplayTool@@8 ; ReplayTool::GameAction::`RTTI Base Class Array'
rdata$r	ENDS
;	COMDAT ??_R3GameAction@ReplayTool@@8
rdata$r	SEGMENT
??_R3GameAction@ReplayTool@@8 DD 00H			; ReplayTool::GameAction::`RTTI Class Hierarchy Descriptor'
	DD	00H
	DD	01H
	DD	FLAT:??_R2GameAction@ReplayTool@@8
rdata$r	ENDS
;	COMDAT ??_R0?AVGameAction@ReplayTool@@@8
_DATA	SEGMENT
??_R0?AVGameAction@ReplayTool@@@8 DD FLAT:??_7type_info@@6B@ ; ReplayTool::GameAction `RTTI Type Descriptor'
	DD	00H
	DB	'.?AVGameAction@ReplayTool@@', 00H
_DATA	ENDS
;	COMDAT ??_R4GameAction@ReplayTool@@6B@
rdata$r	SEGMENT
??_R4GameAction@ReplayTool@@6B@ DD 00H			; ReplayTool::GameAction::`RTTI Complete Object Locator'
	DD	00H
	DD	00H
	DD	FLAT:??_R0?AVGameAction@ReplayTool@@@8
	DD	FLAT:??_R3GameAction@ReplayTool@@8
rdata$r	ENDS
;	COMDAT ??_7GameAction@ReplayTool@@6B@
CONST	SEGMENT
??_7GameAction@ReplayTool@@6B@ DD FLAT:??_R4GameAction@ReplayTool@@6B@ ; ReplayTool::GameAction::`vftable'
	DD	FLAT:?read@GameAction@ReplayTool@@UAEXAAVAbstractReplayReader@2@@Z
	DD	FLAT:?from@GameAction@ReplayTool@@UAEPAV12@E@Z
	DD	FLAT:?toString@GameAction@ReplayTool@@UBE?AV?$basic_string@DU?$char_traits@D@std@@V?$allocator@D@2@@std@@XZ
; Function compile flags: /Odtp /RTCsu /ZI
CONST	ENDS
;	COMDAT ??0GameAction@ReplayTool@@QAE@EE@Z
_TEXT	SEGMENT
_this$ = -8						; size = 4
__player$ = 8						; size = 1
__action$ = 12						; size = 1
??0GameAction@ReplayTool@@QAE@EE@Z PROC			; ReplayTool::GameAction::GameAction, COMDAT
; _this$ = ecx

; 37   : {

  00000	55		 push	 ebp
  00001	8b ec		 mov	 ebp, esp
  00003	81 ec cc 00 00
	00		 sub	 esp, 204		; 000000ccH
  00009	53		 push	 ebx
  0000a	56		 push	 esi
  0000b	57		 push	 edi
  0000c	51		 push	 ecx
  0000d	8d bd 34 ff ff
	ff		 lea	 edi, DWORD PTR [ebp-204]
  00013	b9 33 00 00 00	 mov	 ecx, 51			; 00000033H
  00018	b8 cc cc cc cc	 mov	 eax, -858993460		; ccccccccH
  0001d	f3 ab		 rep stosd
  0001f	59		 pop	 ecx
  00020	89 4d f8	 mov	 DWORD PTR _this$[ebp], ecx
  00023	8b 45 f8	 mov	 eax, DWORD PTR _this$[ebp]
  00026	c7 00 00 00 00
	00		 mov	 DWORD PTR [eax], OFFSET ??_7GameAction@ReplayTool@@6B@
  0002c	8b 45 f8	 mov	 eax, DWORD PTR _this$[ebp]
  0002f	8a 4d 08	 mov	 cl, BYTE PTR __player$[ebp]
  00032	88 48 04	 mov	 BYTE PTR [eax+4], cl
  00035	8b 45 f8	 mov	 eax, DWORD PTR _this$[ebp]
  00038	8a 4d 0c	 mov	 cl, BYTE PTR __action$[ebp]
  0003b	88 48 05	 mov	 BYTE PTR [eax+5], cl

; 38   : }

  0003e	8b 45 f8	 mov	 eax, DWORD PTR _this$[ebp]
  00041	5f		 pop	 edi
  00042	5e		 pop	 esi
  00043	5b		 pop	 ebx
  00044	8b e5		 mov	 esp, ebp
  00046	5d		 pop	 ebp
  00047	c2 08 00	 ret	 8
??0GameAction@ReplayTool@@QAE@EE@Z ENDP			; ReplayTool::GameAction::GameAction
; Function compile flags: /Odtp /RTCsu /ZI
; File c:\fili\development\gp\rtsairesearch\bwapi\bwapi\libreplaytool\gameaction.h
_TEXT	ENDS
;	COMDAT ?read@GameAction@ReplayTool@@UAEXAAVAbstractReplayReader@2@@Z
_TEXT	SEGMENT
_this$ = -8						; size = 4
_reader$ = 8						; size = 4
?read@GameAction@ReplayTool@@UAEXAAVAbstractReplayReader@2@@Z PROC ; ReplayTool::GameAction::read, COMDAT
; _this$ = ecx

; 28   :   virtual void read(AbstractReplayReader &reader) {}

  00000	55		 push	 ebp
  00001	8b ec		 mov	 ebp, esp
  00003	81 ec cc 00 00
	00		 sub	 esp, 204		; 000000ccH
  00009	53		 push	 ebx
  0000a	56		 push	 esi
  0000b	57		 push	 edi
  0000c	51		 push	 ecx
  0000d	8d bd 34 ff ff
	ff		 lea	 edi, DWORD PTR [ebp-204]
  00013	b9 33 00 00 00	 mov	 ecx, 51			; 00000033H
  00018	b8 cc cc cc cc	 mov	 eax, -858993460		; ccccccccH
  0001d	f3 ab		 rep stosd
  0001f	59		 pop	 ecx
  00020	89 4d f8	 mov	 DWORD PTR _this$[ebp], ecx
  00023	5f		 pop	 edi
  00024	5e		 pop	 esi
  00025	5b		 pop	 ebx
  00026	8b e5		 mov	 esp, ebp
  00028	5d		 pop	 ebp
  00029	c2 04 00	 ret	 4
?read@GameAction@ReplayTool@@UAEXAAVAbstractReplayReader@2@@Z ENDP ; ReplayTool::GameAction::read
_TEXT	ENDS
EXTRN	??3@YAXPAX@Z:PROC				; operator delete
EXTRN	??2@YAPAXI@Z:PROC				; operator new
;	COMDAT xdata$x
xdata$x	SEGMENT
__unwindtable$?from@GameAction@ReplayTool@@UAEPAV12@E@Z DD 0ffffffffH
	DD	FLAT:__unwindfunclet$?from@GameAction@ReplayTool@@UAEPAV12@E@Z$0
__ehfuncinfo$?from@GameAction@ReplayTool@@UAEPAV12@E@Z DD 019930522H
	DD	01H
	DD	FLAT:__unwindtable$?from@GameAction@ReplayTool@@UAEPAV12@E@Z
	DD	2 DUP(00H)
	DD	2 DUP(00H)
	DD	00H
	DD	01H
; Function compile flags: /Odtp /RTCsu /ZI
xdata$x	ENDS
;	COMDAT ?from@GameAction@ReplayTool@@UAEPAV12@E@Z
_TEXT	SEGMENT
tv74 = -244						; size = 4
$T173058 = -236						; size = 4
$T173059 = -224						; size = 4
_this$ = -20						; size = 4
__$EHRec$ = -12						; size = 12
_player$ = 8						; size = 1
?from@GameAction@ReplayTool@@UAEPAV12@E@Z PROC		; ReplayTool::GameAction::from, COMDAT
; _this$ = ecx

; 29   :   virtual GameAction* from(PlayerID player) { return new GameAction(player, action); }

  00000	55		 push	 ebp
  00001	8b ec		 mov	 ebp, esp
  00003	6a ff		 push	 -1
  00005	68 00 00 00 00	 push	 __ehhandler$?from@GameAction@ReplayTool@@UAEPAV12@E@Z
  0000a	64 a1 00 00 00
	00		 mov	 eax, DWORD PTR fs:0
  00010	50		 push	 eax
  00011	81 ec e8 00 00
	00		 sub	 esp, 232		; 000000e8H
  00017	53		 push	 ebx
  00018	56		 push	 esi
  00019	57		 push	 edi
  0001a	51		 push	 ecx
  0001b	8d bd 0c ff ff
	ff		 lea	 edi, DWORD PTR [ebp-244]
  00021	b9 3a 00 00 00	 mov	 ecx, 58			; 0000003aH
  00026	b8 cc cc cc cc	 mov	 eax, -858993460		; ccccccccH
  0002b	f3 ab		 rep stosd
  0002d	59		 pop	 ecx
  0002e	a1 00 00 00 00	 mov	 eax, DWORD PTR ___security_cookie
  00033	33 c5		 xor	 eax, ebp
  00035	50		 push	 eax
  00036	8d 45 f4	 lea	 eax, DWORD PTR __$EHRec$[ebp]
  00039	64 a3 00 00 00
	00		 mov	 DWORD PTR fs:0, eax
  0003f	89 4d ec	 mov	 DWORD PTR _this$[ebp], ecx
  00042	6a 08		 push	 8
  00044	e8 00 00 00 00	 call	 ??2@YAPAXI@Z		; operator new
  00049	83 c4 04	 add	 esp, 4
  0004c	89 85 20 ff ff
	ff		 mov	 DWORD PTR $T173059[ebp], eax
  00052	c7 45 fc 00 00
	00 00		 mov	 DWORD PTR __$EHRec$[ebp+8], 0
  00059	83 bd 20 ff ff
	ff 00		 cmp	 DWORD PTR $T173059[ebp], 0
  00060	74 20		 je	 SHORT $LN3@from
  00062	8b 45 ec	 mov	 eax, DWORD PTR _this$[ebp]
  00065	0f b6 48 05	 movzx	 ecx, BYTE PTR [eax+5]
  00069	51		 push	 ecx
  0006a	0f b6 55 08	 movzx	 edx, BYTE PTR _player$[ebp]
  0006e	52		 push	 edx
  0006f	8b 8d 20 ff ff
	ff		 mov	 ecx, DWORD PTR $T173059[ebp]
  00075	e8 00 00 00 00	 call	 ??0GameAction@ReplayTool@@QAE@EE@Z ; ReplayTool::GameAction::GameAction
  0007a	89 85 0c ff ff
	ff		 mov	 DWORD PTR tv74[ebp], eax
  00080	eb 0a		 jmp	 SHORT $LN4@from
$LN3@from:
  00082	c7 85 0c ff ff
	ff 00 00 00 00	 mov	 DWORD PTR tv74[ebp], 0
$LN4@from:
  0008c	8b 85 0c ff ff
	ff		 mov	 eax, DWORD PTR tv74[ebp]
  00092	89 85 14 ff ff
	ff		 mov	 DWORD PTR $T173058[ebp], eax
  00098	c7 45 fc ff ff
	ff ff		 mov	 DWORD PTR __$EHRec$[ebp+8], -1
  0009f	8b 85 14 ff ff
	ff		 mov	 eax, DWORD PTR $T173058[ebp]
  000a5	8b 4d f4	 mov	 ecx, DWORD PTR __$EHRec$[ebp]
  000a8	64 89 0d 00 00
	00 00		 mov	 DWORD PTR fs:0, ecx
  000af	59		 pop	 ecx
  000b0	5f		 pop	 edi
  000b1	5e		 pop	 esi
  000b2	5b		 pop	 ebx
  000b3	81 c4 f4 00 00
	00		 add	 esp, 244		; 000000f4H
  000b9	3b ec		 cmp	 ebp, esp
  000bb	e8 00 00 00 00	 call	 __RTC_CheckEsp
  000c0	8b e5		 mov	 esp, ebp
  000c2	5d		 pop	 ebp
  000c3	c2 04 00	 ret	 4
_TEXT	ENDS
;	COMDAT text$x
text$x	SEGMENT
__unwindfunclet$?from@GameAction@ReplayTool@@UAEPAV12@E@Z$0:
  00000	8b 85 20 ff ff
	ff		 mov	 eax, DWORD PTR $T173059[ebp]
  00006	50		 push	 eax
  00007	e8 00 00 00 00	 call	 ??3@YAXPAX@Z		; operator delete
  0000c	59		 pop	 ecx
  0000d	c3		 ret	 0
__ehhandler$?from@GameAction@ReplayTool@@UAEPAV12@E@Z:
  0000e	8b 54 24 08	 mov	 edx, DWORD PTR [esp+8]
  00012	8d 42 0c	 lea	 eax, DWORD PTR [edx+12]
  00015	8b 8a 08 ff ff
	ff		 mov	 ecx, DWORD PTR [edx-248]
  0001b	33 c8		 xor	 ecx, eax
  0001d	e8 00 00 00 00	 call	 @__security_check_cookie@4
  00022	b8 00 00 00 00	 mov	 eax, OFFSET __ehfuncinfo$?from@GameAction@ReplayTool@@UAEPAV12@E@Z
  00027	e9 00 00 00 00	 jmp	 ___CxxFrameHandler3
text$x	ENDS
?from@GameAction@ReplayTool@@UAEPAV12@E@Z ENDP		; ReplayTool::GameAction::from
PUBLIC	??0?$basic_string@DU?$char_traits@D@std@@V?$allocator@D@2@@std@@QAE@PBD@Z ; std::basic_string<char,std::char_traits<char>,std::allocator<char> >::basic_string<char,std::char_traits<char>,std::allocator<char> >
PUBLIC	??_C@_0L@BMKOFNPP@?$CIP?$CFd?$CJ?5?$CFs?3?5?$AA@ ; `string'
PUBLIC	??_C@_07DNODLGKM@INVALID?$AA@			; `string'
PUBLIC	__$ArrayPad$
EXTRN	__imp__sprintf_s:PROC
;	COMDAT ??_C@_0L@BMKOFNPP@?$CIP?$CFd?$CJ?5?$CFs?3?5?$AA@
; File c:\fili\development\gp\rtsairesearch\bwapi\bwapi\libreplaytool\gameaction.cpp
CONST	SEGMENT
??_C@_0L@BMKOFNPP@?$CIP?$CFd?$CJ?5?$CFs?3?5?$AA@ DB '(P%d) %s: ', 00H ; `string'
CONST	ENDS
;	COMDAT ??_C@_07DNODLGKM@INVALID?$AA@
CONST	SEGMENT
??_C@_07DNODLGKM@INVALID?$AA@ DB 'INVALID', 00H		; `string'
; Function compile flags: /Odtp /RTCsu /ZI
CONST	ENDS
;	COMDAT ?toString@GameAction@ReplayTool@@UBE?AV?$basic_string@DU?$char_traits@D@std@@V?$allocator@D@2@@std@@XZ
_TEXT	SEGMENT
tv71 = -384						; size = 4
$T173075 = -376						; size = 4
_actionName$ = -172					; size = 4
_buffer$ = -160						; size = 128
_BUFF_SIZE$ = -24					; size = 4
_this$ = -12						; size = 4
__$ArrayPad$ = -4					; size = 4
___$ReturnUdt$ = 8					; size = 4
?toString@GameAction@ReplayTool@@UBE?AV?$basic_string@DU?$char_traits@D@std@@V?$allocator@D@2@@std@@XZ PROC ; ReplayTool::GameAction::toString, COMDAT
; _this$ = ecx

; 41   : {

  00000	55		 push	 ebp
  00001	8b ec		 mov	 ebp, esp
  00003	81 ec 80 01 00
	00		 sub	 esp, 384		; 00000180H
  00009	53		 push	 ebx
  0000a	56		 push	 esi
  0000b	57		 push	 edi
  0000c	51		 push	 ecx
  0000d	8d bd 80 fe ff
	ff		 lea	 edi, DWORD PTR [ebp-384]
  00013	b9 60 00 00 00	 mov	 ecx, 96			; 00000060H
  00018	b8 cc cc cc cc	 mov	 eax, -858993460		; ccccccccH
  0001d	f3 ab		 rep stosd
  0001f	59		 pop	 ecx
  00020	a1 00 00 00 00	 mov	 eax, DWORD PTR ___security_cookie
  00025	33 c5		 xor	 eax, ebp
  00027	89 45 fc	 mov	 DWORD PTR __$ArrayPad$[ebp], eax
  0002a	89 4d f4	 mov	 DWORD PTR _this$[ebp], ecx
  0002d	c7 85 88 fe ff
	ff 00 00 00 00	 mov	 DWORD PTR $T173075[ebp], 0

; 42   :   const size_t BUFF_SIZE = 128;

  00037	c7 45 e8 80 00
	00 00		 mov	 DWORD PTR _BUFF_SIZE$[ebp], 128 ; 00000080H

; 43   :   char buffer[BUFF_SIZE];
; 44   :   const char* actionName = action < ReplayTool::Max ? ReplayTool::pszActionNames[action] : "INVALID";

  0003e	8b 45 f4	 mov	 eax, DWORD PTR _this$[ebp]
  00041	0f b6 48 05	 movzx	 ecx, BYTE PTR [eax+5]
  00045	83 f9 5d	 cmp	 ecx, 93			; 0000005dH
  00048	7d 16		 jge	 SHORT $LN3@toString
  0004a	8b 55 f4	 mov	 edx, DWORD PTR _this$[ebp]
  0004d	0f b6 42 05	 movzx	 eax, BYTE PTR [edx+5]
  00051	8b 0c 85 00 00
	00 00		 mov	 ecx, DWORD PTR _pszActionNames[eax*4]
  00058	89 8d 80 fe ff
	ff		 mov	 DWORD PTR tv71[ebp], ecx
  0005e	eb 0a		 jmp	 SHORT $LN4@toString
$LN3@toString:
  00060	c7 85 80 fe ff
	ff 00 00 00 00	 mov	 DWORD PTR tv71[ebp], OFFSET ??_C@_07DNODLGKM@INVALID?$AA@
$LN4@toString:
  0006a	8b 95 80 fe ff
	ff		 mov	 edx, DWORD PTR tv71[ebp]
  00070	89 95 54 ff ff
	ff		 mov	 DWORD PTR _actionName$[ebp], edx

; 45   : 
; 46   :   sprintf_s(buffer, BUFF_SIZE, "(P%d) %s: ", player, actionName);

  00076	8b f4		 mov	 esi, esp
  00078	8b 85 54 ff ff
	ff		 mov	 eax, DWORD PTR _actionName$[ebp]
  0007e	50		 push	 eax
  0007f	8b 4d f4	 mov	 ecx, DWORD PTR _this$[ebp]
  00082	0f b6 51 04	 movzx	 edx, BYTE PTR [ecx+4]
  00086	52		 push	 edx
  00087	68 00 00 00 00	 push	 OFFSET ??_C@_0L@BMKOFNPP@?$CIP?$CFd?$CJ?5?$CFs?3?5?$AA@
  0008c	68 80 00 00 00	 push	 128			; 00000080H
  00091	8d 85 60 ff ff
	ff		 lea	 eax, DWORD PTR _buffer$[ebp]
  00097	50		 push	 eax
  00098	ff 15 00 00 00
	00		 call	 DWORD PTR __imp__sprintf_s
  0009e	83 c4 14	 add	 esp, 20			; 00000014H
  000a1	3b f4		 cmp	 esi, esp
  000a3	e8 00 00 00 00	 call	 __RTC_CheckEsp

; 47   : 
; 48   :   return buffer;

  000a8	8d 85 60 ff ff
	ff		 lea	 eax, DWORD PTR _buffer$[ebp]
  000ae	50		 push	 eax
  000af	8b 4d 08	 mov	 ecx, DWORD PTR ___$ReturnUdt$[ebp]
  000b2	e8 00 00 00 00	 call	 ??0?$basic_string@DU?$char_traits@D@std@@V?$allocator@D@2@@std@@QAE@PBD@Z ; std::basic_string<char,std::char_traits<char>,std::allocator<char> >::basic_string<char,std::char_traits<char>,std::allocator<char> >
  000b7	8b 8d 88 fe ff
	ff		 mov	 ecx, DWORD PTR $T173075[ebp]
  000bd	83 c9 01	 or	 ecx, 1
  000c0	89 8d 88 fe ff
	ff		 mov	 DWORD PTR $T173075[ebp], ecx
  000c6	8b 45 08	 mov	 eax, DWORD PTR ___$ReturnUdt$[ebp]

; 49   : }

  000c9	52		 push	 edx
  000ca	8b cd		 mov	 ecx, ebp
  000cc	50		 push	 eax
  000cd	8d 15 00 00 00
	00		 lea	 edx, DWORD PTR $LN9@toString
  000d3	e8 00 00 00 00	 call	 @_RTC_CheckStackVars@8
  000d8	58		 pop	 eax
  000d9	5a		 pop	 edx
  000da	5f		 pop	 edi
  000db	5e		 pop	 esi
  000dc	5b		 pop	 ebx
  000dd	8b 4d fc	 mov	 ecx, DWORD PTR __$ArrayPad$[ebp]
  000e0	33 cd		 xor	 ecx, ebp
  000e2	e8 00 00 00 00	 call	 @__security_check_cookie@4
  000e7	81 c4 80 01 00
	00		 add	 esp, 384		; 00000180H
  000ed	3b ec		 cmp	 ebp, esp
  000ef	e8 00 00 00 00	 call	 __RTC_CheckEsp
  000f4	8b e5		 mov	 esp, ebp
  000f6	5d		 pop	 ebp
  000f7	c2 04 00	 ret	 4
  000fa	8b ff		 npad	 2
$LN9@toString:
  000fc	01 00 00 00	 DD	 1
  00100	00 00 00 00	 DD	 $LN8@toString
$LN8@toString:
  00104	60 ff ff ff	 DD	 -160			; ffffff60H
  00108	80 00 00 00	 DD	 128			; 00000080H
  0010c	00 00 00 00	 DD	 $LN7@toString
$LN7@toString:
  00110	62		 DB	 98			; 00000062H
  00111	75		 DB	 117			; 00000075H
  00112	66		 DB	 102			; 00000066H
  00113	66		 DB	 102			; 00000066H
  00114	65		 DB	 101			; 00000065H
  00115	72		 DB	 114			; 00000072H
  00116	00		 DB	 0
?toString@GameAction@ReplayTool@@UBE?AV?$basic_string@DU?$char_traits@D@std@@V?$allocator@D@2@@std@@XZ ENDP ; ReplayTool::GameAction::toString
_TEXT	ENDS
PUBLIC	??1?$_String_val@DV?$allocator@D@std@@@std@@QAE@XZ ; std::_String_val<char,std::allocator<char> >::~_String_val<char,std::allocator<char> >
PUBLIC	?assign@?$basic_string@DU?$char_traits@D@std@@V?$allocator@D@2@@std@@QAEAAV12@PBD@Z ; std::basic_string<char,std::char_traits<char>,std::allocator<char> >::assign
PUBLIC	?_Tidy@?$basic_string@DU?$char_traits@D@std@@V?$allocator@D@2@@std@@QAEX_NI@Z ; std::basic_string<char,std::char_traits<char>,std::allocator<char> >::_Tidy
PUBLIC	??0?$_String_val@DV?$allocator@D@std@@@std@@QAE@V?$allocator@D@1@@Z ; std::_String_val<char,std::allocator<char> >::_String_val<char,std::allocator<char> >
PUBLIC	??0?$allocator@D@std@@QAE@XZ			; std::allocator<char>::allocator<char>
;	COMDAT xdata$x
; File c:\program files (x86)\microsoft visual studio 10.0\vc\include\xstring
xdata$x	SEGMENT
__unwindtable$??0?$basic_string@DU?$char_traits@D@std@@V?$allocator@D@2@@std@@QAE@PBD@Z DD 0ffffffffH
	DD	FLAT:__unwindfunclet$??0?$basic_string@DU?$char_traits@D@std@@V?$allocator@D@2@@std@@QAE@PBD@Z$0
__ehfuncinfo$??0?$basic_string@DU?$char_traits@D@std@@V?$allocator@D@2@@std@@QAE@PBD@Z DD 019930522H
	DD	01H
	DD	FLAT:__unwindtable$??0?$basic_string@DU?$char_traits@D@std@@V?$allocator@D@2@@std@@QAE@PBD@Z
	DD	2 DUP(00H)
	DD	2 DUP(00H)
	DD	00H
	DD	01H
; Function compile flags: /Odtp /RTCsu /ZI
xdata$x	ENDS
;	COMDAT ??0?$basic_string@DU?$char_traits@D@std@@V?$allocator@D@2@@std@@QAE@PBD@Z
_TEXT	SEGMENT
$T173082 = -224						; size = 4
_this$ = -20						; size = 4
__$EHRec$ = -12						; size = 12
__Ptr$ = 8						; size = 4
??0?$basic_string@DU?$char_traits@D@std@@V?$allocator@D@2@@std@@QAE@PBD@Z PROC ; std::basic_string<char,std::char_traits<char>,std::allocator<char> >::basic_string<char,std::char_traits<char>,std::allocator<char> >, COMDAT
; _this$ = ecx

; 592  : 		{	// construct from [_Ptr, <null>)

  00000	55		 push	 ebp
  00001	8b ec		 mov	 ebp, esp
  00003	6a ff		 push	 -1
  00005	68 00 00 00 00	 push	 __ehhandler$??0?$basic_string@DU?$char_traits@D@std@@V?$allocator@D@2@@std@@QAE@PBD@Z
  0000a	64 a1 00 00 00
	00		 mov	 eax, DWORD PTR fs:0
  00010	50		 push	 eax
  00011	81 ec d8 00 00
	00		 sub	 esp, 216		; 000000d8H
  00017	53		 push	 ebx
  00018	56		 push	 esi
  00019	57		 push	 edi
  0001a	51		 push	 ecx
  0001b	8d bd 1c ff ff
	ff		 lea	 edi, DWORD PTR [ebp-228]
  00021	b9 36 00 00 00	 mov	 ecx, 54			; 00000036H
  00026	b8 cc cc cc cc	 mov	 eax, -858993460		; ccccccccH
  0002b	f3 ab		 rep stosd
  0002d	59		 pop	 ecx
  0002e	a1 00 00 00 00	 mov	 eax, DWORD PTR ___security_cookie
  00033	33 c5		 xor	 eax, ebp
  00035	50		 push	 eax
  00036	8d 45 f4	 lea	 eax, DWORD PTR __$EHRec$[ebp]
  00039	64 a3 00 00 00
	00		 mov	 DWORD PTR fs:0, eax
  0003f	89 4d ec	 mov	 DWORD PTR _this$[ebp], ecx
  00042	51		 push	 ecx
  00043	8b cc		 mov	 ecx, esp
  00045	89 a5 20 ff ff
	ff		 mov	 DWORD PTR $T173082[ebp], esp
  0004b	e8 00 00 00 00	 call	 ??0?$allocator@D@std@@QAE@XZ ; std::allocator<char>::allocator<char>
  00050	8b 4d ec	 mov	 ecx, DWORD PTR _this$[ebp]
  00053	e8 00 00 00 00	 call	 ??0?$_String_val@DV?$allocator@D@std@@@std@@QAE@V?$allocator@D@1@@Z ; std::_String_val<char,std::allocator<char> >::_String_val<char,std::allocator<char> >
  00058	c7 45 fc 00 00
	00 00		 mov	 DWORD PTR __$EHRec$[ebp+8], 0

; 593  : 		_Tidy();

  0005f	6a 00		 push	 0
  00061	6a 00		 push	 0
  00063	8b 4d ec	 mov	 ecx, DWORD PTR _this$[ebp]
  00066	e8 00 00 00 00	 call	 ?_Tidy@?$basic_string@DU?$char_traits@D@std@@V?$allocator@D@2@@std@@QAEX_NI@Z ; std::basic_string<char,std::char_traits<char>,std::allocator<char> >::_Tidy

; 594  : 		assign(_Ptr);

  0006b	8b 45 08	 mov	 eax, DWORD PTR __Ptr$[ebp]
  0006e	50		 push	 eax
  0006f	8b 4d ec	 mov	 ecx, DWORD PTR _this$[ebp]
  00072	e8 00 00 00 00	 call	 ?assign@?$basic_string@DU?$char_traits@D@std@@V?$allocator@D@2@@std@@QAEAAV12@PBD@Z ; std::basic_string<char,std::char_traits<char>,std::allocator<char> >::assign

; 595  : 		}

  00077	c7 45 fc ff ff
	ff ff		 mov	 DWORD PTR __$EHRec$[ebp+8], -1
  0007e	8b 45 ec	 mov	 eax, DWORD PTR _this$[ebp]
  00081	8b 4d f4	 mov	 ecx, DWORD PTR __$EHRec$[ebp]
  00084	64 89 0d 00 00
	00 00		 mov	 DWORD PTR fs:0, ecx
  0008b	59		 pop	 ecx
  0008c	5f		 pop	 edi
  0008d	5e		 pop	 esi
  0008e	5b		 pop	 ebx
  0008f	81 c4 e4 00 00
	00		 add	 esp, 228		; 000000e4H
  00095	3b ec		 cmp	 ebp, esp
  00097	e8 00 00 00 00	 call	 __RTC_CheckEsp
  0009c	8b e5		 mov	 esp, ebp
  0009e	5d		 pop	 ebp
  0009f	c2 04 00	 ret	 4
_TEXT	ENDS
;	COMDAT text$x
text$x	SEGMENT
__unwindfunclet$??0?$basic_string@DU?$char_traits@D@std@@V?$allocator@D@2@@std@@QAE@PBD@Z$0:
  00000	8b 4d ec	 mov	 ecx, DWORD PTR _this$[ebp]
  00003	e9 00 00 00 00	 jmp	 ??1?$_String_val@DV?$allocator@D@std@@@std@@QAE@XZ ; std::_String_val<char,std::allocator<char> >::~_String_val<char,std::allocator<char> >
__ehhandler$??0?$basic_string@DU?$char_traits@D@std@@V?$allocator@D@2@@std@@QAE@PBD@Z:
  00008	8b 54 24 08	 mov	 edx, DWORD PTR [esp+8]
  0000c	8d 42 0c	 lea	 eax, DWORD PTR [edx+12]
  0000f	8b 8a 18 ff ff
	ff		 mov	 ecx, DWORD PTR [edx-232]
  00015	33 c8		 xor	 ecx, eax
  00017	e8 00 00 00 00	 call	 @__security_check_cookie@4
  0001c	b8 00 00 00 00	 mov	 eax, OFFSET __ehfuncinfo$??0?$basic_string@DU?$char_traits@D@std@@V?$allocator@D@2@@std@@QAE@PBD@Z
  00021	e9 00 00 00 00	 jmp	 ___CxxFrameHandler3
text$x	ENDS
??0?$basic_string@DU?$char_traits@D@std@@V?$allocator@D@2@@std@@QAE@PBD@Z ENDP ; std::basic_string<char,std::char_traits<char>,std::allocator<char> >::basic_string<char,std::char_traits<char>,std::allocator<char> >
PUBLIC	??0?$_Tree@V?$_Tmap_traits@EPAVGameAction@ReplayTool@@U?$less@E@std@@V?$allocator@U?$pair@$$CBEPAVGameAction@ReplayTool@@@std@@@4@$0A@@std@@@std@@QAE@ABU?$less@E@1@ABV?$allocator@U?$pair@$$CBEPAVGameAction@ReplayTool@@@std@@@1@@Z ; std::_Tree<std::_Tmap_traits<unsigned char,ReplayTool::GameAction *,std::less<unsigned char>,std::allocator<std::pair<unsigned char const ,ReplayTool::GameAction *> >,0> >::_Tree<std::_Tmap_traits<unsigned char,ReplayTool::GameAction *,std::less<unsigned char>,std::allocator<std::pair<unsigned char const ,ReplayTool::GameAction *> >,0> >
PUBLIC	??0?$allocator@U?$pair@$$CBEPAVGameAction@ReplayTool@@@std@@@std@@QAE@XZ ; std::allocator<std::pair<unsigned char const ,ReplayTool::GameAction *> >::allocator<std::pair<unsigned char const ,ReplayTool::GameAction *> >
; Function compile flags: /Odtp /RTCsu /ZI
; File c:\program files (x86)\microsoft visual studio 10.0\vc\include\map
;	COMDAT ??0?$map@EPAVGameAction@ReplayTool@@U?$less@E@std@@V?$allocator@U?$pair@$$CBEPAVGameAction@ReplayTool@@@std@@@4@@std@@QAE@XZ
_TEXT	SEGMENT
$T173092 = -221						; size = 1
$T173093 = -209						; size = 1
_this$ = -8						; size = 4
??0?$map@EPAVGameAction@ReplayTool@@U?$less@E@std@@V?$allocator@U?$pair@$$CBEPAVGameAction@ReplayTool@@@std@@@4@@std@@QAE@XZ PROC ; std::map<unsigned char,ReplayTool::GameAction *,std::less<unsigned char>,std::allocator<std::pair<unsigned char const ,ReplayTool::GameAction *> > >::map<unsigned char,ReplayTool::GameAction *,std::less<unsigned char>,std::allocator<std::pair<unsigned char const ,ReplayTool::GameAction *> > >, COMDAT
; _this$ = ecx

; 106  : 		{	// construct empty map from defaults

  00000	55		 push	 ebp
  00001	8b ec		 mov	 ebp, esp
  00003	81 ec e4 00 00
	00		 sub	 esp, 228		; 000000e4H
  00009	53		 push	 ebx
  0000a	56		 push	 esi
  0000b	57		 push	 edi
  0000c	51		 push	 ecx
  0000d	8d bd 1c ff ff
	ff		 lea	 edi, DWORD PTR [ebp-228]
  00013	b9 39 00 00 00	 mov	 ecx, 57			; 00000039H
  00018	b8 cc cc cc cc	 mov	 eax, -858993460		; ccccccccH
  0001d	f3 ab		 rep stosd
  0001f	59		 pop	 ecx
  00020	89 4d f8	 mov	 DWORD PTR _this$[ebp], ecx
  00023	8d 8d 23 ff ff
	ff		 lea	 ecx, DWORD PTR $T173092[ebp]
  00029	e8 00 00 00 00	 call	 ??0?$allocator@U?$pair@$$CBEPAVGameAction@ReplayTool@@@std@@@std@@QAE@XZ ; std::allocator<std::pair<unsigned char const ,ReplayTool::GameAction *> >::allocator<std::pair<unsigned char const ,ReplayTool::GameAction *> >
  0002e	50		 push	 eax
  0002f	8d 85 2f ff ff
	ff		 lea	 eax, DWORD PTR $T173093[ebp]
  00035	50		 push	 eax
  00036	8b 4d f8	 mov	 ecx, DWORD PTR _this$[ebp]
  00039	e8 00 00 00 00	 call	 ??0?$_Tree@V?$_Tmap_traits@EPAVGameAction@ReplayTool@@U?$less@E@std@@V?$allocator@U?$pair@$$CBEPAVGameAction@ReplayTool@@@std@@@4@$0A@@std@@@std@@QAE@ABU?$less@E@1@ABV?$allocator@U?$pair@$$CBEPAVGameAction@ReplayTool@@@std@@@1@@Z ; std::_Tree<std::_Tmap_traits<unsigned char,ReplayTool::GameAction *,std::less<unsigned char>,std::allocator<std::pair<unsigned char const ,ReplayTool::GameAction *> >,0> >::_Tree<std::_Tmap_traits<unsigned char,ReplayTool::GameAction *,std::less<unsigned char>,std::allocator<std::pair<unsigned char const ,ReplayTool::GameAction *> >,0> >

; 107  : 		}

  0003e	8b 45 f8	 mov	 eax, DWORD PTR _this$[ebp]
  00041	5f		 pop	 edi
  00042	5e		 pop	 esi
  00043	5b		 pop	 ebx
  00044	81 c4 e4 00 00
	00		 add	 esp, 228		; 000000e4H
  0004a	3b ec		 cmp	 ebp, esp
  0004c	e8 00 00 00 00	 call	 __RTC_CheckEsp
  00051	8b e5		 mov	 esp, ebp
  00053	5d		 pop	 ebp
  00054	c3		 ret	 0
??0?$map@EPAVGameAction@ReplayTool@@U?$less@E@std@@V?$allocator@U?$pair@$$CBEPAVGameAction@ReplayTool@@@std@@@4@@std@@QAE@XZ ENDP ; std::map<unsigned char,ReplayTool::GameAction *,std::less<unsigned char>,std::allocator<std::pair<unsigned char const ,ReplayTool::GameAction *> > >::map<unsigned char,ReplayTool::GameAction *,std::less<unsigned char>,std::allocator<std::pair<unsigned char const ,ReplayTool::GameAction *> > >
_TEXT	ENDS
PUBLIC	??0?$_Tree_iterator@V?$_Tree_val@V?$_Tmap_traits@EPAVGameAction@ReplayTool@@U?$less@E@std@@V?$allocator@U?$pair@$$CBEPAVGameAction@ReplayTool@@@std@@@4@$0A@@std@@@std@@@std@@QAE@PAU_Node@?$_Tree_nod@V?$_Tmap_traits@EPAVGameAction@ReplayTool@@U?$less@E@std@@V?$allocator@U?$pair@$$CBEPAVGameAction@ReplayTool@@@std@@@4@$0A@@std@@@1@PBV?$_Tree_val@V?$_Tmap_traits@EPAVGameAction@ReplayTool@@U?$less@E@std@@V?$allocator@U?$pair@$$CBEPAVGameAction@ReplayTool@@@std@@@4@$0A@@std@@@1@@Z ; std::_Tree_iterator<std::_Tree_val<std::_Tmap_traits<unsigned char,ReplayTool::GameAction *,std::less<unsigned char>,std::allocator<std::pair<unsigned char const ,ReplayTool::GameAction *> >,0> > >::_Tree_iterator<std::_Tree_val<std::_Tmap_traits<unsigned char,ReplayTool::GameAction *,std::less<unsigned char>,std::allocator<std::pair<unsigned char const ,ReplayTool::GameAction *> >,0> > >
; Function compile flags: /Odtp /RTCsu /ZI
; File c:\program files (x86)\microsoft visual studio 10.0\vc\include\xtree
;	COMDAT ?end@?$_Tree@V?$_Tmap_traits@EPAVGameAction@ReplayTool@@U?$less@E@std@@V?$allocator@U?$pair@$$CBEPAVGameAction@ReplayTool@@@std@@@4@$0A@@std@@@std@@QAE?AV?$_Tree_iterator@V?$_Tree_val@V?$_Tmap_traits@EPAVGameAction@ReplayTool@@U?$less@E@std@@V?$allocator@U?$pair@$$CBEPAVGameAction@ReplayTool@@@std@@@4@$0A@@std@@@std@@@2@XZ
_TEXT	SEGMENT
$T173098 = -212						; size = 4
_this$ = -8						; size = 4
___$ReturnUdt$ = 8					; size = 4
?end@?$_Tree@V?$_Tmap_traits@EPAVGameAction@ReplayTool@@U?$less@E@std@@V?$allocator@U?$pair@$$CBEPAVGameAction@ReplayTool@@@std@@@4@$0A@@std@@@std@@QAE?AV?$_Tree_iterator@V?$_Tree_val@V?$_Tmap_traits@EPAVGameAction@ReplayTool@@U?$less@E@std@@V?$allocator@U?$pair@$$CBEPAVGameAction@ReplayTool@@@std@@@4@$0A@@std@@@std@@@2@XZ PROC ; std::_Tree<std::_Tmap_traits<unsigned char,ReplayTool::GameAction *,std::less<unsigned char>,std::allocator<std::pair<unsigned char const ,ReplayTool::GameAction *> >,0> >::end, COMDAT
; _this$ = ecx

; 816  : 		{	// return iterator for end of mutable sequence

  00000	55		 push	 ebp
  00001	8b ec		 mov	 ebp, esp
  00003	81 ec d8 00 00
	00		 sub	 esp, 216		; 000000d8H
  00009	53		 push	 ebx
  0000a	56		 push	 esi
  0000b	57		 push	 edi
  0000c	51		 push	 ecx
  0000d	8d bd 28 ff ff
	ff		 lea	 edi, DWORD PTR [ebp-216]
  00013	b9 36 00 00 00	 mov	 ecx, 54			; 00000036H
  00018	b8 cc cc cc cc	 mov	 eax, -858993460		; ccccccccH
  0001d	f3 ab		 rep stosd
  0001f	59		 pop	 ecx
  00020	89 4d f8	 mov	 DWORD PTR _this$[ebp], ecx
  00023	c7 85 2c ff ff
	ff 00 00 00 00	 mov	 DWORD PTR $T173098[ebp], 0

; 817  : 		return (iterator(this->_Myhead, this));

  0002d	8b 45 f8	 mov	 eax, DWORD PTR _this$[ebp]
  00030	50		 push	 eax
  00031	8b 4d f8	 mov	 ecx, DWORD PTR _this$[ebp]
  00034	8b 51 08	 mov	 edx, DWORD PTR [ecx+8]
  00037	52		 push	 edx
  00038	8b 4d 08	 mov	 ecx, DWORD PTR ___$ReturnUdt$[ebp]
  0003b	e8 00 00 00 00	 call	 ??0?$_Tree_iterator@V?$_Tree_val@V?$_Tmap_traits@EPAVGameAction@ReplayTool@@U?$less@E@std@@V?$allocator@U?$pair@$$CBEPAVGameAction@ReplayTool@@@std@@@4@$0A@@std@@@std@@@std@@QAE@PAU_Node@?$_Tree_nod@V?$_Tmap_traits@EPAVGameAction@ReplayTool@@U?$less@E@std@@V?$allocator@U?$pair@$$CBEPAVGameAction@ReplayTool@@@std@@@4@$0A@@std@@@1@PBV?$_Tree_val@V?$_Tmap_traits@EPAVGameAction@ReplayTool@@U?$less@E@std@@V?$allocator@U?$pair@$$CBEPAVGameAction@ReplayTool@@@std@@@4@$0A@@std@@@1@@Z ; std::_Tree_iterator<std::_Tree_val<std::_Tmap_traits<unsigned char,ReplayTool::GameAction *,std::less<unsigned char>,std::allocator<std::pair<unsigned char const ,ReplayTool::GameAction *> >,0> > >::_Tree_iterator<std::_Tree_val<std::_Tmap_traits<unsigned char,ReplayTool::GameAction *,std::less<unsigned char>,std::allocator<std::pair<unsigned char const ,ReplayTool::GameAction *> >,0> > >
  00040	8b 85 2c ff ff
	ff		 mov	 eax, DWORD PTR $T173098[ebp]
  00046	83 c8 01	 or	 eax, 1
  00049	89 85 2c ff ff
	ff		 mov	 DWORD PTR $T173098[ebp], eax
  0004f	8b 45 08	 mov	 eax, DWORD PTR ___$ReturnUdt$[ebp]

; 818  : 		}

  00052	5f		 pop	 edi
  00053	5e		 pop	 esi
  00054	5b		 pop	 ebx
  00055	81 c4 d8 00 00
	00		 add	 esp, 216		; 000000d8H
  0005b	3b ec		 cmp	 ebp, esp
  0005d	e8 00 00 00 00	 call	 __RTC_CheckEsp
  00062	8b e5		 mov	 esp, ebp
  00064	5d		 pop	 ebp
  00065	c2 04 00	 ret	 4
?end@?$_Tree@V?$_Tmap_traits@EPAVGameAction@ReplayTool@@U?$less@E@std@@V?$allocator@U?$pair@$$CBEPAVGameAction@ReplayTool@@@std@@@4@$0A@@std@@@std@@QAE?AV?$_Tree_iterator@V?$_Tree_val@V?$_Tmap_traits@EPAVGameAction@ReplayTool@@U?$less@E@std@@V?$allocator@U?$pair@$$CBEPAVGameAction@ReplayTool@@@std@@@4@$0A@@std@@@std@@@2@XZ ENDP ; std::_Tree<std::_Tmap_traits<unsigned char,ReplayTool::GameAction *,std::less<unsigned char>,std::allocator<std::pair<unsigned char const ,ReplayTool::GameAction *> >,0> >::end
_TEXT	ENDS
PUBLIC	??0?$_Tree_iterator@V?$_Tree_val@V?$_Tmap_traits@EPAVGameAction@ReplayTool@@U?$less@E@std@@V?$allocator@U?$pair@$$CBEPAVGameAction@ReplayTool@@@std@@@4@$0A@@std@@@std@@@std@@QAE@ABV01@@Z ; std::_Tree_iterator<std::_Tree_val<std::_Tmap_traits<unsigned char,ReplayTool::GameAction *,std::less<unsigned char>,std::allocator<std::pair<unsigned char const ,ReplayTool::GameAction *> >,0> > >::_Tree_iterator<std::_Tree_val<std::_Tmap_traits<unsigned char,ReplayTool::GameAction *,std::less<unsigned char>,std::allocator<std::pair<unsigned char const ,ReplayTool::GameAction *> >,0> > >
PUBLIC	??$_Debug_lt_pred@U?$less@E@std@@EE@std@@YA_NU?$less@E@0@ABEAAEPB_WI@Z ; std::_Debug_lt_pred<std::less<unsigned char>,unsigned char,unsigned char>
PUBLIC	?_Key@?$_Tree_val@V?$_Tmap_traits@EPAVGameAction@ReplayTool@@U?$less@E@std@@V?$allocator@U?$pair@$$CBEPAVGameAction@ReplayTool@@@std@@@4@$0A@@std@@@std@@SAAAEPAU_Node@?$_Tree_nod@V?$_Tmap_traits@EPAVGameAction@ReplayTool@@U?$less@E@std@@V?$allocator@U?$pair@$$CBEPAVGameAction@ReplayTool@@@std@@@4@$0A@@std@@@2@@Z ; std::_Tree_val<std::_Tmap_traits<unsigned char,ReplayTool::GameAction *,std::less<unsigned char>,std::allocator<std::pair<unsigned char const ,ReplayTool::GameAction *> >,0> >::_Key
PUBLIC	?_Mynode@?$_Tree_unchecked_const_iterator@V?$_Tree_val@V?$_Tmap_traits@EPAVGameAction@ReplayTool@@U?$less@E@std@@V?$allocator@U?$pair@$$CBEPAVGameAction@ReplayTool@@@std@@@4@$0A@@std@@@std@@U_Iterator_base12@2@@std@@QBEPAU_Node@?$_Tree_nod@V?$_Tmap_traits@EPAVGameAction@ReplayTool@@U?$less@E@std@@V?$allocator@U?$pair@$$CBEPAVGameAction@ReplayTool@@@std@@@4@$0A@@std@@@2@XZ ; std::_Tree_unchecked_const_iterator<std::_Tree_val<std::_Tmap_traits<unsigned char,ReplayTool::GameAction *,std::less<unsigned char>,std::allocator<std::pair<unsigned char const ,ReplayTool::GameAction *> >,0> >,std::_Iterator_base12>::_Mynode
PUBLIC	??_C@_1IK@OIAMDBCK@?$AAc?$AA?3?$AA?2?$AAp?$AAr?$AAo?$AAg?$AAr?$AAa?$AAm?$AA?5?$AAf?$AAi?$AAl?$AAe?$AAs?$AA?5?$AA?$CI?$AAx?$AA8?$AA6?$AA?$CJ?$AA?2?$AAm?$AAi?$AAc?$AAr?$AAo?$AAs?$AAo?$AAf?$AAt@ ; `string'
PUBLIC	?lower_bound@?$_Tree@V?$_Tmap_traits@EPAVGameAction@ReplayTool@@U?$less@E@std@@V?$allocator@U?$pair@$$CBEPAVGameAction@ReplayTool@@@std@@@4@$0A@@std@@@std@@QAE?AV?$_Tree_iterator@V?$_Tree_val@V?$_Tmap_traits@EPAVGameAction@ReplayTool@@U?$less@E@std@@V?$allocator@U?$pair@$$CBEPAVGameAction@ReplayTool@@@std@@@4@$0A@@std@@@std@@@2@ABE@Z ; std::_Tree<std::_Tmap_traits<unsigned char,ReplayTool::GameAction *,std::less<unsigned char>,std::allocator<std::pair<unsigned char const ,ReplayTool::GameAction *> >,0> >::lower_bound
;	COMDAT ??_C@_1IK@OIAMDBCK@?$AAc?$AA?3?$AA?2?$AAp?$AAr?$AAo?$AAg?$AAr?$AAa?$AAm?$AA?5?$AAf?$AAi?$AAl?$AAe?$AAs?$AA?5?$AA?$CI?$AAx?$AA8?$AA6?$AA?$CJ?$AA?2?$AAm?$AAi?$AAc?$AAr?$AAo?$AAs?$AAo?$AAf?$AAt@
CONST	SEGMENT
??_C@_1IK@OIAMDBCK@?$AAc?$AA?3?$AA?2?$AAp?$AAr?$AAo?$AAg?$AAr?$AAa?$AAm?$AA?5?$AAf?$AAi?$AAl?$AAe?$AAs?$AA?5?$AA?$CI?$AAx?$AA8?$AA6?$AA?$CJ?$AA?2?$AAm?$AAi?$AAc?$AAr?$AAo?$AAs?$AAo?$AAf?$AAt@ DB 'c'
	DB	00H, ':', 00H, '\', 00H, 'p', 00H, 'r', 00H, 'o', 00H, 'g', 00H
	DB	'r', 00H, 'a', 00H, 'm', 00H, ' ', 00H, 'f', 00H, 'i', 00H, 'l'
	DB	00H, 'e', 00H, 's', 00H, ' ', 00H, '(', 00H, 'x', 00H, '8', 00H
	DB	'6', 00H, ')', 00H, '\', 00H, 'm', 00H, 'i', 00H, 'c', 00H, 'r'
	DB	00H, 'o', 00H, 's', 00H, 'o', 00H, 'f', 00H, 't', 00H, ' ', 00H
	DB	'v', 00H, 'i', 00H, 's', 00H, 'u', 00H, 'a', 00H, 'l', 00H, ' '
	DB	00H, 's', 00H, 't', 00H, 'u', 00H, 'd', 00H, 'i', 00H, 'o', 00H
	DB	' ', 00H, '1', 00H, '0', 00H, '.', 00H, '0', 00H, '\', 00H, 'v'
	DB	00H, 'c', 00H, '\', 00H, 'i', 00H, 'n', 00H, 'c', 00H, 'l', 00H
	DB	'u', 00H, 'd', 00H, 'e', 00H, '\', 00H, 'x', 00H, 't', 00H, 'r'
	DB	00H, 'e', 00H, 'e', 00H, 00H, 00H		; `string'
CONST	ENDS
;	COMDAT xdata$x
xdata$x	SEGMENT
__ehfuncinfo$?find@?$_Tree@V?$_Tmap_traits@EPAVGameAction@ReplayTool@@U?$less@E@std@@V?$allocator@U?$pair@$$CBEPAVGameAction@ReplayTool@@@std@@@4@$0A@@std@@@std@@QAE?AV?$_Tree_iterator@V?$_Tree_val@V?$_Tmap_traits@EPAVGameAction@ReplayTool@@U?$less@E@std@@V?$allocator@U?$pair@$$CBEPAVGameAction@ReplayTool@@@std@@@4@$0A@@std@@@std@@@2@ABE@Z DD 019930522H
	DD	05H
	DD	FLAT:__unwindtable$?find@?$_Tree@V?$_Tmap_traits@EPAVGameAction@ReplayTool@@U?$less@E@std@@V?$allocator@U?$pair@$$CBEPAVGameAction@ReplayTool@@@std@@@4@$0A@@std@@@std@@QAE?AV?$_Tree_iterator@V?$_Tree_val@V?$_Tmap_traits@EPAVGameAction@ReplayTool@@U?$less@E@std@@V?$allocator@U?$pair@$$CBEPAVGameAction@ReplayTool@@@std@@@4@$0A@@std@@@std@@@2@ABE@Z
	DD	2 DUP(00H)
	DD	2 DUP(00H)
	DD	00H
	DD	01H
__unwindtable$?find@?$_Tree@V?$_Tmap_traits@EPAVGameAction@ReplayTool@@U?$less@E@std@@V?$allocator@U?$pair@$$CBEPAVGameAction@ReplayTool@@@std@@@4@$0A@@std@@@std@@QAE?AV?$_Tree_iterator@V?$_Tree_val@V?$_Tmap_traits@EPAVGameAction@ReplayTool@@U?$less@E@std@@V?$allocator@U?$pair@$$CBEPAVGameAction@ReplayTool@@@std@@@4@$0A@@std@@@std@@@2@ABE@Z DD 0ffffffffH
	DD	FLAT:__unwindfunclet$?find@?$_Tree@V?$_Tmap_traits@EPAVGameAction@ReplayTool@@U?$less@E@std@@V?$allocator@U?$pair@$$CBEPAVGameAction@ReplayTool@@@std@@@4@$0A@@std@@@std@@QAE?AV?$_Tree_iterator@V?$_Tree_val@V?$_Tmap_traits@EPAVGameAction@ReplayTool@@U?$less@E@std@@V?$allocator@U?$pair@$$CBEPAVGameAction@ReplayTool@@@std@@@4@$0A@@std@@@std@@@2@ABE@Z$4
	DD	00H
	DD	FLAT:__unwindfunclet$?find@?$_Tree@V?$_Tmap_traits@EPAVGameAction@ReplayTool@@U?$less@E@std@@V?$allocator@U?$pair@$$CBEPAVGameAction@ReplayTool@@@std@@@4@$0A@@std@@@std@@QAE?AV?$_Tree_iterator@V?$_Tree_val@V?$_Tmap_traits@EPAVGameAction@ReplayTool@@U?$less@E@std@@V?$allocator@U?$pair@$$CBEPAVGameAction@ReplayTool@@@std@@@4@$0A@@std@@@std@@@2@ABE@Z$0
	DD	01H
	DD	FLAT:__unwindfunclet$?find@?$_Tree@V?$_Tmap_traits@EPAVGameAction@ReplayTool@@U?$less@E@std@@V?$allocator@U?$pair@$$CBEPAVGameAction@ReplayTool@@@std@@@4@$0A@@std@@@std@@QAE?AV?$_Tree_iterator@V?$_Tree_val@V?$_Tmap_traits@EPAVGameAction@ReplayTool@@U?$less@E@std@@V?$allocator@U?$pair@$$CBEPAVGameAction@ReplayTool@@@std@@@4@$0A@@std@@@std@@@2@ABE@Z$1
	DD	02H
	DD	FLAT:__unwindfunclet$?find@?$_Tree@V?$_Tmap_traits@EPAVGameAction@ReplayTool@@U?$less@E@std@@V?$allocator@U?$pair@$$CBEPAVGameAction@ReplayTool@@@std@@@4@$0A@@std@@@std@@QAE?AV?$_Tree_iterator@V?$_Tree_val@V?$_Tmap_traits@EPAVGameAction@ReplayTool@@U?$less@E@std@@V?$allocator@U?$pair@$$CBEPAVGameAction@ReplayTool@@@std@@@4@$0A@@std@@@std@@@2@ABE@Z$2
	DD	03H
	DD	FLAT:__unwindfunclet$?find@?$_Tree@V?$_Tmap_traits@EPAVGameAction@ReplayTool@@U?$less@E@std@@V?$allocator@U?$pair@$$CBEPAVGameAction@ReplayTool@@@std@@@4@$0A@@std@@@std@@QAE?AV?$_Tree_iterator@V?$_Tree_val@V?$_Tmap_traits@EPAVGameAction@ReplayTool@@U?$less@E@std@@V?$allocator@U?$pair@$$CBEPAVGameAction@ReplayTool@@@std@@@4@$0A@@std@@@std@@@2@ABE@Z$3
; Function compile flags: /Odtp /RTCsu /ZI
xdata$x	ENDS
;	COMDAT ?find@?$_Tree@V?$_Tmap_traits@EPAVGameAction@ReplayTool@@U?$less@E@std@@V?$allocator@U?$pair@$$CBEPAVGameAction@ReplayTool@@@std@@@4@$0A@@std@@@std@@QAE?AV?$_Tree_iterator@V?$_Tree_val@V?$_Tmap_traits@EPAVGameAction@ReplayTool@@U?$less@E@std@@V?$allocator@U?$pair@$$CBEPAVGameAction@ReplayTool@@@std@@@4@$0A@@std@@@std@@@2@ABE@Z
_TEXT	SEGMENT
tv170 = -348						; size = 4
tv185 = -344						; size = 4
tv152 = -340						; size = 4
tv165 = -336						; size = 4
tv183 = -332						; size = 4
tv160 = -328						; size = 4
tv65 = -324						; size = 4
$T173102 = -316						; size = 4
$T173103 = -304						; size = 12
$T173105 = -284						; size = 12
$T173106 = -264						; size = 12
$T173109 = -244						; size = 4
__Where$ = -40						; size = 12
_this$ = -20						; size = 4
__$EHRec$ = -12						; size = 12
___$ReturnUdt$ = 8					; size = 4
__Keyval$ = 12						; size = 4
?find@?$_Tree@V?$_Tmap_traits@EPAVGameAction@ReplayTool@@U?$less@E@std@@V?$allocator@U?$pair@$$CBEPAVGameAction@ReplayTool@@@std@@@4@$0A@@std@@@std@@QAE?AV?$_Tree_iterator@V?$_Tree_val@V?$_Tmap_traits@EPAVGameAction@ReplayTool@@U?$less@E@std@@V?$allocator@U?$pair@$$CBEPAVGameAction@ReplayTool@@@std@@@4@$0A@@std@@@std@@@2@ABE@Z PROC ; std::_Tree<std::_Tmap_traits<unsigned char,ReplayTool::GameAction *,std::less<unsigned char>,std::allocator<std::pair<unsigned char const ,ReplayTool::GameAction *> >,0> >::find, COMDAT
; _this$ = ecx

; 1423 : 		{	// find an element in mutable sequence that matches _Keyval

  00000	55		 push	 ebp
  00001	8b ec		 mov	 ebp, esp
  00003	6a ff		 push	 -1
  00005	68 00 00 00 00	 push	 __ehhandler$?find@?$_Tree@V?$_Tmap_traits@EPAVGameAction@ReplayTool@@U?$less@E@std@@V?$allocator@U?$pair@$$CBEPAVGameAction@ReplayTool@@@std@@@4@$0A@@std@@@std@@QAE?AV?$_Tree_iterator@V?$_Tree_val@V?$_Tmap_traits@EPAVGameAction@ReplayTool@@U?$less@E@std@@V?$allocator@U?$pair@$$CBEPAVGameAction@ReplayTool@@@std@@@4@$0A@@std@@@std@@@2@ABE@Z
  0000a	64 a1 00 00 00
	00		 mov	 eax, DWORD PTR fs:0
  00010	50		 push	 eax
  00011	81 ec 50 01 00
	00		 sub	 esp, 336		; 00000150H
  00017	53		 push	 ebx
  00018	56		 push	 esi
  00019	57		 push	 edi
  0001a	51		 push	 ecx
  0001b	8d bd a4 fe ff
	ff		 lea	 edi, DWORD PTR [ebp-348]
  00021	b9 54 00 00 00	 mov	 ecx, 84			; 00000054H
  00026	b8 cc cc cc cc	 mov	 eax, -858993460		; ccccccccH
  0002b	f3 ab		 rep stosd
  0002d	59		 pop	 ecx
  0002e	a1 00 00 00 00	 mov	 eax, DWORD PTR ___security_cookie
  00033	33 c5		 xor	 eax, ebp
  00035	50		 push	 eax
  00036	8d 45 f4	 lea	 eax, DWORD PTR __$EHRec$[ebp]
  00039	64 a3 00 00 00
	00		 mov	 DWORD PTR fs:0, eax
  0003f	89 4d ec	 mov	 DWORD PTR _this$[ebp], ecx
  00042	c7 85 0c ff ff
	ff 00 00 00 00	 mov	 DWORD PTR $T173109[ebp], 0

; 1424 : 		iterator _Where = lower_bound(_Keyval);

  0004c	8b 45 0c	 mov	 eax, DWORD PTR __Keyval$[ebp]
  0004f	50		 push	 eax
  00050	8d 4d d8	 lea	 ecx, DWORD PTR __Where$[ebp]
  00053	51		 push	 ecx
  00054	8b 4d ec	 mov	 ecx, DWORD PTR _this$[ebp]
  00057	e8 00 00 00 00	 call	 ?lower_bound@?$_Tree@V?$_Tmap_traits@EPAVGameAction@ReplayTool@@U?$less@E@std@@V?$allocator@U?$pair@$$CBEPAVGameAction@ReplayTool@@@std@@@4@$0A@@std@@@std@@QAE?AV?$_Tree_iterator@V?$_Tree_val@V?$_Tmap_traits@EPAVGameAction@ReplayTool@@U?$less@E@std@@V?$allocator@U?$pair@$$CBEPAVGameAction@ReplayTool@@@std@@@4@$0A@@std@@@std@@@2@ABE@Z ; std::_Tree<std::_Tmap_traits<unsigned char,ReplayTool::GameAction *,std::less<unsigned char>,std::allocator<std::pair<unsigned char const ,ReplayTool::GameAction *> >,0> >::lower_bound
  0005c	c7 45 fc 01 00
	00 00		 mov	 DWORD PTR __$EHRec$[ebp+8], 1

; 1425 : 		return (_Where == end()
; 1426 : 			|| _DEBUG_LT_PRED(this->comp,
; 1427 : 				_Keyval, this->_Key(_Where._Mynode()))
; 1428 : 					? end() : _Where);

  00063	8d 85 d0 fe ff
	ff		 lea	 eax, DWORD PTR $T173103[ebp]
  00069	50		 push	 eax
  0006a	8b 4d ec	 mov	 ecx, DWORD PTR _this$[ebp]
  0006d	e8 00 00 00 00	 call	 ?end@?$_Tree@V?$_Tmap_traits@EPAVGameAction@ReplayTool@@U?$less@E@std@@V?$allocator@U?$pair@$$CBEPAVGameAction@ReplayTool@@@std@@@4@$0A@@std@@@std@@QAE?AV?$_Tree_iterator@V?$_Tree_val@V?$_Tmap_traits@EPAVGameAction@ReplayTool@@U?$less@E@std@@V?$allocator@U?$pair@$$CBEPAVGameAction@ReplayTool@@@std@@@4@$0A@@std@@@std@@@2@XZ ; std::_Tree<std::_Tmap_traits<unsigned char,ReplayTool::GameAction *,std::less<unsigned char>,std::allocator<std::pair<unsigned char const ,ReplayTool::GameAction *> >,0> >::end
  00072	89 85 bc fe ff
	ff		 mov	 DWORD PTR tv65[ebp], eax
  00078	8b 8d bc fe ff
	ff		 mov	 ecx, DWORD PTR tv65[ebp]
  0007e	89 8d b8 fe ff
	ff		 mov	 DWORD PTR tv160[ebp], ecx
  00084	c6 45 fc 02	 mov	 BYTE PTR __$EHRec$[ebp+8], 2
  00088	8b 95 0c ff ff
	ff		 mov	 edx, DWORD PTR $T173109[ebp]
  0008e	83 ca 01	 or	 edx, 1
  00091	89 95 0c ff ff
	ff		 mov	 DWORD PTR $T173109[ebp], edx
  00097	8b 85 b8 fe ff
	ff		 mov	 eax, DWORD PTR tv160[ebp]
  0009d	50		 push	 eax
  0009e	8d 4d d8	 lea	 ecx, DWORD PTR __Where$[ebp]
  000a1	e8 00 00 00 00	 call	 ??8?$_Tree_const_iterator@V?$_Tree_val@V?$_Tmap_traits@EPAVGameAction@ReplayTool@@U?$less@E@std@@V?$allocator@U?$pair@$$CBEPAVGameAction@ReplayTool@@@std@@@4@$0A@@std@@@std@@@std@@QBE_NABV01@@Z ; std::_Tree_const_iterator<std::_Tree_val<std::_Tmap_traits<unsigned char,ReplayTool::GameAction *,std::less<unsigned char>,std::allocator<std::pair<unsigned char const ,ReplayTool::GameAction *> >,0> > >::operator==
  000a6	0f b6 c8	 movzx	 ecx, al
  000a9	85 c9		 test	 ecx, ecx
  000ab	75 7c		 jne	 SHORT $LN3@find
  000ad	68 93 05 00 00	 push	 1427			; 00000593H
  000b2	68 00 00 00 00	 push	 OFFSET ??_C@_1IK@OIAMDBCK@?$AAc?$AA?3?$AA?2?$AAp?$AAr?$AAo?$AAg?$AAr?$AAa?$AAm?$AA?5?$AAf?$AAi?$AAl?$AAe?$AAs?$AA?5?$AA?$CI?$AAx?$AA8?$AA6?$AA?$CJ?$AA?2?$AAm?$AAi?$AAc?$AAr?$AAo?$AAs?$AAo?$AAf?$AAt@
  000b7	8d 4d d8	 lea	 ecx, DWORD PTR __Where$[ebp]
  000ba	e8 00 00 00 00	 call	 ?_Mynode@?$_Tree_unchecked_const_iterator@V?$_Tree_val@V?$_Tmap_traits@EPAVGameAction@ReplayTool@@U?$less@E@std@@V?$allocator@U?$pair@$$CBEPAVGameAction@ReplayTool@@@std@@@4@$0A@@std@@@std@@U_Iterator_base12@2@@std@@QBEPAU_Node@?$_Tree_nod@V?$_Tmap_traits@EPAVGameAction@ReplayTool@@U?$less@E@std@@V?$allocator@U?$pair@$$CBEPAVGameAction@ReplayTool@@@std@@@4@$0A@@std@@@2@XZ ; std::_Tree_unchecked_const_iterator<std::_Tree_val<std::_Tmap_traits<unsigned char,ReplayTool::GameAction *,std::less<unsigned char>,std::allocator<std::pair<unsigned char const ,ReplayTool::GameAction *> >,0> >,std::_Iterator_base12>::_Mynode
  000bf	50		 push	 eax
  000c0	e8 00 00 00 00	 call	 ?_Key@?$_Tree_val@V?$_Tmap_traits@EPAVGameAction@ReplayTool@@U?$less@E@std@@V?$allocator@U?$pair@$$CBEPAVGameAction@ReplayTool@@@std@@@4@$0A@@std@@@std@@SAAAEPAU_Node@?$_Tree_nod@V?$_Tmap_traits@EPAVGameAction@ReplayTool@@U?$less@E@std@@V?$allocator@U?$pair@$$CBEPAVGameAction@ReplayTool@@@std@@@4@$0A@@std@@@2@@Z ; std::_Tree_val<std::_Tmap_traits<unsigned char,ReplayTool::GameAction *,std::less<unsigned char>,std::allocator<std::pair<unsigned char const ,ReplayTool::GameAction *> >,0> >::_Key
  000c5	83 c4 04	 add	 esp, 4
  000c8	50		 push	 eax
  000c9	8b 55 0c	 mov	 edx, DWORD PTR __Keyval$[ebp]
  000cc	52		 push	 edx
  000cd	8b 45 ec	 mov	 eax, DWORD PTR _this$[ebp]
  000d0	0f b6 48 04	 movzx	 ecx, BYTE PTR [eax+4]
  000d4	51		 push	 ecx
  000d5	e8 00 00 00 00	 call	 ??$_Debug_lt_pred@U?$less@E@std@@EE@std@@YA_NU?$less@E@0@ABEAAEPB_WI@Z ; std::_Debug_lt_pred<std::less<unsigned char>,unsigned char,unsigned char>
  000da	83 c4 14	 add	 esp, 20			; 00000014H
  000dd	0f b6 d0	 movzx	 edx, al
  000e0	85 d2		 test	 edx, edx
  000e2	75 45		 jne	 SHORT $LN3@find
  000e4	8d 45 d8	 lea	 eax, DWORD PTR __Where$[ebp]
  000e7	50		 push	 eax
  000e8	8d 8d f8 fe ff
	ff		 lea	 ecx, DWORD PTR $T173106[ebp]
  000ee	e8 00 00 00 00	 call	 ??0?$_Tree_iterator@V?$_Tree_val@V?$_Tmap_traits@EPAVGameAction@ReplayTool@@U?$less@E@std@@V?$allocator@U?$pair@$$CBEPAVGameAction@ReplayTool@@@std@@@4@$0A@@std@@@std@@@std@@QAE@ABV01@@Z
  000f3	89 85 b4 fe ff
	ff		 mov	 DWORD PTR tv183[ebp], eax
  000f9	8b 8d b4 fe ff
	ff		 mov	 ecx, DWORD PTR tv183[ebp]
  000ff	89 8d b0 fe ff
	ff		 mov	 DWORD PTR tv165[ebp], ecx
  00105	c7 45 fc 03 00
	00 00		 mov	 DWORD PTR __$EHRec$[ebp+8], 3
  0010c	8b 95 0c ff ff
	ff		 mov	 edx, DWORD PTR $T173109[ebp]
  00112	83 ca 02	 or	 edx, 2
  00115	89 95 0c ff ff
	ff		 mov	 DWORD PTR $T173109[ebp], edx
  0011b	8b 85 b0 fe ff
	ff		 mov	 eax, DWORD PTR tv165[ebp]
  00121	89 85 ac fe ff
	ff		 mov	 DWORD PTR tv152[ebp], eax
  00127	eb 43		 jmp	 SHORT $LN4@find
$LN3@find:
  00129	8d 8d e4 fe ff
	ff		 lea	 ecx, DWORD PTR $T173105[ebp]
  0012f	51		 push	 ecx
  00130	8b 4d ec	 mov	 ecx, DWORD PTR _this$[ebp]
  00133	e8 00 00 00 00	 call	 ?end@?$_Tree@V?$_Tmap_traits@EPAVGameAction@ReplayTool@@U?$less@E@std@@V?$allocator@U?$pair@$$CBEPAVGameAction@ReplayTool@@@std@@@4@$0A@@std@@@std@@QAE?AV?$_Tree_iterator@V?$_Tree_val@V?$_Tmap_traits@EPAVGameAction@ReplayTool@@U?$less@E@std@@V?$allocator@U?$pair@$$CBEPAVGameAction@ReplayTool@@@std@@@4@$0A@@std@@@std@@@2@XZ ; std::_Tree<std::_Tmap_traits<unsigned char,ReplayTool::GameAction *,std::less<unsigned char>,std::allocator<std::pair<unsigned char const ,ReplayTool::GameAction *> >,0> >::end
  00138	89 85 a8 fe ff
	ff		 mov	 DWORD PTR tv185[ebp], eax
  0013e	8b 95 a8 fe ff
	ff		 mov	 edx, DWORD PTR tv185[ebp]
  00144	89 95 a4 fe ff
	ff		 mov	 DWORD PTR tv170[ebp], edx
  0014a	c7 45 fc 04 00
	00 00		 mov	 DWORD PTR __$EHRec$[ebp+8], 4
  00151	8b 85 0c ff ff
	ff		 mov	 eax, DWORD PTR $T173109[ebp]
  00157	83 c8 04	 or	 eax, 4
  0015a	89 85 0c ff ff
	ff		 mov	 DWORD PTR $T173109[ebp], eax
  00160	8b 8d a4 fe ff
	ff		 mov	 ecx, DWORD PTR tv170[ebp]
  00166	89 8d ac fe ff
	ff		 mov	 DWORD PTR tv152[ebp], ecx
$LN4@find:
  0016c	8b 95 ac fe ff
	ff		 mov	 edx, DWORD PTR tv152[ebp]
  00172	89 95 c4 fe ff
	ff		 mov	 DWORD PTR $T173102[ebp], edx
  00178	8b 85 c4 fe ff
	ff		 mov	 eax, DWORD PTR $T173102[ebp]
  0017e	50		 push	 eax
  0017f	8b 4d 08	 mov	 ecx, DWORD PTR ___$ReturnUdt$[ebp]
  00182	e8 00 00 00 00	 call	 ??0?$_Tree_iterator@V?$_Tree_val@V?$_Tmap_traits@EPAVGameAction@ReplayTool@@U?$less@E@std@@V?$allocator@U?$pair@$$CBEPAVGameAction@ReplayTool@@@std@@@4@$0A@@std@@@std@@@std@@QAE@ABV01@@Z
  00187	8b 8d 0c ff ff
	ff		 mov	 ecx, DWORD PTR $T173109[ebp]
  0018d	83 c9 08	 or	 ecx, 8
  00190	89 8d 0c ff ff
	ff		 mov	 DWORD PTR $T173109[ebp], ecx
  00196	c7 45 fc 03 00
	00 00		 mov	 DWORD PTR __$EHRec$[ebp+8], 3
  0019d	8b 95 0c ff ff
	ff		 mov	 edx, DWORD PTR $T173109[ebp]
  001a3	83 e2 04	 and	 edx, 4
  001a6	74 12		 je	 SHORT $LN14@find
  001a8	83 a5 0c ff ff
	ff fb		 and	 DWORD PTR $T173109[ebp], -5 ; fffffffbH
  001af	8d 8d e4 fe ff
	ff		 lea	 ecx, DWORD PTR $T173105[ebp]
  001b5	e8 00 00 00 00	 call	 ??1?$_Tree_iterator@V?$_Tree_val@V?$_Tmap_traits@EPAVGameAction@ReplayTool@@U?$less@E@std@@V?$allocator@U?$pair@$$CBEPAVGameAction@ReplayTool@@@std@@@4@$0A@@std@@@std@@@std@@QAE@XZ
$LN14@find:
  001ba	c7 45 fc 02 00
	00 00		 mov	 DWORD PTR __$EHRec$[ebp+8], 2
  001c1	8b 85 0c ff ff
	ff		 mov	 eax, DWORD PTR $T173109[ebp]
  001c7	83 e0 02	 and	 eax, 2
  001ca	74 12		 je	 SHORT $LN15@find
  001cc	83 a5 0c ff ff
	ff fd		 and	 DWORD PTR $T173109[ebp], -3 ; fffffffdH
  001d3	8d 8d f8 fe ff
	ff		 lea	 ecx, DWORD PTR $T173106[ebp]
  001d9	e8 00 00 00 00	 call	 ??1?$_Tree_iterator@V?$_Tree_val@V?$_Tmap_traits@EPAVGameAction@ReplayTool@@U?$less@E@std@@V?$allocator@U?$pair@$$CBEPAVGameAction@ReplayTool@@@std@@@4@$0A@@std@@@std@@@std@@QAE@XZ
$LN15@find:
  001de	c7 45 fc 01 00
	00 00		 mov	 DWORD PTR __$EHRec$[ebp+8], 1
  001e5	8b 8d 0c ff ff
	ff		 mov	 ecx, DWORD PTR $T173109[ebp]
  001eb	83 e1 01	 and	 ecx, 1
  001ee	74 12		 je	 SHORT $LN16@find
  001f0	83 a5 0c ff ff
	ff fe		 and	 DWORD PTR $T173109[ebp], -2 ; fffffffeH
  001f7	8d 8d d0 fe ff
	ff		 lea	 ecx, DWORD PTR $T173103[ebp]
  001fd	e8 00 00 00 00	 call	 ??1?$_Tree_iterator@V?$_Tree_val@V?$_Tmap_traits@EPAVGameAction@ReplayTool@@U?$less@E@std@@V?$allocator@U?$pair@$$CBEPAVGameAction@ReplayTool@@@std@@@4@$0A@@std@@@std@@@std@@QAE@XZ
$LN16@find:
  00202	c6 45 fc 00	 mov	 BYTE PTR __$EHRec$[ebp+8], 0
  00206	8d 4d d8	 lea	 ecx, DWORD PTR __Where$[ebp]
  00209	e8 00 00 00 00	 call	 ??1?$_Tree_iterator@V?$_Tree_val@V?$_Tmap_traits@EPAVGameAction@ReplayTool@@U?$less@E@std@@V?$allocator@U?$pair@$$CBEPAVGameAction@ReplayTool@@@std@@@4@$0A@@std@@@std@@@std@@QAE@XZ
  0020e	8b 45 08	 mov	 eax, DWORD PTR ___$ReturnUdt$[ebp]

; 1429 : 		}

  00211	52		 push	 edx
  00212	8b cd		 mov	 ecx, ebp
  00214	50		 push	 eax
  00215	8d 15 00 00 00
	00		 lea	 edx, DWORD PTR $LN20@find
  0021b	e8 00 00 00 00	 call	 @_RTC_CheckStackVars@8
  00220	58		 pop	 eax
  00221	5a		 pop	 edx
  00222	8b 4d f4	 mov	 ecx, DWORD PTR __$EHRec$[ebp]
  00225	64 89 0d 00 00
	00 00		 mov	 DWORD PTR fs:0, ecx
  0022c	59		 pop	 ecx
  0022d	5f		 pop	 edi
  0022e	5e		 pop	 esi
  0022f	5b		 pop	 ebx
  00230	81 c4 5c 01 00
	00		 add	 esp, 348		; 0000015cH
  00236	3b ec		 cmp	 ebp, esp
  00238	e8 00 00 00 00	 call	 __RTC_CheckEsp
  0023d	8b e5		 mov	 esp, ebp
  0023f	5d		 pop	 ebp
  00240	c2 08 00	 ret	 8
  00243	90		 npad	 1
$LN20@find:
  00244	01 00 00 00	 DD	 1
  00248	00 00 00 00	 DD	 $LN19@find
$LN19@find:
  0024c	d8 ff ff ff	 DD	 -40			; ffffffd8H
  00250	0c 00 00 00	 DD	 12			; 0000000cH
  00254	00 00 00 00	 DD	 $LN17@find
$LN17@find:
  00258	5f		 DB	 95			; 0000005fH
  00259	57		 DB	 87			; 00000057H
  0025a	68		 DB	 104			; 00000068H
  0025b	65		 DB	 101			; 00000065H
  0025c	72		 DB	 114			; 00000072H
  0025d	65		 DB	 101			; 00000065H
  0025e	00		 DB	 0
_TEXT	ENDS
;	COMDAT text$x
text$x	SEGMENT
__unwindfunclet$?find@?$_Tree@V?$_Tmap_traits@EPAVGameAction@ReplayTool@@U?$less@E@std@@V?$allocator@U?$pair@$$CBEPAVGameAction@ReplayTool@@@std@@@4@$0A@@std@@@std@@QAE?AV?$_Tree_iterator@V?$_Tree_val@V?$_Tmap_traits@EPAVGameAction@ReplayTool@@U?$less@E@std@@V?$allocator@U?$pair@$$CBEPAVGameAction@ReplayTool@@@std@@@4@$0A@@std@@@std@@@2@ABE@Z$0:
  00000	8d 4d d8	 lea	 ecx, DWORD PTR __Where$[ebp]
  00003	e9 00 00 00 00	 jmp	 ??1?$_Tree_iterator@V?$_Tree_val@V?$_Tmap_traits@EPAVGameAction@ReplayTool@@U?$less@E@std@@V?$allocator@U?$pair@$$CBEPAVGameAction@ReplayTool@@@std@@@4@$0A@@std@@@std@@@std@@QAE@XZ
__unwindfunclet$?find@?$_Tree@V?$_Tmap_traits@EPAVGameAction@ReplayTool@@U?$less@E@std@@V?$allocator@U?$pair@$$CBEPAVGameAction@ReplayTool@@@std@@@4@$0A@@std@@@std@@QAE?AV?$_Tree_iterator@V?$_Tree_val@V?$_Tmap_traits@EPAVGameAction@ReplayTool@@U?$less@E@std@@V?$allocator@U?$pair@$$CBEPAVGameAction@ReplayTool@@@std@@@4@$0A@@std@@@std@@@2@ABE@Z$1:
  00008	8b 85 0c ff ff
	ff		 mov	 eax, DWORD PTR $T173109[ebp]
  0000e	83 e0 01	 and	 eax, 1
  00011	0f 84 12 00 00
	00		 je	 $LN7@find
  00017	83 a5 0c ff ff
	ff fe		 and	 DWORD PTR $T173109[ebp], -2 ; fffffffeH
  0001e	8d 8d d0 fe ff
	ff		 lea	 ecx, DWORD PTR $T173103[ebp]
  00024	e9 00 00 00 00	 jmp	 ??1?$_Tree_iterator@V?$_Tree_val@V?$_Tmap_traits@EPAVGameAction@ReplayTool@@U?$less@E@std@@V?$allocator@U?$pair@$$CBEPAVGameAction@ReplayTool@@@std@@@4@$0A@@std@@@std@@@std@@QAE@XZ
$LN7@find:
  00029	c3		 ret	 0
__unwindfunclet$?find@?$_Tree@V?$_Tmap_traits@EPAVGameAction@ReplayTool@@U?$less@E@std@@V?$allocator@U?$pair@$$CBEPAVGameAction@ReplayTool@@@std@@@4@$0A@@std@@@std@@QAE?AV?$_Tree_iterator@V?$_Tree_val@V?$_Tmap_traits@EPAVGameAction@ReplayTool@@U?$less@E@std@@V?$allocator@U?$pair@$$CBEPAVGameAction@ReplayTool@@@std@@@4@$0A@@std@@@std@@@2@ABE@Z$2:
  0002a	8b 85 0c ff ff
	ff		 mov	 eax, DWORD PTR $T173109[ebp]
  00030	83 e0 02	 and	 eax, 2
  00033	0f 84 12 00 00
	00		 je	 $LN9@find
  00039	83 a5 0c ff ff
	ff fd		 and	 DWORD PTR $T173109[ebp], -3 ; fffffffdH
  00040	8d 8d f8 fe ff
	ff		 lea	 ecx, DWORD PTR $T173106[ebp]
  00046	e9 00 00 00 00	 jmp	 ??1?$_Tree_iterator@V?$_Tree_val@V?$_Tmap_traits@EPAVGameAction@ReplayTool@@U?$less@E@std@@V?$allocator@U?$pair@$$CBEPAVGameAction@ReplayTool@@@std@@@4@$0A@@std@@@std@@@std@@QAE@XZ
$LN9@find:
  0004b	c3		 ret	 0
__unwindfunclet$?find@?$_Tree@V?$_Tmap_traits@EPAVGameAction@ReplayTool@@U?$less@E@std@@V?$allocator@U?$pair@$$CBEPAVGameAction@ReplayTool@@@std@@@4@$0A@@std@@@std@@QAE?AV?$_Tree_iterator@V?$_Tree_val@V?$_Tmap_traits@EPAVGameAction@ReplayTool@@U?$less@E@std@@V?$allocator@U?$pair@$$CBEPAVGameAction@ReplayTool@@@std@@@4@$0A@@std@@@std@@@2@ABE@Z$3:
  0004c	8b 85 0c ff ff
	ff		 mov	 eax, DWORD PTR $T173109[ebp]
  00052	83 e0 04	 and	 eax, 4
  00055	0f 84 12 00 00
	00		 je	 $LN11@find
  0005b	83 a5 0c ff ff
	ff fb		 and	 DWORD PTR $T173109[ebp], -5 ; fffffffbH
  00062	8d 8d e4 fe ff
	ff		 lea	 ecx, DWORD PTR $T173105[ebp]
  00068	e9 00 00 00 00	 jmp	 ??1?$_Tree_iterator@V?$_Tree_val@V?$_Tmap_traits@EPAVGameAction@ReplayTool@@U?$less@E@std@@V?$allocator@U?$pair@$$CBEPAVGameAction@ReplayTool@@@std@@@4@$0A@@std@@@std@@@std@@QAE@XZ
$LN11@find:
  0006d	c3		 ret	 0
__unwindfunclet$?find@?$_Tree@V?$_Tmap_traits@EPAVGameAction@ReplayTool@@U?$less@E@std@@V?$allocator@U?$pair@$$CBEPAVGameAction@ReplayTool@@@std@@@4@$0A@@std@@@std@@QAE?AV?$_Tree_iterator@V?$_Tree_val@V?$_Tmap_traits@EPAVGameAction@ReplayTool@@U?$less@E@std@@V?$allocator@U?$pair@$$CBEPAVGameAction@ReplayTool@@@std@@@4@$0A@@std@@@std@@@2@ABE@Z$4:
  0006e	8b 85 0c ff ff
	ff		 mov	 eax, DWORD PTR $T173109[ebp]
  00074	83 e0 08	 and	 eax, 8
  00077	0f 84 0f 00 00
	00		 je	 $LN13@find
  0007d	83 a5 0c ff ff
	ff f7		 and	 DWORD PTR $T173109[ebp], -9 ; fffffff7H
  00084	8b 4d 08	 mov	 ecx, DWORD PTR ___$ReturnUdt$[ebp]
  00087	e9 00 00 00 00	 jmp	 ??1?$_Tree_iterator@V?$_Tree_val@V?$_Tmap_traits@EPAVGameAction@ReplayTool@@U?$less@E@std@@V?$allocator@U?$pair@$$CBEPAVGameAction@ReplayTool@@@std@@@4@$0A@@std@@@std@@@std@@QAE@XZ
$LN13@find:
  0008c	c3		 ret	 0
__ehhandler$?find@?$_Tree@V?$_Tmap_traits@EPAVGameAction@ReplayTool@@U?$less@E@std@@V?$allocator@U?$pair@$$CBEPAVGameAction@ReplayTool@@@std@@@4@$0A@@std@@@std@@QAE?AV?$_Tree_iterator@V?$_Tree_val@V?$_Tmap_traits@EPAVGameAction@ReplayTool@@U?$less@E@std@@V?$allocator@U?$pair@$$CBEPAVGameAction@ReplayTool@@@std@@@4@$0A@@std@@@std@@@2@ABE@Z:
  0008d	8b 54 24 08	 mov	 edx, DWORD PTR [esp+8]
  00091	8d 42 0c	 lea	 eax, DWORD PTR [edx+12]
  00094	8b 8a a0 fe ff
	ff		 mov	 ecx, DWORD PTR [edx-352]
  0009a	33 c8		 xor	 ecx, eax
  0009c	e8 00 00 00 00	 call	 @__security_check_cookie@4
  000a1	b8 00 00 00 00	 mov	 eax, OFFSET __ehfuncinfo$?find@?$_Tree@V?$_Tmap_traits@EPAVGameAction@ReplayTool@@U?$less@E@std@@V?$allocator@U?$pair@$$CBEPAVGameAction@ReplayTool@@@std@@@4@$0A@@std@@@std@@QAE?AV?$_Tree_iterator@V?$_Tree_val@V?$_Tmap_traits@EPAVGameAction@ReplayTool@@U?$less@E@std@@V?$allocator@U?$pair@$$CBEPAVGameAction@ReplayTool@@@std@@@4@$0A@@std@@@std@@@2@ABE@Z
  000a6	e9 00 00 00 00	 jmp	 ___CxxFrameHandler3
text$x	ENDS
?find@?$_Tree@V?$_Tmap_traits@EPAVGameAction@ReplayTool@@U?$less@E@std@@V?$allocator@U?$pair@$$CBEPAVGameAction@ReplayTool@@@std@@@4@$0A@@std@@@std@@QAE?AV?$_Tree_iterator@V?$_Tree_val@V?$_Tmap_traits@EPAVGameAction@ReplayTool@@U?$less@E@std@@V?$allocator@U?$pair@$$CBEPAVGameAction@ReplayTool@@@std@@@4@$0A@@std@@@std@@@2@ABE@Z ENDP ; std::_Tree<std::_Tmap_traits<unsigned char,ReplayTool::GameAction *,std::less<unsigned char>,std::allocator<std::pair<unsigned char const ,ReplayTool::GameAction *> >,0> >::find
PUBLIC	??D?$_Tree_const_iterator@V?$_Tree_val@V?$_Tmap_traits@EPAVGameAction@ReplayTool@@U?$less@E@std@@V?$allocator@U?$pair@$$CBEPAVGameAction@ReplayTool@@@std@@@4@$0A@@std@@@std@@@std@@QBEABU?$pair@$$CBEPAVGameAction@ReplayTool@@@1@XZ ; std::_Tree_const_iterator<std::_Tree_val<std::_Tmap_traits<unsigned char,ReplayTool::GameAction *,std::less<unsigned char>,std::allocator<std::pair<unsigned char const ,ReplayTool::GameAction *> >,0> > >::operator*
; Function compile flags: /Odtp /RTCsu /ZI
;	COMDAT ??D?$_Tree_iterator@V?$_Tree_val@V?$_Tmap_traits@EPAVGameAction@ReplayTool@@U?$less@E@std@@V?$allocator@U?$pair@$$CBEPAVGameAction@ReplayTool@@@std@@@4@$0A@@std@@@std@@@std@@QBEAAU?$pair@$$CBEPAVGameAction@ReplayTool@@@1@XZ
_TEXT	SEGMENT
_this$ = -8						; size = 4
??D?$_Tree_iterator@V?$_Tree_val@V?$_Tmap_traits@EPAVGameAction@ReplayTool@@U?$less@E@std@@V?$allocator@U?$pair@$$CBEPAVGameAction@ReplayTool@@@std@@@4@$0A@@std@@@std@@@std@@QBEAAU?$pair@$$CBEPAVGameAction@ReplayTool@@@1@XZ PROC ; std::_Tree_iterator<std::_Tree_val<std::_Tmap_traits<unsigned char,ReplayTool::GameAction *,std::less<unsigned char>,std::allocator<std::pair<unsigned char const ,ReplayTool::GameAction *> >,0> > >::operator*, COMDAT
; _this$ = ecx

; 395  : 		{	// return designated value

  00000	55		 push	 ebp
  00001	8b ec		 mov	 ebp, esp
  00003	81 ec cc 00 00
	00		 sub	 esp, 204		; 000000ccH
  00009	53		 push	 ebx
  0000a	56		 push	 esi
  0000b	57		 push	 edi
  0000c	51		 push	 ecx
  0000d	8d bd 34 ff ff
	ff		 lea	 edi, DWORD PTR [ebp-204]
  00013	b9 33 00 00 00	 mov	 ecx, 51			; 00000033H
  00018	b8 cc cc cc cc	 mov	 eax, -858993460		; ccccccccH
  0001d	f3 ab		 rep stosd
  0001f	59		 pop	 ecx
  00020	89 4d f8	 mov	 DWORD PTR _this$[ebp], ecx

; 396  : 		return ((reference)**(_Mybase *)this);

  00023	8b 4d f8	 mov	 ecx, DWORD PTR _this$[ebp]
  00026	e8 00 00 00 00	 call	 ??D?$_Tree_const_iterator@V?$_Tree_val@V?$_Tmap_traits@EPAVGameAction@ReplayTool@@U?$less@E@std@@V?$allocator@U?$pair@$$CBEPAVGameAction@ReplayTool@@@std@@@4@$0A@@std@@@std@@@std@@QBEABU?$pair@$$CBEPAVGameAction@ReplayTool@@@1@XZ ; std::_Tree_const_iterator<std::_Tree_val<std::_Tmap_traits<unsigned char,ReplayTool::GameAction *,std::less<unsigned char>,std::allocator<std::pair<unsigned char const ,ReplayTool::GameAction *> >,0> > >::operator*

; 397  : 		}

  0002b	5f		 pop	 edi
  0002c	5e		 pop	 esi
  0002d	5b		 pop	 ebx
  0002e	81 c4 cc 00 00
	00		 add	 esp, 204		; 000000ccH
  00034	3b ec		 cmp	 ebp, esp
  00036	e8 00 00 00 00	 call	 __RTC_CheckEsp
  0003b	8b e5		 mov	 esp, ebp
  0003d	5d		 pop	 ebp
  0003e	c3		 ret	 0
??D?$_Tree_iterator@V?$_Tree_val@V?$_Tmap_traits@EPAVGameAction@ReplayTool@@U?$less@E@std@@V?$allocator@U?$pair@$$CBEPAVGameAction@ReplayTool@@@std@@@4@$0A@@std@@@std@@@std@@QBEAAU?$pair@$$CBEPAVGameAction@ReplayTool@@@1@XZ ENDP ; std::_Tree_iterator<std::_Tree_val<std::_Tmap_traits<unsigned char,ReplayTool::GameAction *,std::less<unsigned char>,std::allocator<std::pair<unsigned char const ,ReplayTool::GameAction *> >,0> > >::operator*
_TEXT	ENDS
PUBLIC	??_C@_1CG@JNLFBNGN@?$AA?$CC?$AAi?$AAn?$AAv?$AAa?$AAl?$AAi?$AAd?$AA?5?$AAa?$AAr?$AAg?$AAu?$AAm?$AAe?$AAn?$AAt?$AA?$CC?$AA?$AA@ ; `string'
PUBLIC	??_C@_1CAK@BLFFBOHN@?$AAs?$AAt?$AAd?$AA?3?$AA?3?$AA_?$AAT?$AAr?$AAe?$AAe?$AA_?$AAc?$AAo?$AAn?$AAs?$AAt?$AA_?$AAi?$AAt?$AAe?$AAr?$AAa?$AAt?$AAo?$AAr?$AA?$DM?$AAc?$AAl?$AAa?$AAs?$AAs?$AA?5@ ; `string'
PUBLIC	??_C@_1FO@GJIHNDLM@?$AA?$CC?$AAS?$AAt?$AAa?$AAn?$AAd?$AAa?$AAr?$AAd?$AA?5?$AAC?$AA?$CL?$AA?$CL?$AA?5?$AAL?$AAi?$AAb?$AAr?$AAa?$AAr?$AAi?$AAe?$AAs?$AA?5?$AAI?$AAn?$AAv?$AAa?$AAl?$AAi?$AAd?$AA?5@ ; `string'
PUBLIC	??_C@_0CI@FNPHFCCM@Standard?5C?$CL?$CL?5Libraries?5Invalid?5A@ ; `string'
PUBLIC	??_C@_1DO@CFEEPGGJ@?$AAm?$AAa?$AAp?$AA?1?$AAs?$AAe?$AAt?$AA?5?$AAi?$AAt?$AAe?$AAr?$AAa?$AAt?$AAo?$AAr?$AAs?$AA?5?$AAi?$AAn?$AAc?$AAo?$AAm?$AAp?$AAa?$AAt?$AAi?$AAb?$AAl?$AAe?$AA?$AA@ ; `string'
PUBLIC	?_Getcont@_Iterator_base12@std@@QBEPBU_Container_base12@2@XZ ; std::_Iterator_base12::_Getcont
EXTRN	__imp___invalid_parameter:PROC
EXTRN	__imp___CrtDbgReportW:PROC
;	COMDAT ??_C@_1CG@JNLFBNGN@?$AA?$CC?$AAi?$AAn?$AAv?$AAa?$AAl?$AAi?$AAd?$AA?5?$AAa?$AAr?$AAg?$AAu?$AAm?$AAe?$AAn?$AAt?$AA?$CC?$AA?$AA@
CONST	SEGMENT
??_C@_1CG@JNLFBNGN@?$AA?$CC?$AAi?$AAn?$AAv?$AAa?$AAl?$AAi?$AAd?$AA?5?$AAa?$AAr?$AAg?$AAu?$AAm?$AAe?$AAn?$AAt?$AA?$CC?$AA?$AA@ DB '"'
	DB	00H, 'i', 00H, 'n', 00H, 'v', 00H, 'a', 00H, 'l', 00H, 'i', 00H
	DB	'd', 00H, ' ', 00H, 'a', 00H, 'r', 00H, 'g', 00H, 'u', 00H, 'm'
	DB	00H, 'e', 00H, 'n', 00H, 't', 00H, '"', 00H, 00H, 00H ; `string'
CONST	ENDS
;	COMDAT ??_C@_1CAK@BLFFBOHN@?$AAs?$AAt?$AAd?$AA?3?$AA?3?$AA_?$AAT?$AAr?$AAe?$AAe?$AA_?$AAc?$AAo?$AAn?$AAs?$AAt?$AA_?$AAi?$AAt?$AAe?$AAr?$AAa?$AAt?$AAo?$AAr?$AA?$DM?$AAc?$AAl?$AAa?$AAs?$AAs?$AA?5@
CONST	SEGMENT
??_C@_1CAK@BLFFBOHN@?$AAs?$AAt?$AAd?$AA?3?$AA?3?$AA_?$AAT?$AAr?$AAe?$AAe?$AA_?$AAc?$AAo?$AAn?$AAs?$AAt?$AA_?$AAi?$AAt?$AAe?$AAr?$AAa?$AAt?$AAo?$AAr?$AA?$DM?$AAc?$AAl?$AAa?$AAs?$AAs?$AA?5@ DB 's'
	DB	00H, 't', 00H, 'd', 00H, ':', 00H, ':', 00H, '_', 00H, 'T', 00H
	DB	'r', 00H, 'e', 00H, 'e', 00H, '_', 00H, 'c', 00H, 'o', 00H, 'n'
	DB	00H, 's', 00H, 't', 00H, '_', 00H, 'i', 00H, 't', 00H, 'e', 00H
	DB	'r', 00H, 'a', 00H, 't', 00H, 'o', 00H, 'r', 00H, '<', 00H, 'c'
	DB	00H, 'l', 00H, 'a', 00H, 's', 00H, 's', 00H, ' ', 00H, 's', 00H
	DB	't', 00H, 'd', 00H, ':', 00H, ':', 00H, '_', 00H, 'T', 00H, 'r'
	DB	00H, 'e', 00H, 'e', 00H, '_', 00H, 'v', 00H, 'a', 00H, 'l', 00H
	DB	'<', 00H, 'c', 00H, 'l', 00H, 'a', 00H, 's', 00H, 's', 00H, ' '
	DB	00H, 's', 00H, 't', 00H, 'd', 00H, ':', 00H, ':', 00H, '_', 00H
	DB	'T', 00H, 'm', 00H, 'a', 00H, 'p', 00H, '_', 00H, 't', 00H, 'r'
	DB	00H, 'a', 00H, 'i', 00H, 't', 00H, 's', 00H, '<', 00H, 'u', 00H
	DB	'n', 00H, 's', 00H, 'i', 00H, 'g', 00H, 'n', 00H, 'e', 00H, 'd'
	DB	00H, ' ', 00H, 'c', 00H, 'h', 00H, 'a', 00H, 'r', 00H, ',', 00H
	DB	'c', 00H, 'l', 00H, 'a', 00H, 's', 00H, 's', 00H, ' ', 00H, 'R'
	DB	00H, 'e', 00H, 'p', 00H, 'l', 00H, 'a', 00H, 'y', 00H, 'T', 00H
	DB	'o', 00H, 'o', 00H, 'l', 00H, ':', 00H, ':', 00H, 'G', 00H, 'a'
	DB	00H, 'm', 00H, 'e', 00H, 'A', 00H, 'c', 00H, 't', 00H, 'i', 00H
	DB	'o', 00H, 'n', 00H, ' ', 00H, '*', 00H, ',', 00H, 's', 00H, 't'
	DB	00H, 'r', 00H, 'u', 00H, 'c', 00H, 't', 00H, ' ', 00H, 's', 00H
	DB	't', 00H, 'd', 00H, ':', 00H, ':', 00H, 'l', 00H, 'e', 00H, 's'
	DB	00H, 's', 00H, '<', 00H, 'u', 00H, 'n', 00H, 's', 00H, 'i', 00H
	DB	'g', 00H, 'n', 00H, 'e', 00H, 'd', 00H, ' ', 00H, 'c', 00H, 'h'
	DB	00H, 'a', 00H, 'r', 00H, '>', 00H, ',', 00H, 'c', 00H, 'l', 00H
	DB	'a', 00H, 's', 00H, 's', 00H, ' ', 00H, 's', 00H, 't', 00H, 'd'
	DB	00H, ':', 00H, ':', 00H, 'a', 00H, 'l', 00H, 'l', 00H, 'o', 00H
	DB	'c', 00H, 'a', 00H, 't', 00H, 'o', 00H, 'r', 00H, '<', 00H, 's'
	DB	00H, 't', 00H, 'r', 00H, 'u', 00H, 'c', 00H, 't', 00H, ' ', 00H
	DB	's', 00H, 't', 00H, 'd', 00H, ':', 00H, ':', 00H, 'p', 00H, 'a'
	DB	00H, 'i', 00H, 'r', 00H, '<', 00H, 'u', 00H, 'n', 00H, 's', 00H
	DB	'i', 00H, 'g', 00H, 'n', 00H, 'e', 00H, 'd', 00H, ' ', 00H, 'c'
	DB	00H, 'h', 00H, 'a', 00H, 'r', 00H, ' ', 00H, 'c', 00H, 'o', 00H
	DB	'n', 00H, 's', 00H, 't', 00H, ' ', 00H, ',', 00H, 'c', 00H, 'l'
	DB	00H, 'a', 00H, 's', 00H, 's', 00H, ' ', 00H, 'R', 00H, 'e', 00H
	DB	'p', 00H, 'l', 00H, 'a', 00H, 'y', 00H, 'T', 00H, 'o', 00H, 'o'
	DB	00H, 'l', 00H, ':', 00H, ':', 00H, 'G', 00H, 'a', 00H, 'm', 00H
	DB	'e', 00H, 'A', 00H, 'c', 00H, 't', 00H, 'i', 00H, 'o', 00H, 'n'
	DB	00H, ' ', 00H, '*', 00H, '>', 00H, ' ', 00H, '>', 00H, ',', 00H
	DB	'0', 00H, '>', 00H, ' ', 00H, '>', 00H, ' ', 00H, '>', 00H, ':'
	DB	00H, ':', 00H, 'o', 00H, 'p', 00H, 'e', 00H, 'r', 00H, 'a', 00H
	DB	't', 00H, 'o', 00H, 'r', 00H, ' ', 00H, '=', 00H, '=', 00H, 00H
	DB	00H						; `string'
CONST	ENDS
;	COMDAT ??_C@_1FO@GJIHNDLM@?$AA?$CC?$AAS?$AAt?$AAa?$AAn?$AAd?$AAa?$AAr?$AAd?$AA?5?$AAC?$AA?$CL?$AA?$CL?$AA?5?$AAL?$AAi?$AAb?$AAr?$AAa?$AAr?$AAi?$AAe?$AAs?$AA?5?$AAI?$AAn?$AAv?$AAa?$AAl?$AAi?$AAd?$AA?5@
CONST	SEGMENT
??_C@_1FO@GJIHNDLM@?$AA?$CC?$AAS?$AAt?$AAa?$AAn?$AAd?$AAa?$AAr?$AAd?$AA?5?$AAC?$AA?$CL?$AA?$CL?$AA?5?$AAL?$AAi?$AAb?$AAr?$AAa?$AAr?$AAi?$AAe?$AAs?$AA?5?$AAI?$AAn?$AAv?$AAa?$AAl?$AAi?$AAd?$AA?5@ DB '"'
	DB	00H, 'S', 00H, 't', 00H, 'a', 00H, 'n', 00H, 'd', 00H, 'a', 00H
	DB	'r', 00H, 'd', 00H, ' ', 00H, 'C', 00H, '+', 00H, '+', 00H, ' '
	DB	00H, 'L', 00H, 'i', 00H, 'b', 00H, 'r', 00H, 'a', 00H, 'r', 00H
	DB	'i', 00H, 'e', 00H, 's', 00H, ' ', 00H, 'I', 00H, 'n', 00H, 'v'
	DB	00H, 'a', 00H, 'l', 00H, 'i', 00H, 'd', 00H, ' ', 00H, 'A', 00H
	DB	'r', 00H, 'g', 00H, 'u', 00H, 'm', 00H, 'e', 00H, 'n', 00H, 't'
	DB	00H, '"', 00H, ' ', 00H, '&', 00H, '&', 00H, ' ', 00H, '0', 00H
	DB	00H, 00H					; `string'
CONST	ENDS
;	COMDAT ??_C@_0CI@FNPHFCCM@Standard?5C?$CL?$CL?5Libraries?5Invalid?5A@
CONST	SEGMENT
??_C@_0CI@FNPHFCCM@Standard?5C?$CL?$CL?5Libraries?5Invalid?5A@ DB 'Standa'
	DB	'rd C++ Libraries Invalid Argument', 00H	; `string'
CONST	ENDS
;	COMDAT ??_C@_1DO@CFEEPGGJ@?$AAm?$AAa?$AAp?$AA?1?$AAs?$AAe?$AAt?$AA?5?$AAi?$AAt?$AAe?$AAr?$AAa?$AAt?$AAo?$AAr?$AAs?$AA?5?$AAi?$AAn?$AAc?$AAo?$AAm?$AAp?$AAa?$AAt?$AAi?$AAb?$AAl?$AAe?$AA?$AA@
CONST	SEGMENT
??_C@_1DO@CFEEPGGJ@?$AAm?$AAa?$AAp?$AA?1?$AAs?$AAe?$AAt?$AA?5?$AAi?$AAt?$AAe?$AAr?$AAa?$AAt?$AAo?$AAr?$AAs?$AA?5?$AAi?$AAn?$AAc?$AAo?$AAm?$AAp?$AAa?$AAt?$AAi?$AAb?$AAl?$AAe?$AA?$AA@ DB 'm'
	DB	00H, 'a', 00H, 'p', 00H, '/', 00H, 's', 00H, 'e', 00H, 't', 00H
	DB	' ', 00H, 'i', 00H, 't', 00H, 'e', 00H, 'r', 00H, 'a', 00H, 't'
	DB	00H, 'o', 00H, 'r', 00H, 's', 00H, ' ', 00H, 'i', 00H, 'n', 00H
	DB	'c', 00H, 'o', 00H, 'm', 00H, 'p', 00H, 'a', 00H, 't', 00H, 'i'
	DB	00H, 'b', 00H, 'l', 00H, 'e', 00H, 00H, 00H	; `string'
; Function compile flags: /Odtp /RTCsu /ZI
CONST	ENDS
;	COMDAT ??8?$_Tree_const_iterator@V?$_Tree_val@V?$_Tmap_traits@EPAVGameAction@ReplayTool@@U?$less@E@std@@V?$allocator@U?$pair@$$CBEPAVGameAction@ReplayTool@@@std@@@4@$0A@@std@@@std@@@std@@QBE_NABV01@@Z
_TEXT	SEGMENT
_this$ = -8						; size = 4
__Right$ = 8						; size = 4
??8?$_Tree_const_iterator@V?$_Tree_val@V?$_Tmap_traits@EPAVGameAction@ReplayTool@@U?$less@E@std@@V?$allocator@U?$pair@$$CBEPAVGameAction@ReplayTool@@@std@@@4@$0A@@std@@@std@@@std@@QBE_NABV01@@Z PROC ; std::_Tree_const_iterator<std::_Tree_val<std::_Tmap_traits<unsigned char,ReplayTool::GameAction *,std::less<unsigned char>,std::allocator<std::pair<unsigned char const ,ReplayTool::GameAction *> >,0> > >::operator==, COMDAT
; _this$ = ecx

; 316  : 		{	// test for iterator equality

  00000	55		 push	 ebp
  00001	8b ec		 mov	 ebp, esp
  00003	81 ec cc 00 00
	00		 sub	 esp, 204		; 000000ccH
  00009	53		 push	 ebx
  0000a	56		 push	 esi
  0000b	57		 push	 edi
  0000c	51		 push	 ecx
  0000d	8d bd 34 ff ff
	ff		 lea	 edi, DWORD PTR [ebp-204]
  00013	b9 33 00 00 00	 mov	 ecx, 51			; 00000033H
  00018	b8 cc cc cc cc	 mov	 eax, -858993460		; ccccccccH
  0001d	f3 ab		 rep stosd
  0001f	59		 pop	 ecx
  00020	89 4d f8	 mov	 DWORD PTR _this$[ebp], ecx

; 317  :  #if _ITERATOR_DEBUG_LEVEL == 2
; 318  : 		if (this->_Getcont() == 0
; 319  : 			|| this->_Getcont() != _Right._Getcont())

  00023	8b 4d f8	 mov	 ecx, DWORD PTR _this$[ebp]
  00026	e8 00 00 00 00	 call	 ?_Getcont@_Iterator_base12@std@@QBEPBU_Container_base12@2@XZ ; std::_Iterator_base12::_Getcont
  0002b	85 c0		 test	 eax, eax
  0002d	74 1a		 je	 SHORT $LN1@operator
  0002f	8b 4d f8	 mov	 ecx, DWORD PTR _this$[ebp]
  00032	e8 00 00 00 00	 call	 ?_Getcont@_Iterator_base12@std@@QBEPBU_Container_base12@2@XZ ; std::_Iterator_base12::_Getcont
  00037	8b f0		 mov	 esi, eax
  00039	8b 4d 08	 mov	 ecx, DWORD PTR __Right$[ebp]
  0003c	e8 00 00 00 00	 call	 ?_Getcont@_Iterator_base12@std@@QBEPBU_Container_base12@2@XZ ; std::_Iterator_base12::_Getcont
  00041	3b f0		 cmp	 esi, eax
  00043	0f 84 81 00 00
	00		 je	 $LN2@operator
$LN1@operator:

; 320  : 			{	// report error
; 321  : 			_DEBUG_ERROR("map/set iterators incompatible");

  00049	8b f4		 mov	 esi, esp
  0004b	68 41 01 00 00	 push	 321			; 00000141H
  00050	68 00 00 00 00	 push	 OFFSET ??_C@_1IK@OIAMDBCK@?$AAc?$AA?3?$AA?2?$AAp?$AAr?$AAo?$AAg?$AAr?$AAa?$AAm?$AA?5?$AAf?$AAi?$AAl?$AAe?$AAs?$AA?5?$AA?$CI?$AAx?$AA8?$AA6?$AA?$CJ?$AA?2?$AAm?$AAi?$AAc?$AAr?$AAo?$AAs?$AAo?$AAf?$AAt@
  00055	68 00 00 00 00	 push	 OFFSET ??_C@_1DO@CFEEPGGJ@?$AAm?$AAa?$AAp?$AA?1?$AAs?$AAe?$AAt?$AA?5?$AAi?$AAt?$AAe?$AAr?$AAa?$AAt?$AAo?$AAr?$AAs?$AA?5?$AAi?$AAn?$AAc?$AAo?$AAm?$AAp?$AAa?$AAt?$AAi?$AAb?$AAl?$AAe?$AA?$AA@
  0005a	ff 15 00 00 00
	00		 call	 DWORD PTR __imp_?_Debug_message@std@@YAXPB_W0I@Z
  00060	83 c4 0c	 add	 esp, 12			; 0000000cH
  00063	3b f4		 cmp	 esi, esp
  00065	e8 00 00 00 00	 call	 __RTC_CheckEsp

; 322  : 			_SCL_SECURE_INVALID_ARGUMENT;

  0006a	b8 00 00 00 00	 mov	 eax, OFFSET ??_C@_0CI@FNPHFCCM@Standard?5C?$CL?$CL?5Libraries?5Invalid?5A@
  0006f	85 c0		 test	 eax, eax
  00071	74 04		 je	 SHORT $LN5@operator
  00073	33 c9		 xor	 ecx, ecx
  00075	75 2b		 jne	 SHORT $LN6@operator
$LN5@operator:
  00077	8b f4		 mov	 esi, esp
  00079	68 00 00 00 00	 push	 OFFSET ??_C@_1FO@GJIHNDLM@?$AA?$CC?$AAS?$AAt?$AAa?$AAn?$AAd?$AAa?$AAr?$AAd?$AA?5?$AAC?$AA?$CL?$AA?$CL?$AA?5?$AAL?$AAi?$AAb?$AAr?$AAa?$AAr?$AAi?$AAe?$AAs?$AA?5?$AAI?$AAn?$AAv?$AAa?$AAl?$AAi?$AAd?$AA?5@
  0007e	6a 00		 push	 0
  00080	68 42 01 00 00	 push	 322			; 00000142H
  00085	68 00 00 00 00	 push	 OFFSET ??_C@_1IK@OIAMDBCK@?$AAc?$AA?3?$AA?2?$AAp?$AAr?$AAo?$AAg?$AAr?$AAa?$AAm?$AA?5?$AAf?$AAi?$AAl?$AAe?$AAs?$AA?5?$AA?$CI?$AAx?$AA8?$AA6?$AA?$CJ?$AA?2?$AAm?$AAi?$AAc?$AAr?$AAo?$AAs?$AAo?$AAf?$AAt@
  0008a	6a 02		 push	 2
  0008c	ff 15 00 00 00
	00		 call	 DWORD PTR __imp___CrtDbgReportW
  00092	83 c4 14	 add	 esp, 20			; 00000014H
  00095	3b f4		 cmp	 esi, esp
  00097	e8 00 00 00 00	 call	 __RTC_CheckEsp
  0009c	83 f8 01	 cmp	 eax, 1
  0009f	75 01		 jne	 SHORT $LN6@operator
  000a1	cc		 int	 3
$LN6@operator:
  000a2	8b f4		 mov	 esi, esp
  000a4	6a 00		 push	 0
  000a6	68 42 01 00 00	 push	 322			; 00000142H
  000ab	68 00 00 00 00	 push	 OFFSET ??_C@_1IK@OIAMDBCK@?$AAc?$AA?3?$AA?2?$AAp?$AAr?$AAo?$AAg?$AAr?$AAa?$AAm?$AA?5?$AAf?$AAi?$AAl?$AAe?$AAs?$AA?5?$AA?$CI?$AAx?$AA8?$AA6?$AA?$CJ?$AA?2?$AAm?$AAi?$AAc?$AAr?$AAo?$AAs?$AAo?$AAf?$AAt@
  000b0	68 00 00 00 00	 push	 OFFSET ??_C@_1CAK@BLFFBOHN@?$AAs?$AAt?$AAd?$AA?3?$AA?3?$AA_?$AAT?$AAr?$AAe?$AAe?$AA_?$AAc?$AAo?$AAn?$AAs?$AAt?$AA_?$AAi?$AAt?$AAe?$AAr?$AAa?$AAt?$AAo?$AAr?$AA?$DM?$AAc?$AAl?$AAa?$AAs?$AAs?$AA?5@
  000b5	68 00 00 00 00	 push	 OFFSET ??_C@_1CG@JNLFBNGN@?$AA?$CC?$AAi?$AAn?$AAv?$AAa?$AAl?$AAi?$AAd?$AA?5?$AAa?$AAr?$AAg?$AAu?$AAm?$AAe?$AAn?$AAt?$AA?$CC?$AA?$AA@
  000ba	ff 15 00 00 00
	00		 call	 DWORD PTR __imp___invalid_parameter
  000c0	83 c4 14	 add	 esp, 20			; 00000014H
  000c3	3b f4		 cmp	 esi, esp
  000c5	e8 00 00 00 00	 call	 __RTC_CheckEsp
$LN2@operator:

; 323  : 			}
; 324  : 
; 325  :  #elif _ITERATOR_DEBUG_LEVEL == 1
; 326  : 		_SCL_SECURE_VALIDATE(this->_Getcont() != 0
; 327  : 			&& this->_Getcont() == _Right._Getcont());
; 328  :  #endif /* _ITERATOR_DEBUG_LEVEL */
; 329  : 
; 330  : 		return (this->_Ptr == _Right._Ptr);

  000ca	8b 45 f8	 mov	 eax, DWORD PTR _this$[ebp]
  000cd	8b 4d 08	 mov	 ecx, DWORD PTR __Right$[ebp]
  000d0	8b 50 08	 mov	 edx, DWORD PTR [eax+8]
  000d3	33 c0		 xor	 eax, eax
  000d5	3b 51 08	 cmp	 edx, DWORD PTR [ecx+8]
  000d8	0f 94 c0	 sete	 al

; 331  : 		}

  000db	5f		 pop	 edi
  000dc	5e		 pop	 esi
  000dd	5b		 pop	 ebx
  000de	81 c4 cc 00 00
	00		 add	 esp, 204		; 000000ccH
  000e4	3b ec		 cmp	 ebp, esp
  000e6	e8 00 00 00 00	 call	 __RTC_CheckEsp
  000eb	8b e5		 mov	 esp, ebp
  000ed	5d		 pop	 ebp
  000ee	c2 04 00	 ret	 4
??8?$_Tree_const_iterator@V?$_Tree_val@V?$_Tmap_traits@EPAVGameAction@ReplayTool@@U?$less@E@std@@V?$allocator@U?$pair@$$CBEPAVGameAction@ReplayTool@@@std@@@4@$0A@@std@@@std@@@std@@QBE_NABV01@@Z ENDP ; std::_Tree_const_iterator<std::_Tree_val<std::_Tmap_traits<unsigned char,ReplayTool::GameAction *,std::less<unsigned char>,std::allocator<std::pair<unsigned char const ,ReplayTool::GameAction *> >,0> > >::operator==
; Function compile flags: /Odtp /RTCsu /ZI
; File c:\program files (x86)\microsoft visual studio 10.0\vc\include\xutility
_TEXT	ENDS
;	COMDAT ?_Getcont@_Iterator_base12@std@@QBEPBU_Container_base12@2@XZ
_TEXT	SEGMENT
tv66 = -208						; size = 4
_this$ = -8						; size = 4
?_Getcont@_Iterator_base12@std@@QBEPBU_Container_base12@2@XZ PROC ; std::_Iterator_base12::_Getcont, COMDAT
; _this$ = ecx

; 162  : 		{	// get owning container

  00000	55		 push	 ebp
  00001	8b ec		 mov	 ebp, esp
  00003	81 ec d0 00 00
	00		 sub	 esp, 208		; 000000d0H
  00009	53		 push	 ebx
  0000a	56		 push	 esi
  0000b	57		 push	 edi
  0000c	51		 push	 ecx
  0000d	8d bd 30 ff ff
	ff		 lea	 edi, DWORD PTR [ebp-208]
  00013	b9 34 00 00 00	 mov	 ecx, 52			; 00000034H
  00018	b8 cc cc cc cc	 mov	 eax, -858993460		; ccccccccH
  0001d	f3 ab		 rep stosd
  0001f	59		 pop	 ecx
  00020	89 4d f8	 mov	 DWORD PTR _this$[ebp], ecx

; 163  : 		return (_Myproxy == 0 ? 0 : _Myproxy->_Mycont);

  00023	8b 45 f8	 mov	 eax, DWORD PTR _this$[ebp]
  00026	83 38 00	 cmp	 DWORD PTR [eax], 0
  00029	75 0c		 jne	 SHORT $LN3@Getcont
  0002b	c7 85 30 ff ff
	ff 00 00 00 00	 mov	 DWORD PTR tv66[ebp], 0
  00035	eb 0d		 jmp	 SHORT $LN4@Getcont
$LN3@Getcont:
  00037	8b 4d f8	 mov	 ecx, DWORD PTR _this$[ebp]
  0003a	8b 11		 mov	 edx, DWORD PTR [ecx]
  0003c	8b 02		 mov	 eax, DWORD PTR [edx]
  0003e	89 85 30 ff ff
	ff		 mov	 DWORD PTR tv66[ebp], eax
$LN4@Getcont:
  00044	8b 85 30 ff ff
	ff		 mov	 eax, DWORD PTR tv66[ebp]

; 164  : 		}

  0004a	5f		 pop	 edi
  0004b	5e		 pop	 esi
  0004c	5b		 pop	 ebx
  0004d	8b e5		 mov	 esp, ebp
  0004f	5d		 pop	 ebp
  00050	c3		 ret	 0
?_Getcont@_Iterator_base12@std@@QBEPBU_Container_base12@2@XZ ENDP ; std::_Iterator_base12::_Getcont
; Function compile flags: /Odtp /RTCsu /ZI
; File c:\program files (x86)\microsoft visual studio 10.0\vc\include\xtree
_TEXT	ENDS
;	COMDAT ??9?$_Tree_const_iterator@V?$_Tree_val@V?$_Tmap_traits@EPAVGameAction@ReplayTool@@U?$less@E@std@@V?$allocator@U?$pair@$$CBEPAVGameAction@ReplayTool@@@std@@@4@$0A@@std@@@std@@@std@@QBE_NABV01@@Z
_TEXT	SEGMENT
_this$ = -8						; size = 4
__Right$ = 8						; size = 4
??9?$_Tree_const_iterator@V?$_Tree_val@V?$_Tmap_traits@EPAVGameAction@ReplayTool@@U?$less@E@std@@V?$allocator@U?$pair@$$CBEPAVGameAction@ReplayTool@@@std@@@4@$0A@@std@@@std@@@std@@QBE_NABV01@@Z PROC ; std::_Tree_const_iterator<std::_Tree_val<std::_Tmap_traits<unsigned char,ReplayTool::GameAction *,std::less<unsigned char>,std::allocator<std::pair<unsigned char const ,ReplayTool::GameAction *> >,0> > >::operator!=, COMDAT
; _this$ = ecx

; 334  : 		{	// test for iterator inequality

  00000	55		 push	 ebp
  00001	8b ec		 mov	 ebp, esp
  00003	81 ec cc 00 00
	00		 sub	 esp, 204		; 000000ccH
  00009	53		 push	 ebx
  0000a	56		 push	 esi
  0000b	57		 push	 edi
  0000c	51		 push	 ecx
  0000d	8d bd 34 ff ff
	ff		 lea	 edi, DWORD PTR [ebp-204]
  00013	b9 33 00 00 00	 mov	 ecx, 51			; 00000033H
  00018	b8 cc cc cc cc	 mov	 eax, -858993460		; ccccccccH
  0001d	f3 ab		 rep stosd
  0001f	59		 pop	 ecx
  00020	89 4d f8	 mov	 DWORD PTR _this$[ebp], ecx

; 335  : 		return (!(*this == _Right));

  00023	8b 45 08	 mov	 eax, DWORD PTR __Right$[ebp]
  00026	50		 push	 eax
  00027	8b 4d f8	 mov	 ecx, DWORD PTR _this$[ebp]
  0002a	e8 00 00 00 00	 call	 ??8?$_Tree_const_iterator@V?$_Tree_val@V?$_Tmap_traits@EPAVGameAction@ReplayTool@@U?$less@E@std@@V?$allocator@U?$pair@$$CBEPAVGameAction@ReplayTool@@@std@@@4@$0A@@std@@@std@@@std@@QBE_NABV01@@Z ; std::_Tree_const_iterator<std::_Tree_val<std::_Tmap_traits<unsigned char,ReplayTool::GameAction *,std::less<unsigned char>,std::allocator<std::pair<unsigned char const ,ReplayTool::GameAction *> >,0> > >::operator==
  0002f	0f b6 c0	 movzx	 eax, al
  00032	f7 d8		 neg	 eax
  00034	1b c0		 sbb	 eax, eax
  00036	83 c0 01	 add	 eax, 1

; 336  : 		}

  00039	5f		 pop	 edi
  0003a	5e		 pop	 esi
  0003b	5b		 pop	 ebx
  0003c	81 c4 cc 00 00
	00		 add	 esp, 204		; 000000ccH
  00042	3b ec		 cmp	 ebp, esp
  00044	e8 00 00 00 00	 call	 __RTC_CheckEsp
  00049	8b e5		 mov	 esp, ebp
  0004b	5d		 pop	 ebp
  0004c	c2 04 00	 ret	 4
??9?$_Tree_const_iterator@V?$_Tree_val@V?$_Tmap_traits@EPAVGameAction@ReplayTool@@U?$less@E@std@@V?$allocator@U?$pair@$$CBEPAVGameAction@ReplayTool@@@std@@@4@$0A@@std@@@std@@@std@@QBE_NABV01@@Z ENDP ; std::_Tree_const_iterator<std::_Tree_val<std::_Tmap_traits<unsigned char,ReplayTool::GameAction *,std::less<unsigned char>,std::allocator<std::pair<unsigned char const ,ReplayTool::GameAction *> >,0> > >::operator!=
_TEXT	ENDS
PUBLIC	??0?$_Tree_const_iterator@V?$_Tree_val@V?$_Tmap_traits@EPAVGameAction@ReplayTool@@U?$less@E@std@@V?$allocator@U?$pair@$$CBEPAVGameAction@ReplayTool@@@std@@@4@$0A@@std@@@std@@@std@@QAE@ABV01@@Z ; std::_Tree_const_iterator<std::_Tree_val<std::_Tmap_traits<unsigned char,ReplayTool::GameAction *,std::less<unsigned char>,std::allocator<std::pair<unsigned char const ,ReplayTool::GameAction *> >,0> > >::_Tree_const_iterator<std::_Tree_val<std::_Tmap_traits<unsigned char,ReplayTool::GameAction *,std::less<unsigned char>,std::allocator<std::pair<unsigned char const ,ReplayTool::GameAction *> >,0> > >
; Function compile flags: /Odtp /RTCsu /ZI
;	COMDAT ??0?$_Tree_iterator@V?$_Tree_val@V?$_Tmap_traits@EPAVGameAction@ReplayTool@@U?$less@E@std@@V?$allocator@U?$pair@$$CBEPAVGameAction@ReplayTool@@@std@@@4@$0A@@std@@@std@@@std@@QAE@ABV01@@Z
_TEXT	SEGMENT
_this$ = -8						; size = 4
___that$ = 8						; size = 4
??0?$_Tree_iterator@V?$_Tree_val@V?$_Tmap_traits@EPAVGameAction@ReplayTool@@U?$less@E@std@@V?$allocator@U?$pair@$$CBEPAVGameAction@ReplayTool@@@std@@@4@$0A@@std@@@std@@@std@@QAE@ABV01@@Z PROC ; std::_Tree_iterator<std::_Tree_val<std::_Tmap_traits<unsigned char,ReplayTool::GameAction *,std::less<unsigned char>,std::allocator<std::pair<unsigned char const ,ReplayTool::GameAction *> >,0> > >::_Tree_iterator<std::_Tree_val<std::_Tmap_traits<unsigned char,ReplayTool::GameAction *,std::less<unsigned char>,std::allocator<std::pair<unsigned char const ,ReplayTool::GameAction *> >,0> > >, COMDAT
; _this$ = ecx
  00000	55		 push	 ebp
  00001	8b ec		 mov	 ebp, esp
  00003	81 ec cc 00 00
	00		 sub	 esp, 204		; 000000ccH
  00009	53		 push	 ebx
  0000a	56		 push	 esi
  0000b	57		 push	 edi
  0000c	51		 push	 ecx
  0000d	8d bd 34 ff ff
	ff		 lea	 edi, DWORD PTR [ebp-204]
  00013	b9 33 00 00 00	 mov	 ecx, 51			; 00000033H
  00018	b8 cc cc cc cc	 mov	 eax, -858993460		; ccccccccH
  0001d	f3 ab		 rep stosd
  0001f	59		 pop	 ecx
  00020	89 4d f8	 mov	 DWORD PTR _this$[ebp], ecx
  00023	8b 45 08	 mov	 eax, DWORD PTR ___that$[ebp]
  00026	50		 push	 eax
  00027	8b 4d f8	 mov	 ecx, DWORD PTR _this$[ebp]
  0002a	e8 00 00 00 00	 call	 ??0?$_Tree_const_iterator@V?$_Tree_val@V?$_Tmap_traits@EPAVGameAction@ReplayTool@@U?$less@E@std@@V?$allocator@U?$pair@$$CBEPAVGameAction@ReplayTool@@@std@@@4@$0A@@std@@@std@@@std@@QAE@ABV01@@Z
  0002f	8b 45 f8	 mov	 eax, DWORD PTR _this$[ebp]
  00032	5f		 pop	 edi
  00033	5e		 pop	 esi
  00034	5b		 pop	 ebx
  00035	81 c4 cc 00 00
	00		 add	 esp, 204		; 000000ccH
  0003b	3b ec		 cmp	 ebp, esp
  0003d	e8 00 00 00 00	 call	 __RTC_CheckEsp
  00042	8b e5		 mov	 esp, ebp
  00044	5d		 pop	 ebp
  00045	c2 04 00	 ret	 4
??0?$_Tree_iterator@V?$_Tree_val@V?$_Tmap_traits@EPAVGameAction@ReplayTool@@U?$less@E@std@@V?$allocator@U?$pair@$$CBEPAVGameAction@ReplayTool@@@std@@@4@$0A@@std@@@std@@@std@@QAE@ABV01@@Z ENDP ; std::_Tree_iterator<std::_Tree_val<std::_Tmap_traits<unsigned char,ReplayTool::GameAction *,std::less<unsigned char>,std::allocator<std::pair<unsigned char const ,ReplayTool::GameAction *> >,0> > >::_Tree_iterator<std::_Tree_val<std::_Tmap_traits<unsigned char,ReplayTool::GameAction *,std::less<unsigned char>,std::allocator<std::pair<unsigned char const ,ReplayTool::GameAction *> >,0> > >
_TEXT	ENDS
PUBLIC	??0?$_Tree_unchecked_const_iterator@V?$_Tree_val@V?$_Tmap_traits@EPAVGameAction@ReplayTool@@U?$less@E@std@@V?$allocator@U?$pair@$$CBEPAVGameAction@ReplayTool@@@std@@@4@$0A@@std@@@std@@U_Iterator_base12@2@@std@@QAE@ABV01@@Z ; std::_Tree_unchecked_const_iterator<std::_Tree_val<std::_Tmap_traits<unsigned char,ReplayTool::GameAction *,std::less<unsigned char>,std::allocator<std::pair<unsigned char const ,ReplayTool::GameAction *> >,0> >,std::_Iterator_base12>::_Tree_unchecked_const_iterator<std::_Tree_val<std::_Tmap_traits<unsigned char,ReplayTool::GameAction *,std::less<unsigned char>,std::allocator<std::pair<unsigned char const ,ReplayTool::GameAction *> >,0> >,std::_Iterator_base12>
; Function compile flags: /Odtp /RTCsu /ZI
;	COMDAT ??0?$_Tree_const_iterator@V?$_Tree_val@V?$_Tmap_traits@EPAVGameAction@ReplayTool@@U?$less@E@std@@V?$allocator@U?$pair@$$CBEPAVGameAction@ReplayTool@@@std@@@4@$0A@@std@@@std@@@std@@QAE@ABV01@@Z
_TEXT	SEGMENT
_this$ = -8						; size = 4
___that$ = 8						; size = 4
??0?$_Tree_const_iterator@V?$_Tree_val@V?$_Tmap_traits@EPAVGameAction@ReplayTool@@U?$less@E@std@@V?$allocator@U?$pair@$$CBEPAVGameAction@ReplayTool@@@std@@@4@$0A@@std@@@std@@@std@@QAE@ABV01@@Z PROC ; std::_Tree_const_iterator<std::_Tree_val<std::_Tmap_traits<unsigned char,ReplayTool::GameAction *,std::less<unsigned char>,std::allocator<std::pair<unsigned char const ,ReplayTool::GameAction *> >,0> > >::_Tree_const_iterator<std::_Tree_val<std::_Tmap_traits<unsigned char,ReplayTool::GameAction *,std::less<unsigned char>,std::allocator<std::pair<unsigned char const ,ReplayTool::GameAction *> >,0> > >, COMDAT
; _this$ = ecx
  00000	55		 push	 ebp
  00001	8b ec		 mov	 ebp, esp
  00003	81 ec cc 00 00
	00		 sub	 esp, 204		; 000000ccH
  00009	53		 push	 ebx
  0000a	56		 push	 esi
  0000b	57		 push	 edi
  0000c	51		 push	 ecx
  0000d	8d bd 34 ff ff
	ff		 lea	 edi, DWORD PTR [ebp-204]
  00013	b9 33 00 00 00	 mov	 ecx, 51			; 00000033H
  00018	b8 cc cc cc cc	 mov	 eax, -858993460		; ccccccccH
  0001d	f3 ab		 rep stosd
  0001f	59		 pop	 ecx
  00020	89 4d f8	 mov	 DWORD PTR _this$[ebp], ecx
  00023	8b 45 08	 mov	 eax, DWORD PTR ___that$[ebp]
  00026	50		 push	 eax
  00027	8b 4d f8	 mov	 ecx, DWORD PTR _this$[ebp]
  0002a	e8 00 00 00 00	 call	 ??0?$_Tree_unchecked_const_iterator@V?$_Tree_val@V?$_Tmap_traits@EPAVGameAction@ReplayTool@@U?$less@E@std@@V?$allocator@U?$pair@$$CBEPAVGameAction@ReplayTool@@@std@@@4@$0A@@std@@@std@@U_Iterator_base12@2@@std@@QAE@ABV01@@Z
  0002f	8b 45 f8	 mov	 eax, DWORD PTR _this$[ebp]
  00032	5f		 pop	 edi
  00033	5e		 pop	 esi
  00034	5b		 pop	 ebx
  00035	81 c4 cc 00 00
	00		 add	 esp, 204		; 000000ccH
  0003b	3b ec		 cmp	 ebp, esp
  0003d	e8 00 00 00 00	 call	 __RTC_CheckEsp
  00042	8b e5		 mov	 esp, ebp
  00044	5d		 pop	 ebp
  00045	c2 04 00	 ret	 4
??0?$_Tree_const_iterator@V?$_Tree_val@V?$_Tmap_traits@EPAVGameAction@ReplayTool@@U?$less@E@std@@V?$allocator@U?$pair@$$CBEPAVGameAction@ReplayTool@@@std@@@4@$0A@@std@@@std@@@std@@QAE@ABV01@@Z ENDP ; std::_Tree_const_iterator<std::_Tree_val<std::_Tmap_traits<unsigned char,ReplayTool::GameAction *,std::less<unsigned char>,std::allocator<std::pair<unsigned char const ,ReplayTool::GameAction *> >,0> > >::_Tree_const_iterator<std::_Tree_val<std::_Tmap_traits<unsigned char,ReplayTool::GameAction *,std::less<unsigned char>,std::allocator<std::pair<unsigned char const ,ReplayTool::GameAction *> >,0> > >
_TEXT	ENDS
PUBLIC	??0?$_Iterator012@Ubidirectional_iterator_tag@std@@U?$pair@$$CBEPAVGameAction@ReplayTool@@@2@HPBU32@ABU32@U_Iterator_base12@2@@std@@QAE@ABU01@@Z ; std::_Iterator012<std::bidirectional_iterator_tag,std::pair<unsigned char const ,ReplayTool::GameAction *>,int,std::pair<unsigned char const ,ReplayTool::GameAction *> const *,std::pair<unsigned char const ,ReplayTool::GameAction *> const &,std::_Iterator_base12>::_Iterator012<std::bidirectional_iterator_tag,std::pair<unsigned char const ,ReplayTool::GameAction *>,int,std::pair<unsigned char const ,ReplayTool::GameAction *> const *,std::pair<unsigned char const ,ReplayTool::GameAction *> const &,std::_Iterator_base12>
; Function compile flags: /Odtp /RTCsu /ZI
;	COMDAT ??0?$_Tree_unchecked_const_iterator@V?$_Tree_val@V?$_Tmap_traits@EPAVGameAction@ReplayTool@@U?$less@E@std@@V?$allocator@U?$pair@$$CBEPAVGameAction@ReplayTool@@@std@@@4@$0A@@std@@@std@@U_Iterator_base12@2@@std@@QAE@ABV01@@Z
_TEXT	SEGMENT
_this$ = -8						; size = 4
___that$ = 8						; size = 4
??0?$_Tree_unchecked_const_iterator@V?$_Tree_val@V?$_Tmap_traits@EPAVGameAction@ReplayTool@@U?$less@E@std@@V?$allocator@U?$pair@$$CBEPAVGameAction@ReplayTool@@@std@@@4@$0A@@std@@@std@@U_Iterator_base12@2@@std@@QAE@ABV01@@Z PROC ; std::_Tree_unchecked_const_iterator<std::_Tree_val<std::_Tmap_traits<unsigned char,ReplayTool::GameAction *,std::less<unsigned char>,std::allocator<std::pair<unsigned char const ,ReplayTool::GameAction *> >,0> >,std::_Iterator_base12>::_Tree_unchecked_const_iterator<std::_Tree_val<std::_Tmap_traits<unsigned char,ReplayTool::GameAction *,std::less<unsigned char>,std::allocator<std::pair<unsigned char const ,ReplayTool::GameAction *> >,0> >,std::_Iterator_base12>, COMDAT
; _this$ = ecx
  00000	55		 push	 ebp
  00001	8b ec		 mov	 ebp, esp
  00003	81 ec cc 00 00
	00		 sub	 esp, 204		; 000000ccH
  00009	53		 push	 ebx
  0000a	56		 push	 esi
  0000b	57		 push	 edi
  0000c	51		 push	 ecx
  0000d	8d bd 34 ff ff
	ff		 lea	 edi, DWORD PTR [ebp-204]
  00013	b9 33 00 00 00	 mov	 ecx, 51			; 00000033H
  00018	b8 cc cc cc cc	 mov	 eax, -858993460		; ccccccccH
  0001d	f3 ab		 rep stosd
  0001f	59		 pop	 ecx
  00020	89 4d f8	 mov	 DWORD PTR _this$[ebp], ecx
  00023	8b 45 08	 mov	 eax, DWORD PTR ___that$[ebp]
  00026	50		 push	 eax
  00027	8b 4d f8	 mov	 ecx, DWORD PTR _this$[ebp]
  0002a	e8 00 00 00 00	 call	 ??0?$_Iterator012@Ubidirectional_iterator_tag@std@@U?$pair@$$CBEPAVGameAction@ReplayTool@@@2@HPBU32@ABU32@U_Iterator_base12@2@@std@@QAE@ABU01@@Z
  0002f	8b 45 f8	 mov	 eax, DWORD PTR _this$[ebp]
  00032	8b 4d 08	 mov	 ecx, DWORD PTR ___that$[ebp]
  00035	8b 51 08	 mov	 edx, DWORD PTR [ecx+8]
  00038	89 50 08	 mov	 DWORD PTR [eax+8], edx
  0003b	8b 45 f8	 mov	 eax, DWORD PTR _this$[ebp]
  0003e	5f		 pop	 edi
  0003f	5e		 pop	 esi
  00040	5b		 pop	 ebx
  00041	81 c4 cc 00 00
	00		 add	 esp, 204		; 000000ccH
  00047	3b ec		 cmp	 ebp, esp
  00049	e8 00 00 00 00	 call	 __RTC_CheckEsp
  0004e	8b e5		 mov	 esp, ebp
  00050	5d		 pop	 ebp
  00051	c2 04 00	 ret	 4
??0?$_Tree_unchecked_const_iterator@V?$_Tree_val@V?$_Tmap_traits@EPAVGameAction@ReplayTool@@U?$less@E@std@@V?$allocator@U?$pair@$$CBEPAVGameAction@ReplayTool@@@std@@@4@$0A@@std@@@std@@U_Iterator_base12@2@@std@@QAE@ABV01@@Z ENDP ; std::_Tree_unchecked_const_iterator<std::_Tree_val<std::_Tmap_traits<unsigned char,ReplayTool::GameAction *,std::less<unsigned char>,std::allocator<std::pair<unsigned char const ,ReplayTool::GameAction *> >,0> >,std::_Iterator_base12>::_Tree_unchecked_const_iterator<std::_Tree_val<std::_Tmap_traits<unsigned char,ReplayTool::GameAction *,std::less<unsigned char>,std::allocator<std::pair<unsigned char const ,ReplayTool::GameAction *> >,0> >,std::_Iterator_base12>
_TEXT	ENDS
PUBLIC	??0_Iterator_base12@std@@QAE@ABU01@@Z		; std::_Iterator_base12::_Iterator_base12
; Function compile flags: /Odtp /RTCsu /ZI
;	COMDAT ??0?$_Iterator012@Ubidirectional_iterator_tag@std@@U?$pair@$$CBEPAVGameAction@ReplayTool@@@2@HPBU32@ABU32@U_Iterator_base12@2@@std@@QAE@ABU01@@Z
_TEXT	SEGMENT
_this$ = -8						; size = 4
___that$ = 8						; size = 4
??0?$_Iterator012@Ubidirectional_iterator_tag@std@@U?$pair@$$CBEPAVGameAction@ReplayTool@@@2@HPBU32@ABU32@U_Iterator_base12@2@@std@@QAE@ABU01@@Z PROC ; std::_Iterator012<std::bidirectional_iterator_tag,std::pair<unsigned char const ,ReplayTool::GameAction *>,int,std::pair<unsigned char const ,ReplayTool::GameAction *> const *,std::pair<unsigned char const ,ReplayTool::GameAction *> const &,std::_Iterator_base12>::_Iterator012<std::bidirectional_iterator_tag,std::pair<unsigned char const ,ReplayTool::GameAction *>,int,std::pair<unsigned char const ,ReplayTool::GameAction *> const *,std::pair<unsigned char const ,ReplayTool::GameAction *> const &,std::_Iterator_base12>, COMDAT
; _this$ = ecx
  00000	55		 push	 ebp
  00001	8b ec		 mov	 ebp, esp
  00003	81 ec cc 00 00
	00		 sub	 esp, 204		; 000000ccH
  00009	53		 push	 ebx
  0000a	56		 push	 esi
  0000b	57		 push	 edi
  0000c	51		 push	 ecx
  0000d	8d bd 34 ff ff
	ff		 lea	 edi, DWORD PTR [ebp-204]
  00013	b9 33 00 00 00	 mov	 ecx, 51			; 00000033H
  00018	b8 cc cc cc cc	 mov	 eax, -858993460		; ccccccccH
  0001d	f3 ab		 rep stosd
  0001f	59		 pop	 ecx
  00020	89 4d f8	 mov	 DWORD PTR _this$[ebp], ecx
  00023	8b 45 08	 mov	 eax, DWORD PTR ___that$[ebp]
  00026	50		 push	 eax
  00027	8b 4d f8	 mov	 ecx, DWORD PTR _this$[ebp]
  0002a	e8 00 00 00 00	 call	 ??0_Iterator_base12@std@@QAE@ABU01@@Z ; std::_Iterator_base12::_Iterator_base12
  0002f	8b 45 f8	 mov	 eax, DWORD PTR _this$[ebp]
  00032	5f		 pop	 edi
  00033	5e		 pop	 esi
  00034	5b		 pop	 ebx
  00035	81 c4 cc 00 00
	00		 add	 esp, 204		; 000000ccH
  0003b	3b ec		 cmp	 ebp, esp
  0003d	e8 00 00 00 00	 call	 __RTC_CheckEsp
  00042	8b e5		 mov	 esp, ebp
  00044	5d		 pop	 ebp
  00045	c2 04 00	 ret	 4
??0?$_Iterator012@Ubidirectional_iterator_tag@std@@U?$pair@$$CBEPAVGameAction@ReplayTool@@@2@HPBU32@ABU32@U_Iterator_base12@2@@std@@QAE@ABU01@@Z ENDP ; std::_Iterator012<std::bidirectional_iterator_tag,std::pair<unsigned char const ,ReplayTool::GameAction *>,int,std::pair<unsigned char const ,ReplayTool::GameAction *> const *,std::pair<unsigned char const ,ReplayTool::GameAction *> const &,std::_Iterator_base12>::_Iterator012<std::bidirectional_iterator_tag,std::pair<unsigned char const ,ReplayTool::GameAction *>,int,std::pair<unsigned char const ,ReplayTool::GameAction *> const *,std::pair<unsigned char const ,ReplayTool::GameAction *> const &,std::_Iterator_base12>
_TEXT	ENDS
PUBLIC	??4_Iterator_base12@std@@QAEAAU01@ABU01@@Z	; std::_Iterator_base12::operator=
; Function compile flags: /Odtp /RTCsu /ZI
; File c:\program files (x86)\microsoft visual studio 10.0\vc\include\xutility
;	COMDAT ??0_Iterator_base12@std@@QAE@ABU01@@Z
_TEXT	SEGMENT
_this$ = -8						; size = 4
__Right$ = 8						; size = 4
??0_Iterator_base12@std@@QAE@ABU01@@Z PROC		; std::_Iterator_base12::_Iterator_base12, COMDAT
; _this$ = ecx

; 116  : 		{	// copy an iterator

  00000	55		 push	 ebp
  00001	8b ec		 mov	 ebp, esp
  00003	81 ec cc 00 00
	00		 sub	 esp, 204		; 000000ccH
  00009	53		 push	 ebx
  0000a	56		 push	 esi
  0000b	57		 push	 edi
  0000c	51		 push	 ecx
  0000d	8d bd 34 ff ff
	ff		 lea	 edi, DWORD PTR [ebp-204]
  00013	b9 33 00 00 00	 mov	 ecx, 51			; 00000033H
  00018	b8 cc cc cc cc	 mov	 eax, -858993460		; ccccccccH
  0001d	f3 ab		 rep stosd
  0001f	59		 pop	 ecx
  00020	89 4d f8	 mov	 DWORD PTR _this$[ebp], ecx
  00023	8b 45 f8	 mov	 eax, DWORD PTR _this$[ebp]
  00026	c7 00 00 00 00
	00		 mov	 DWORD PTR [eax], 0
  0002c	8b 45 f8	 mov	 eax, DWORD PTR _this$[ebp]
  0002f	c7 40 04 00 00
	00 00		 mov	 DWORD PTR [eax+4], 0

; 117  : 		*this = _Right;

  00036	8b 45 08	 mov	 eax, DWORD PTR __Right$[ebp]
  00039	50		 push	 eax
  0003a	8b 4d f8	 mov	 ecx, DWORD PTR _this$[ebp]
  0003d	e8 00 00 00 00	 call	 ??4_Iterator_base12@std@@QAEAAU01@ABU01@@Z ; std::_Iterator_base12::operator=

; 118  : 		}

  00042	8b 45 f8	 mov	 eax, DWORD PTR _this$[ebp]
  00045	5f		 pop	 edi
  00046	5e		 pop	 esi
  00047	5b		 pop	 ebx
  00048	81 c4 cc 00 00
	00		 add	 esp, 204		; 000000ccH
  0004e	3b ec		 cmp	 ebp, esp
  00050	e8 00 00 00 00	 call	 __RTC_CheckEsp
  00055	8b e5		 mov	 esp, ebp
  00057	5d		 pop	 ebp
  00058	c2 04 00	 ret	 4
??0_Iterator_base12@std@@QAE@ABU01@@Z ENDP		; std::_Iterator_base12::_Iterator_base12
_TEXT	ENDS
PUBLIC	?_Adopt@_Iterator_base12@std@@QAEXPBU_Container_base12@2@@Z ; std::_Iterator_base12::_Adopt
; Function compile flags: /Odtp /RTCsu /ZI
;	COMDAT ??4_Iterator_base12@std@@QAEAAU01@ABU01@@Z
_TEXT	SEGMENT
_this$ = -8						; size = 4
__Right$ = 8						; size = 4
??4_Iterator_base12@std@@QAEAAU01@ABU01@@Z PROC		; std::_Iterator_base12::operator=, COMDAT
; _this$ = ecx

; 121  : 		{	// assign an iterator

  00000	55		 push	 ebp
  00001	8b ec		 mov	 ebp, esp
  00003	81 ec cc 00 00
	00		 sub	 esp, 204		; 000000ccH
  00009	53		 push	 ebx
  0000a	56		 push	 esi
  0000b	57		 push	 edi
  0000c	51		 push	 ecx
  0000d	8d bd 34 ff ff
	ff		 lea	 edi, DWORD PTR [ebp-204]
  00013	b9 33 00 00 00	 mov	 ecx, 51			; 00000033H
  00018	b8 cc cc cc cc	 mov	 eax, -858993460		; ccccccccH
  0001d	f3 ab		 rep stosd
  0001f	59		 pop	 ecx
  00020	89 4d f8	 mov	 DWORD PTR _this$[ebp], ecx

; 122  : 		if (_Myproxy != _Right._Myproxy)

  00023	8b 45 f8	 mov	 eax, DWORD PTR _this$[ebp]
  00026	8b 4d 08	 mov	 ecx, DWORD PTR __Right$[ebp]
  00029	8b 10		 mov	 edx, DWORD PTR [eax]
  0002b	3b 11		 cmp	 edx, DWORD PTR [ecx]
  0002d	74 10		 je	 SHORT $LN1@operator@2

; 123  : 			_Adopt(_Right._Myproxy->_Mycont);

  0002f	8b 45 08	 mov	 eax, DWORD PTR __Right$[ebp]
  00032	8b 08		 mov	 ecx, DWORD PTR [eax]
  00034	8b 11		 mov	 edx, DWORD PTR [ecx]
  00036	52		 push	 edx
  00037	8b 4d f8	 mov	 ecx, DWORD PTR _this$[ebp]
  0003a	e8 00 00 00 00	 call	 ?_Adopt@_Iterator_base12@std@@QAEXPBU_Container_base12@2@@Z ; std::_Iterator_base12::_Adopt
$LN1@operator@2:

; 124  : 		return (*this);

  0003f	8b 45 f8	 mov	 eax, DWORD PTR _this$[ebp]

; 125  : 		}

  00042	5f		 pop	 edi
  00043	5e		 pop	 esi
  00044	5b		 pop	 ebx
  00045	81 c4 cc 00 00
	00		 add	 esp, 204		; 000000ccH
  0004b	3b ec		 cmp	 ebp, esp
  0004d	e8 00 00 00 00	 call	 __RTC_CheckEsp
  00052	8b e5		 mov	 esp, ebp
  00054	5d		 pop	 ebp
  00055	c2 04 00	 ret	 4
??4_Iterator_base12@std@@QAEAAU01@ABU01@@Z ENDP		; std::_Iterator_base12::operator=
_TEXT	ENDS
;	COMDAT xdata$x
xdata$x	SEGMENT
__unwindtable$?_Adopt@_Iterator_base12@std@@QAEXPBU_Container_base12@2@@Z DD 0ffffffffH
	DD	FLAT:__unwindfunclet$?_Adopt@_Iterator_base12@std@@QAEXPBU_Container_base12@2@@Z$0
__ehfuncinfo$?_Adopt@_Iterator_base12@std@@QAEXPBU_Container_base12@2@@Z DD 019930522H
	DD	01H
	DD	FLAT:__unwindtable$?_Adopt@_Iterator_base12@std@@QAEXPBU_Container_base12@2@@Z
	DD	2 DUP(00H)
	DD	2 DUP(00H)
	DD	00H
	DD	01H
; Function compile flags: /Odtp /RTCsu /ZI
xdata$x	ENDS
;	COMDAT ?_Adopt@_Iterator_base12@std@@QAEXPBU_Container_base12@2@@Z
_TEXT	SEGMENT
__Lock$11547 = -44					; size = 4
__Parent_proxy$11545 = -32				; size = 4
_this$ = -20						; size = 4
__$EHRec$ = -12						; size = 12
__Parent$ = 8						; size = 4
?_Adopt@_Iterator_base12@std@@QAEXPBU_Container_base12@2@@Z PROC ; std::_Iterator_base12::_Adopt, COMDAT
; _this$ = ecx

; 136  : 		{	// adopt this iterator by parent

  00000	55		 push	 ebp
  00001	8b ec		 mov	 ebp, esp
  00003	6a ff		 push	 -1
  00005	68 00 00 00 00	 push	 __ehhandler$?_Adopt@_Iterator_base12@std@@QAEXPBU_Container_base12@2@@Z
  0000a	64 a1 00 00 00
	00		 mov	 eax, DWORD PTR fs:0
  00010	50		 push	 eax
  00011	81 ec e4 00 00
	00		 sub	 esp, 228		; 000000e4H
  00017	53		 push	 ebx
  00018	56		 push	 esi
  00019	57		 push	 edi
  0001a	51		 push	 ecx
  0001b	8d bd 10 ff ff
	ff		 lea	 edi, DWORD PTR [ebp-240]
  00021	b9 39 00 00 00	 mov	 ecx, 57			; 00000039H
  00026	b8 cc cc cc cc	 mov	 eax, -858993460		; ccccccccH
  0002b	f3 ab		 rep stosd
  0002d	59		 pop	 ecx
  0002e	a1 00 00 00 00	 mov	 eax, DWORD PTR ___security_cookie
  00033	33 c5		 xor	 eax, ebp
  00035	50		 push	 eax
  00036	8d 45 f4	 lea	 eax, DWORD PTR __$EHRec$[ebp]
  00039	64 a3 00 00 00
	00		 mov	 DWORD PTR fs:0, eax
  0003f	89 4d ec	 mov	 DWORD PTR _this$[ebp], ecx

; 137  : 		if (_Parent != 0)

  00042	83 7d 08 00	 cmp	 DWORD PTR __Parent$[ebp], 0
  00046	74 6b		 je	 SHORT $LN3@Adopt

; 138  : 			{	// have a parent, do adoption
; 139  : 			_Container_proxy *_Parent_proxy = _Parent->_Myproxy;

  00048	8b 45 08	 mov	 eax, DWORD PTR __Parent$[ebp]
  0004b	8b 08		 mov	 ecx, DWORD PTR [eax]
  0004d	89 4d e0	 mov	 DWORD PTR __Parent_proxy$11545[ebp], ecx

; 140  : 
; 141  :  #if _ITERATOR_DEBUG_LEVEL == 2
; 142  : 			if (_Myproxy != _Parent_proxy)

  00050	8b 45 ec	 mov	 eax, DWORD PTR _this$[ebp]
  00053	8b 08		 mov	 ecx, DWORD PTR [eax]
  00055	3b 4d e0	 cmp	 ecx, DWORD PTR __Parent_proxy$11545[ebp]
  00058	74 59		 je	 SHORT $LN3@Adopt

; 143  : 				{	// change parentage
; 144  : 				_Lockit _Lock(_LOCK_DEBUG);

  0005a	8b f4		 mov	 esi, esp
  0005c	6a 03		 push	 3
  0005e	8d 4d d4	 lea	 ecx, DWORD PTR __Lock$11547[ebp]
  00061	ff 15 00 00 00
	00		 call	 DWORD PTR __imp_??0_Lockit@std@@QAE@H@Z
  00067	3b f4		 cmp	 esi, esp
  00069	e8 00 00 00 00	 call	 __RTC_CheckEsp
  0006e	c7 45 fc 00 00
	00 00		 mov	 DWORD PTR __$EHRec$[ebp+8], 0

; 145  : 				_Orphan_me();

  00075	8b 4d ec	 mov	 ecx, DWORD PTR _this$[ebp]
  00078	e8 00 00 00 00	 call	 ?_Orphan_me@_Iterator_base12@std@@QAEXXZ ; std::_Iterator_base12::_Orphan_me

; 146  : 				_Mynextiter = _Parent_proxy->_Myfirstiter;

  0007d	8b 45 ec	 mov	 eax, DWORD PTR _this$[ebp]
  00080	8b 4d e0	 mov	 ecx, DWORD PTR __Parent_proxy$11545[ebp]
  00083	8b 51 04	 mov	 edx, DWORD PTR [ecx+4]
  00086	89 50 04	 mov	 DWORD PTR [eax+4], edx

; 147  : 				_Parent_proxy->_Myfirstiter = this;

  00089	8b 45 e0	 mov	 eax, DWORD PTR __Parent_proxy$11545[ebp]
  0008c	8b 4d ec	 mov	 ecx, DWORD PTR _this$[ebp]
  0008f	89 48 04	 mov	 DWORD PTR [eax+4], ecx

; 148  : 				_Myproxy = _Parent_proxy;

  00092	8b 45 ec	 mov	 eax, DWORD PTR _this$[ebp]
  00095	8b 4d e0	 mov	 ecx, DWORD PTR __Parent_proxy$11545[ebp]
  00098	89 08		 mov	 DWORD PTR [eax], ecx

; 149  : 				}

  0009a	c7 45 fc ff ff
	ff ff		 mov	 DWORD PTR __$EHRec$[ebp+8], -1
  000a1	8b f4		 mov	 esi, esp
  000a3	8d 4d d4	 lea	 ecx, DWORD PTR __Lock$11547[ebp]
  000a6	ff 15 00 00 00
	00		 call	 DWORD PTR __imp_??1_Lockit@std@@QAE@XZ
  000ac	3b f4		 cmp	 esi, esp
  000ae	e8 00 00 00 00	 call	 __RTC_CheckEsp
$LN3@Adopt:

; 150  :  #else /* _ITERATOR_DEBUG_LEVEL == 2 */
; 151  : 			_Myproxy = _Parent_proxy;
; 152  :  #endif /* _ITERATOR_DEBUG_LEVEL == 2 */
; 153  : 			}
; 154  : 		}

  000b3	52		 push	 edx
  000b4	8b cd		 mov	 ecx, ebp
  000b6	50		 push	 eax
  000b7	8d 15 00 00 00
	00		 lea	 edx, DWORD PTR $LN9@Adopt
  000bd	e8 00 00 00 00	 call	 @_RTC_CheckStackVars@8
  000c2	58		 pop	 eax
  000c3	5a		 pop	 edx
  000c4	8b 4d f4	 mov	 ecx, DWORD PTR __$EHRec$[ebp]
  000c7	64 89 0d 00 00
	00 00		 mov	 DWORD PTR fs:0, ecx
  000ce	59		 pop	 ecx
  000cf	5f		 pop	 edi
  000d0	5e		 pop	 esi
  000d1	5b		 pop	 ebx
  000d2	81 c4 f0 00 00
	00		 add	 esp, 240		; 000000f0H
  000d8	3b ec		 cmp	 ebp, esp
  000da	e8 00 00 00 00	 call	 __RTC_CheckEsp
  000df	8b e5		 mov	 esp, ebp
  000e1	5d		 pop	 ebp
  000e2	c2 04 00	 ret	 4
  000e5	8d 49 00	 npad	 3
$LN9@Adopt:
  000e8	01 00 00 00	 DD	 1
  000ec	00 00 00 00	 DD	 $LN8@Adopt
$LN8@Adopt:
  000f0	d4 ff ff ff	 DD	 -44			; ffffffd4H
  000f4	04 00 00 00	 DD	 4
  000f8	00 00 00 00	 DD	 $LN6@Adopt
$LN6@Adopt:
  000fc	5f		 DB	 95			; 0000005fH
  000fd	4c		 DB	 76			; 0000004cH
  000fe	6f		 DB	 111			; 0000006fH
  000ff	63		 DB	 99			; 00000063H
  00100	6b		 DB	 107			; 0000006bH
  00101	00		 DB	 0
_TEXT	ENDS
;	COMDAT text$x
text$x	SEGMENT
__unwindfunclet$?_Adopt@_Iterator_base12@std@@QAEXPBU_Container_base12@2@@Z$0:
  00000	8b f4		 mov	 esi, esp
  00002	8d 4d d4	 lea	 ecx, DWORD PTR __Lock$11547[ebp]
  00005	ff 15 00 00 00
	00		 call	 DWORD PTR __imp_??1_Lockit@std@@QAE@XZ
  0000b	3b f4		 cmp	 esi, esp
  0000d	e9 00 00 00 00	 jmp	 __RTC_CheckEsp
__ehhandler$?_Adopt@_Iterator_base12@std@@QAEXPBU_Container_base12@2@@Z:
  00012	8b 54 24 08	 mov	 edx, DWORD PTR [esp+8]
  00016	8d 42 0c	 lea	 eax, DWORD PTR [edx+12]
  00019	8b 8a 0c ff ff
	ff		 mov	 ecx, DWORD PTR [edx-244]
  0001f	33 c8		 xor	 ecx, eax
  00021	e8 00 00 00 00	 call	 @__security_check_cookie@4
  00026	b8 00 00 00 00	 mov	 eax, OFFSET __ehfuncinfo$?_Adopt@_Iterator_base12@std@@QAEXPBU_Container_base12@2@@Z
  0002b	e9 00 00 00 00	 jmp	 ___CxxFrameHandler3
text$x	ENDS
?_Adopt@_Iterator_base12@std@@QAEXPBU_Container_base12@2@@Z ENDP ; std::_Iterator_base12::_Adopt
PUBLIC	?assign@?$basic_string@DU?$char_traits@D@std@@V?$allocator@D@2@@std@@QAEAAV12@PBDI@Z ; std::basic_string<char,std::char_traits<char>,std::allocator<char> >::assign
PUBLIC	?length@?$char_traits@D@std@@SAIPBD@Z		; std::char_traits<char>::length
PUBLIC	??$_Debug_pointer@D@std@@YAXPBDPB_WI@Z		; std::_Debug_pointer<char>
PUBLIC	??_C@_1IO@GEGAMENF@?$AAc?$AA?3?$AA?2?$AAp?$AAr?$AAo?$AAg?$AAr?$AAa?$AAm?$AA?5?$AAf?$AAi?$AAl?$AAe?$AAs?$AA?5?$AA?$CI?$AAx?$AA8?$AA6?$AA?$CJ?$AA?2?$AAm?$AAi?$AAc?$AAr?$AAo?$AAs?$AAo?$AAf?$AAt@ ; `string'
;	COMDAT ??_C@_1IO@GEGAMENF@?$AAc?$AA?3?$AA?2?$AAp?$AAr?$AAo?$AAg?$AAr?$AAa?$AAm?$AA?5?$AAf?$AAi?$AAl?$AAe?$AAs?$AA?5?$AA?$CI?$AAx?$AA8?$AA6?$AA?$CJ?$AA?2?$AAm?$AAi?$AAc?$AAr?$AAo?$AAs?$AAo?$AAf?$AAt@
; File c:\program files (x86)\microsoft visual studio 10.0\vc\include\xstring
CONST	SEGMENT
??_C@_1IO@GEGAMENF@?$AAc?$AA?3?$AA?2?$AAp?$AAr?$AAo?$AAg?$AAr?$AAa?$AAm?$AA?5?$AAf?$AAi?$AAl?$AAe?$AAs?$AA?5?$AA?$CI?$AAx?$AA8?$AA6?$AA?$CJ?$AA?2?$AAm?$AAi?$AAc?$AAr?$AAo?$AAs?$AAo?$AAf?$AAt@ DB 'c'
	DB	00H, ':', 00H, '\', 00H, 'p', 00H, 'r', 00H, 'o', 00H, 'g', 00H
	DB	'r', 00H, 'a', 00H, 'm', 00H, ' ', 00H, 'f', 00H, 'i', 00H, 'l'
	DB	00H, 'e', 00H, 's', 00H, ' ', 00H, '(', 00H, 'x', 00H, '8', 00H
	DB	'6', 00H, ')', 00H, '\', 00H, 'm', 00H, 'i', 00H, 'c', 00H, 'r'
	DB	00H, 'o', 00H, 's', 00H, 'o', 00H, 'f', 00H, 't', 00H, ' ', 00H
	DB	'v', 00H, 'i', 00H, 's', 00H, 'u', 00H, 'a', 00H, 'l', 00H, ' '
	DB	00H, 's', 00H, 't', 00H, 'u', 00H, 'd', 00H, 'i', 00H, 'o', 00H
	DB	' ', 00H, '1', 00H, '0', 00H, '.', 00H, '0', 00H, '\', 00H, 'v'
	DB	00H, 'c', 00H, '\', 00H, 'i', 00H, 'n', 00H, 'c', 00H, 'l', 00H
	DB	'u', 00H, 'd', 00H, 'e', 00H, '\', 00H, 'x', 00H, 's', 00H, 't'
	DB	00H, 'r', 00H, 'i', 00H, 'n', 00H, 'g', 00H, 00H, 00H ; `string'
; Function compile flags: /Odtp /RTCsu /ZI
CONST	ENDS
;	COMDAT ?assign@?$basic_string@DU?$char_traits@D@std@@V?$allocator@D@2@@std@@QAEAAV12@PBD@Z
_TEXT	SEGMENT
_this$ = -8						; size = 4
__Ptr$ = 8						; size = 4
?assign@?$basic_string@DU?$char_traits@D@std@@V?$allocator@D@2@@std@@QAEAAV12@PBD@Z PROC ; std::basic_string<char,std::char_traits<char>,std::allocator<char> >::assign, COMDAT
; _this$ = ecx

; 928  : 		{	// assign [_Ptr, <null>)

  00000	55		 push	 ebp
  00001	8b ec		 mov	 ebp, esp
  00003	81 ec cc 00 00
	00		 sub	 esp, 204		; 000000ccH
  00009	53		 push	 ebx
  0000a	56		 push	 esi
  0000b	57		 push	 edi
  0000c	51		 push	 ecx
  0000d	8d bd 34 ff ff
	ff		 lea	 edi, DWORD PTR [ebp-204]
  00013	b9 33 00 00 00	 mov	 ecx, 51			; 00000033H
  00018	b8 cc cc cc cc	 mov	 eax, -858993460		; ccccccccH
  0001d	f3 ab		 rep stosd
  0001f	59		 pop	 ecx
  00020	89 4d f8	 mov	 DWORD PTR _this$[ebp], ecx

; 929  : 		_DEBUG_POINTER(_Ptr);

  00023	68 a1 03 00 00	 push	 929			; 000003a1H
  00028	68 00 00 00 00	 push	 OFFSET ??_C@_1IO@GEGAMENF@?$AAc?$AA?3?$AA?2?$AAp?$AAr?$AAo?$AAg?$AAr?$AAa?$AAm?$AA?5?$AAf?$AAi?$AAl?$AAe?$AAs?$AA?5?$AA?$CI?$AAx?$AA8?$AA6?$AA?$CJ?$AA?2?$AAm?$AAi?$AAc?$AAr?$AAo?$AAs?$AAo?$AAf?$AAt@
  0002d	8b 45 08	 mov	 eax, DWORD PTR __Ptr$[ebp]
  00030	50		 push	 eax
  00031	e8 00 00 00 00	 call	 ??$_Debug_pointer@D@std@@YAXPBDPB_WI@Z ; std::_Debug_pointer<char>
  00036	83 c4 0c	 add	 esp, 12			; 0000000cH

; 930  : 		return (assign(_Ptr, _Traits::length(_Ptr)));

  00039	8b 45 08	 mov	 eax, DWORD PTR __Ptr$[ebp]
  0003c	50		 push	 eax
  0003d	e8 00 00 00 00	 call	 ?length@?$char_traits@D@std@@SAIPBD@Z ; std::char_traits<char>::length
  00042	83 c4 04	 add	 esp, 4
  00045	50		 push	 eax
  00046	8b 4d 08	 mov	 ecx, DWORD PTR __Ptr$[ebp]
  00049	51		 push	 ecx
  0004a	8b 4d f8	 mov	 ecx, DWORD PTR _this$[ebp]
  0004d	e8 00 00 00 00	 call	 ?assign@?$basic_string@DU?$char_traits@D@std@@V?$allocator@D@2@@std@@QAEAAV12@PBDI@Z ; std::basic_string<char,std::char_traits<char>,std::allocator<char> >::assign

; 931  : 		}

  00052	5f		 pop	 edi
  00053	5e		 pop	 esi
  00054	5b		 pop	 ebx
  00055	81 c4 cc 00 00
	00		 add	 esp, 204		; 000000ccH
  0005b	3b ec		 cmp	 ebp, esp
  0005d	e8 00 00 00 00	 call	 __RTC_CheckEsp
  00062	8b e5		 mov	 esp, ebp
  00064	5d		 pop	 ebp
  00065	c2 04 00	 ret	 4
?assign@?$basic_string@DU?$char_traits@D@std@@V?$allocator@D@2@@std@@QAEAAV12@PBD@Z ENDP ; std::basic_string<char,std::char_traits<char>,std::allocator<char> >::assign
_TEXT	ENDS
EXTRN	_strlen:PROC
; Function compile flags: /Odtp /RTCsu /ZI
; File c:\program files (x86)\microsoft visual studio 10.0\vc\include\iosfwd
;	COMDAT ?length@?$char_traits@D@std@@SAIPBD@Z
_TEXT	SEGMENT
__First$ = 8						; size = 4
?length@?$char_traits@D@std@@SAIPBD@Z PROC		; std::char_traits<char>::length, COMDAT

; 490  : 		{	// find length of null-terminated string

  00000	55		 push	 ebp
  00001	8b ec		 mov	 ebp, esp
  00003	81 ec c0 00 00
	00		 sub	 esp, 192		; 000000c0H
  00009	53		 push	 ebx
  0000a	56		 push	 esi
  0000b	57		 push	 edi
  0000c	8d bd 40 ff ff
	ff		 lea	 edi, DWORD PTR [ebp-192]
  00012	b9 30 00 00 00	 mov	 ecx, 48			; 00000030H
  00017	b8 cc cc cc cc	 mov	 eax, -858993460		; ccccccccH
  0001c	f3 ab		 rep stosd

; 491  : 		return (_CSTD strlen(_First));

  0001e	8b 45 08	 mov	 eax, DWORD PTR __First$[ebp]
  00021	50		 push	 eax
  00022	e8 00 00 00 00	 call	 _strlen
  00027	83 c4 04	 add	 esp, 4

; 492  : 		}

  0002a	5f		 pop	 edi
  0002b	5e		 pop	 esi
  0002c	5b		 pop	 ebx
  0002d	81 c4 c0 00 00
	00		 add	 esp, 192		; 000000c0H
  00033	3b ec		 cmp	 ebp, esp
  00035	e8 00 00 00 00	 call	 __RTC_CheckEsp
  0003a	8b e5		 mov	 esp, ebp
  0003c	5d		 pop	 ebp
  0003d	c3		 ret	 0
?length@?$char_traits@D@std@@SAIPBD@Z ENDP		; std::char_traits<char>::length
_TEXT	ENDS
PUBLIC	?_Eos@?$basic_string@DU?$char_traits@D@std@@V?$allocator@D@2@@std@@QAEXI@Z ; std::basic_string<char,std::char_traits<char>,std::allocator<char> >::_Eos
PUBLIC	?deallocate@?$allocator@D@std@@QAEXPADI@Z	; std::allocator<char>::deallocate
PUBLIC	?copy@?$char_traits@D@std@@SAPADPADPBDI@Z	; std::char_traits<char>::copy
; Function compile flags: /Odtp /RTCsu /ZI
; File c:\program files (x86)\microsoft visual studio 10.0\vc\include\xstring
;	COMDAT ?_Tidy@?$basic_string@DU?$char_traits@D@std@@V?$allocator@D@2@@std@@QAEX_NI@Z
_TEXT	SEGMENT
__Ptr$160448 = -20					; size = 4
_this$ = -8						; size = 4
__Built$ = 8						; size = 1
__Newsize$ = 12						; size = 4
?_Tidy@?$basic_string@DU?$char_traits@D@std@@V?$allocator@D@2@@std@@QAEX_NI@Z PROC ; std::basic_string<char,std::char_traits<char>,std::allocator<char> >::_Tidy, COMDAT
; _this$ = ecx

; 1987 : 		{	// initialize buffer, deallocating any storage

  00000	55		 push	 ebp
  00001	8b ec		 mov	 ebp, esp
  00003	81 ec d8 00 00
	00		 sub	 esp, 216		; 000000d8H
  00009	53		 push	 ebx
  0000a	56		 push	 esi
  0000b	57		 push	 edi
  0000c	51		 push	 ecx
  0000d	8d bd 28 ff ff
	ff		 lea	 edi, DWORD PTR [ebp-216]
  00013	b9 36 00 00 00	 mov	 ecx, 54			; 00000036H
  00018	b8 cc cc cc cc	 mov	 eax, -858993460		; ccccccccH
  0001d	f3 ab		 rep stosd
  0001f	59		 pop	 ecx
  00020	89 4d f8	 mov	 DWORD PTR _this$[ebp], ecx

; 1988 : 		if (!_Built)

  00023	0f b6 45 08	 movzx	 eax, BYTE PTR __Built$[ebp]
  00027	85 c0		 test	 eax, eax
  00029	75 02		 jne	 SHORT $LN4@Tidy
  0002b	eb 48		 jmp	 SHORT $LN3@Tidy
$LN4@Tidy:

; 1989 : 			;
; 1990 : 		else if (this->_BUF_SIZE <= this->_Myres)

  0002d	8b 45 f8	 mov	 eax, DWORD PTR _this$[ebp]
  00030	83 78 18 10	 cmp	 DWORD PTR [eax+24], 16	; 00000010H
  00034	72 3f		 jb	 SHORT $LN3@Tidy

; 1991 : 			{	// copy any leftovers to small buffer and deallocate
; 1992 : 			_Elem *_Ptr = this->_Bx._Ptr;

  00036	8b 45 f8	 mov	 eax, DWORD PTR _this$[ebp]
  00039	8b 48 04	 mov	 ecx, DWORD PTR [eax+4]
  0003c	89 4d ec	 mov	 DWORD PTR __Ptr$160448[ebp], ecx

; 1993 : 			if (0 < _Newsize)

  0003f	83 7d 0c 00	 cmp	 DWORD PTR __Newsize$[ebp], 0
  00043	76 17		 jbe	 SHORT $LN1@Tidy

; 1994 : 				_Traits::copy(this->_Bx._Buf, _Ptr, _Newsize);

  00045	8b 45 0c	 mov	 eax, DWORD PTR __Newsize$[ebp]
  00048	50		 push	 eax
  00049	8b 4d ec	 mov	 ecx, DWORD PTR __Ptr$160448[ebp]
  0004c	51		 push	 ecx
  0004d	8b 55 f8	 mov	 edx, DWORD PTR _this$[ebp]
  00050	83 c2 04	 add	 edx, 4
  00053	52		 push	 edx
  00054	e8 00 00 00 00	 call	 ?copy@?$char_traits@D@std@@SAPADPADPBDI@Z ; std::char_traits<char>::copy
  00059	83 c4 0c	 add	 esp, 12			; 0000000cH
$LN1@Tidy:

; 1995 : 			this->_Alval.deallocate(_Ptr, this->_Myres + 1);

  0005c	8b 45 f8	 mov	 eax, DWORD PTR _this$[ebp]
  0005f	8b 48 18	 mov	 ecx, DWORD PTR [eax+24]
  00062	83 c1 01	 add	 ecx, 1
  00065	51		 push	 ecx
  00066	8b 55 ec	 mov	 edx, DWORD PTR __Ptr$160448[ebp]
  00069	52		 push	 edx
  0006a	8b 4d f8	 mov	 ecx, DWORD PTR _this$[ebp]
  0006d	83 c1 1c	 add	 ecx, 28			; 0000001cH
  00070	e8 00 00 00 00	 call	 ?deallocate@?$allocator@D@std@@QAEXPADI@Z ; std::allocator<char>::deallocate
$LN3@Tidy:

; 1996 : 			}
; 1997 : 		this->_Myres = this->_BUF_SIZE - 1;

  00075	8b 45 f8	 mov	 eax, DWORD PTR _this$[ebp]
  00078	c7 40 18 0f 00
	00 00		 mov	 DWORD PTR [eax+24], 15	; 0000000fH

; 1998 : 		_Eos(_Newsize);

  0007f	8b 45 0c	 mov	 eax, DWORD PTR __Newsize$[ebp]
  00082	50		 push	 eax
  00083	8b 4d f8	 mov	 ecx, DWORD PTR _this$[ebp]
  00086	e8 00 00 00 00	 call	 ?_Eos@?$basic_string@DU?$char_traits@D@std@@V?$allocator@D@2@@std@@QAEXI@Z ; std::basic_string<char,std::char_traits<char>,std::allocator<char> >::_Eos

; 1999 : 		}

  0008b	5f		 pop	 edi
  0008c	5e		 pop	 esi
  0008d	5b		 pop	 ebx
  0008e	81 c4 d8 00 00
	00		 add	 esp, 216		; 000000d8H
  00094	3b ec		 cmp	 ebp, esp
  00096	e8 00 00 00 00	 call	 __RTC_CheckEsp
  0009b	8b e5		 mov	 esp, ebp
  0009d	5d		 pop	 ebp
  0009e	c2 08 00	 ret	 8
?_Tidy@?$basic_string@DU?$char_traits@D@std@@V?$allocator@D@2@@std@@QAEX_NI@Z ENDP ; std::basic_string<char,std::char_traits<char>,std::allocator<char> >::_Tidy
_TEXT	ENDS
EXTRN	_memcpy:PROC
; Function compile flags: /Odtp /RTCsu /ZI
; File c:\program files (x86)\microsoft visual studio 10.0\vc\include\iosfwd
;	COMDAT ?copy@?$char_traits@D@std@@SAPADPADPBDI@Z
_TEXT	SEGMENT
__First1$ = 8						; size = 4
__First2$ = 12						; size = 4
__Count$ = 16						; size = 4
?copy@?$char_traits@D@std@@SAPADPADPBDI@Z PROC		; std::char_traits<char>::copy, COMDAT

; 496  : 		{	// copy [_First1, _First1 + _Count) to [_First2, ...)

  00000	55		 push	 ebp
  00001	8b ec		 mov	 ebp, esp
  00003	81 ec c0 00 00
	00		 sub	 esp, 192		; 000000c0H
  00009	53		 push	 ebx
  0000a	56		 push	 esi
  0000b	57		 push	 edi
  0000c	8d bd 40 ff ff
	ff		 lea	 edi, DWORD PTR [ebp-192]
  00012	b9 30 00 00 00	 mov	 ecx, 48			; 00000030H
  00017	b8 cc cc cc cc	 mov	 eax, -858993460		; ccccccccH
  0001c	f3 ab		 rep stosd

; 497  : 		return ((_Elem *)_CSTD memcpy(_First1, _First2, _Count));

  0001e	8b 45 10	 mov	 eax, DWORD PTR __Count$[ebp]
  00021	50		 push	 eax
  00022	8b 4d 0c	 mov	 ecx, DWORD PTR __First2$[ebp]
  00025	51		 push	 ecx
  00026	8b 55 08	 mov	 edx, DWORD PTR __First1$[ebp]
  00029	52		 push	 edx
  0002a	e8 00 00 00 00	 call	 _memcpy
  0002f	83 c4 0c	 add	 esp, 12			; 0000000cH

; 498  : 		}

  00032	5f		 pop	 edi
  00033	5e		 pop	 esi
  00034	5b		 pop	 ebx
  00035	81 c4 c0 00 00
	00		 add	 esp, 192		; 000000c0H
  0003b	3b ec		 cmp	 ebp, esp
  0003d	e8 00 00 00 00	 call	 __RTC_CheckEsp
  00042	8b e5		 mov	 esp, ebp
  00044	5d		 pop	 ebp
  00045	c3		 ret	 0
?copy@?$char_traits@D@std@@SAPADPADPBDI@Z ENDP		; std::char_traits<char>::copy
_TEXT	ENDS
PUBLIC	??$_Cons_val@V?$allocator@U_Container_proxy@std@@@std@@U_Container_proxy@2@U32@@std@@YAXAAV?$allocator@U_Container_proxy@std@@@0@PAU_Container_proxy@0@$$QAU20@@Z ; std::_Cons_val<std::allocator<std::_Container_proxy>,std::_Container_proxy,std::_Container_proxy>
PUBLIC	??0_Container_proxy@std@@QAE@XZ			; std::_Container_proxy::_Container_proxy
PUBLIC	?allocate@?$allocator@U_Container_proxy@std@@@std@@QAEPAU_Container_proxy@2@I@Z ; std::allocator<std::_Container_proxy>::allocate
PUBLIC	??$?0D@?$allocator@U_Container_proxy@std@@@std@@QAE@ABV?$allocator@D@1@@Z ; std::allocator<std::_Container_proxy>::allocator<std::_Container_proxy><char>
PUBLIC	??0?$allocator@D@std@@QAE@ABV01@@Z		; std::allocator<char>::allocator<char>
EXTRN	__imp_??1_Container_base12@std@@QAE@XZ:PROC
EXTRN	__imp_??0_Container_base12@std@@QAE@XZ:PROC
;	COMDAT xdata$x
; File c:\program files (x86)\microsoft visual studio 10.0\vc\include\xstring
xdata$x	SEGMENT
__unwindtable$??0?$_String_val@DV?$allocator@D@std@@@std@@QAE@V?$allocator@D@1@@Z DD 0ffffffffH
	DD	FLAT:__unwindfunclet$??0?$_String_val@DV?$allocator@D@std@@@std@@QAE@V?$allocator@D@1@@Z$0
__ehfuncinfo$??0?$_String_val@DV?$allocator@D@std@@@std@@QAE@V?$allocator@D@1@@Z DD 019930522H
	DD	01H
	DD	FLAT:__unwindtable$??0?$_String_val@DV?$allocator@D@std@@@std@@QAE@V?$allocator@D@1@@Z
	DD	2 DUP(00H)
	DD	2 DUP(00H)
	DD	00H
	DD	01H
; Function compile flags: /Odtp /RTCsu /ZI
xdata$x	ENDS
;	COMDAT ??0?$_String_val@DV?$allocator@D@std@@@std@@QAE@V?$allocator@D@1@@Z
_TEXT	SEGMENT
$T173180 = -240						; size = 8
__Alproxy$ = -29					; size = 1
_this$ = -20						; size = 4
__$EHRec$ = -12						; size = 12
__Al$ = 8						; size = 1
??0?$_String_val@DV?$allocator@D@std@@@std@@QAE@V?$allocator@D@1@@Z PROC ; std::_String_val<char,std::allocator<char> >::_String_val<char,std::allocator<char> >, COMDAT
; _this$ = ecx

; 466  : 		{	// construct allocator from _Al

  00000	55		 push	 ebp
  00001	8b ec		 mov	 ebp, esp
  00003	6a ff		 push	 -1
  00005	68 00 00 00 00	 push	 __ehhandler$??0?$_String_val@DV?$allocator@D@std@@@std@@QAE@V?$allocator@D@1@@Z
  0000a	64 a1 00 00 00
	00		 mov	 eax, DWORD PTR fs:0
  00010	50		 push	 eax
  00011	81 ec e8 00 00
	00		 sub	 esp, 232		; 000000e8H
  00017	53		 push	 ebx
  00018	56		 push	 esi
  00019	57		 push	 edi
  0001a	51		 push	 ecx
  0001b	8d bd 0c ff ff
	ff		 lea	 edi, DWORD PTR [ebp-244]
  00021	b9 3a 00 00 00	 mov	 ecx, 58			; 0000003aH
  00026	b8 cc cc cc cc	 mov	 eax, -858993460		; ccccccccH
  0002b	f3 ab		 rep stosd
  0002d	59		 pop	 ecx
  0002e	a1 00 00 00 00	 mov	 eax, DWORD PTR ___security_cookie
  00033	33 c5		 xor	 eax, ebp
  00035	50		 push	 eax
  00036	8d 45 f4	 lea	 eax, DWORD PTR __$EHRec$[ebp]
  00039	64 a3 00 00 00
	00		 mov	 DWORD PTR fs:0, eax
  0003f	89 4d ec	 mov	 DWORD PTR _this$[ebp], ecx
  00042	8b f4		 mov	 esi, esp
  00044	8b 4d ec	 mov	 ecx, DWORD PTR _this$[ebp]
  00047	ff 15 00 00 00
	00		 call	 DWORD PTR __imp_??0_Container_base12@std@@QAE@XZ
  0004d	3b f4		 cmp	 esi, esp
  0004f	e8 00 00 00 00	 call	 __RTC_CheckEsp
  00054	c7 45 fc 00 00
	00 00		 mov	 DWORD PTR __$EHRec$[ebp+8], 0
  0005b	8d 45 08	 lea	 eax, DWORD PTR __Al$[ebp]
  0005e	50		 push	 eax
  0005f	8b 4d ec	 mov	 ecx, DWORD PTR _this$[ebp]
  00062	83 c1 1c	 add	 ecx, 28			; 0000001cH
  00065	e8 00 00 00 00	 call	 ??0?$allocator@D@std@@QAE@ABV01@@Z ; std::allocator<char>::allocator<char>

; 467  : 		typename _Alloc::template rebind<_Container_proxy>::other
; 468  : 			_Alproxy(_Alval);

  0006a	8b 45 ec	 mov	 eax, DWORD PTR _this$[ebp]
  0006d	83 c0 1c	 add	 eax, 28			; 0000001cH
  00070	50		 push	 eax
  00071	8d 4d e3	 lea	 ecx, DWORD PTR __Alproxy$[ebp]
  00074	e8 00 00 00 00	 call	 ??$?0D@?$allocator@U_Container_proxy@std@@@std@@QAE@ABV?$allocator@D@1@@Z ; std::allocator<std::_Container_proxy>::allocator<std::_Container_proxy><char>

; 469  : 		this->_Myproxy = _Alproxy.allocate(1);

  00079	6a 01		 push	 1
  0007b	8d 4d e3	 lea	 ecx, DWORD PTR __Alproxy$[ebp]
  0007e	e8 00 00 00 00	 call	 ?allocate@?$allocator@U_Container_proxy@std@@@std@@QAEPAU_Container_proxy@2@I@Z ; std::allocator<std::_Container_proxy>::allocate
  00083	8b 4d ec	 mov	 ecx, DWORD PTR _this$[ebp]
  00086	89 01		 mov	 DWORD PTR [ecx], eax

; 470  : 		_Cons_val(_Alproxy, this->_Myproxy, _Container_proxy());

  00088	8d 8d 10 ff ff
	ff		 lea	 ecx, DWORD PTR $T173180[ebp]
  0008e	e8 00 00 00 00	 call	 ??0_Container_proxy@std@@QAE@XZ ; std::_Container_proxy::_Container_proxy
  00093	50		 push	 eax
  00094	8b 45 ec	 mov	 eax, DWORD PTR _this$[ebp]
  00097	8b 08		 mov	 ecx, DWORD PTR [eax]
  00099	51		 push	 ecx
  0009a	8d 55 e3	 lea	 edx, DWORD PTR __Alproxy$[ebp]
  0009d	52		 push	 edx
  0009e	e8 00 00 00 00	 call	 ??$_Cons_val@V?$allocator@U_Container_proxy@std@@@std@@U_Container_proxy@2@U32@@std@@YAXAAV?$allocator@U_Container_proxy@std@@@0@PAU_Container_proxy@0@$$QAU20@@Z ; std::_Cons_val<std::allocator<std::_Container_proxy>,std::_Container_proxy,std::_Container_proxy>
  000a3	83 c4 0c	 add	 esp, 12			; 0000000cH

; 471  : 		this->_Myproxy->_Mycont = this;

  000a6	8b 45 ec	 mov	 eax, DWORD PTR _this$[ebp]
  000a9	8b 08		 mov	 ecx, DWORD PTR [eax]
  000ab	8b 55 ec	 mov	 edx, DWORD PTR _this$[ebp]
  000ae	89 11		 mov	 DWORD PTR [ecx], edx

; 472  : 		}

  000b0	c7 45 fc ff ff
	ff ff		 mov	 DWORD PTR __$EHRec$[ebp+8], -1
  000b7	8b 45 ec	 mov	 eax, DWORD PTR _this$[ebp]
  000ba	52		 push	 edx
  000bb	8b cd		 mov	 ecx, ebp
  000bd	50		 push	 eax
  000be	8d 15 00 00 00
	00		 lea	 edx, DWORD PTR $LN7@String_val
  000c4	e8 00 00 00 00	 call	 @_RTC_CheckStackVars@8
  000c9	58		 pop	 eax
  000ca	5a		 pop	 edx
  000cb	8b 4d f4	 mov	 ecx, DWORD PTR __$EHRec$[ebp]
  000ce	64 89 0d 00 00
	00 00		 mov	 DWORD PTR fs:0, ecx
  000d5	59		 pop	 ecx
  000d6	5f		 pop	 edi
  000d7	5e		 pop	 esi
  000d8	5b		 pop	 ebx
  000d9	81 c4 f4 00 00
	00		 add	 esp, 244		; 000000f4H
  000df	3b ec		 cmp	 ebp, esp
  000e1	e8 00 00 00 00	 call	 __RTC_CheckEsp
  000e6	8b e5		 mov	 esp, ebp
  000e8	5d		 pop	 ebp
  000e9	c2 04 00	 ret	 4
$LN7@String_val:
  000ec	01 00 00 00	 DD	 1
  000f0	00 00 00 00	 DD	 $LN6@String_val
$LN6@String_val:
  000f4	e3 ff ff ff	 DD	 -29			; ffffffe3H
  000f8	01 00 00 00	 DD	 1
  000fc	00 00 00 00	 DD	 $LN4@String_val
$LN4@String_val:
  00100	5f		 DB	 95			; 0000005fH
  00101	41		 DB	 65			; 00000041H
  00102	6c		 DB	 108			; 0000006cH
  00103	70		 DB	 112			; 00000070H
  00104	72		 DB	 114			; 00000072H
  00105	6f		 DB	 111			; 0000006fH
  00106	78		 DB	 120			; 00000078H
  00107	79		 DB	 121			; 00000079H
  00108	00		 DB	 0
_TEXT	ENDS
;	COMDAT text$x
text$x	SEGMENT
__unwindfunclet$??0?$_String_val@DV?$allocator@D@std@@@std@@QAE@V?$allocator@D@1@@Z$0:
  00000	8b f4		 mov	 esi, esp
  00002	8b 4d ec	 mov	 ecx, DWORD PTR _this$[ebp]
  00005	ff 15 00 00 00
	00		 call	 DWORD PTR __imp_??1_Container_base12@std@@QAE@XZ
  0000b	3b f4		 cmp	 esi, esp
  0000d	e9 00 00 00 00	 jmp	 __RTC_CheckEsp
__ehhandler$??0?$_String_val@DV?$allocator@D@std@@@std@@QAE@V?$allocator@D@1@@Z:
  00012	8b 54 24 08	 mov	 edx, DWORD PTR [esp+8]
  00016	8d 42 0c	 lea	 eax, DWORD PTR [edx+12]
  00019	8b 8a 08 ff ff
	ff		 mov	 ecx, DWORD PTR [edx-248]
  0001f	33 c8		 xor	 ecx, eax
  00021	e8 00 00 00 00	 call	 @__security_check_cookie@4
  00026	b8 00 00 00 00	 mov	 eax, OFFSET __ehfuncinfo$??0?$_String_val@DV?$allocator@D@std@@@std@@QAE@V?$allocator@D@1@@Z
  0002b	e9 00 00 00 00	 jmp	 ___CxxFrameHandler3
text$x	ENDS
??0?$_String_val@DV?$allocator@D@std@@@std@@QAE@V?$allocator@D@1@@Z ENDP ; std::_String_val<char,std::allocator<char> >::_String_val<char,std::allocator<char> >
; Function compile flags: /Odtp /RTCsu /ZI
; File c:\program files (x86)\microsoft visual studio 10.0\vc\include\xutility
;	COMDAT ??0_Container_proxy@std@@QAE@XZ
_TEXT	SEGMENT
_this$ = -8						; size = 4
??0_Container_proxy@std@@QAE@XZ PROC			; std::_Container_proxy::_Container_proxy, COMDAT
; _this$ = ecx

; 65   : 		{	// construct from pointers

  00000	55		 push	 ebp
  00001	8b ec		 mov	 ebp, esp
  00003	81 ec cc 00 00
	00		 sub	 esp, 204		; 000000ccH
  00009	53		 push	 ebx
  0000a	56		 push	 esi
  0000b	57		 push	 edi
  0000c	51		 push	 ecx
  0000d	8d bd 34 ff ff
	ff		 lea	 edi, DWORD PTR [ebp-204]
  00013	b9 33 00 00 00	 mov	 ecx, 51			; 00000033H
  00018	b8 cc cc cc cc	 mov	 eax, -858993460		; ccccccccH
  0001d	f3 ab		 rep stosd
  0001f	59		 pop	 ecx
  00020	89 4d f8	 mov	 DWORD PTR _this$[ebp], ecx
  00023	8b 45 f8	 mov	 eax, DWORD PTR _this$[ebp]
  00026	c7 00 00 00 00
	00		 mov	 DWORD PTR [eax], 0
  0002c	8b 45 f8	 mov	 eax, DWORD PTR _this$[ebp]
  0002f	c7 40 04 00 00
	00 00		 mov	 DWORD PTR [eax+4], 0

; 66   : 		}

  00036	8b 45 f8	 mov	 eax, DWORD PTR _this$[ebp]
  00039	5f		 pop	 edi
  0003a	5e		 pop	 esi
  0003b	5b		 pop	 ebx
  0003c	8b e5		 mov	 esp, ebp
  0003e	5d		 pop	 ebp
  0003f	c3		 ret	 0
??0_Container_proxy@std@@QAE@XZ ENDP			; std::_Container_proxy::_Container_proxy
_TEXT	ENDS
PUBLIC	?deallocate@?$allocator@U_Container_proxy@std@@@std@@QAEXPAU_Container_proxy@2@I@Z ; std::allocator<std::_Container_proxy>::deallocate
PUBLIC	??$_Dest_val@V?$allocator@U_Container_proxy@std@@@std@@U_Container_proxy@2@@std@@YAXAAV?$allocator@U_Container_proxy@std@@@0@PAU_Container_proxy@0@@Z ; std::_Dest_val<std::allocator<std::_Container_proxy>,std::_Container_proxy>
EXTRN	__imp_?_Orphan_all@_Container_base12@std@@QAEXXZ:PROC
;	COMDAT xdata$x
; File c:\program files (x86)\microsoft visual studio 10.0\vc\include\xstring
xdata$x	SEGMENT
__unwindtable$??1?$_String_val@DV?$allocator@D@std@@@std@@QAE@XZ DD 0ffffffffH
	DD	FLAT:__unwindfunclet$??1?$_String_val@DV?$allocator@D@std@@@std@@QAE@XZ$0
__ehfuncinfo$??1?$_String_val@DV?$allocator@D@std@@@std@@QAE@XZ DD 019930522H
	DD	01H
	DD	FLAT:__unwindtable$??1?$_String_val@DV?$allocator@D@std@@@std@@QAE@XZ
	DD	2 DUP(00H)
	DD	2 DUP(00H)
	DD	00H
	DD	01H
; Function compile flags: /Odtp /RTCsu /ZI
xdata$x	ENDS
;	COMDAT ??1?$_String_val@DV?$allocator@D@std@@@std@@QAE@XZ
_TEXT	SEGMENT
__Alproxy$ = -29					; size = 1
_this$ = -20						; size = 4
__$EHRec$ = -12						; size = 12
??1?$_String_val@DV?$allocator@D@std@@@std@@QAE@XZ PROC	; std::_String_val<char,std::allocator<char> >::~_String_val<char,std::allocator<char> >, COMDAT
; _this$ = ecx

; 475  : 		{	// destroy the object

  00000	55		 push	 ebp
  00001	8b ec		 mov	 ebp, esp
  00003	6a ff		 push	 -1
  00005	68 00 00 00 00	 push	 __ehhandler$??1?$_String_val@DV?$allocator@D@std@@@std@@QAE@XZ
  0000a	64 a1 00 00 00
	00		 mov	 eax, DWORD PTR fs:0
  00010	50		 push	 eax
  00011	81 ec d8 00 00
	00		 sub	 esp, 216		; 000000d8H
  00017	53		 push	 ebx
  00018	56		 push	 esi
  00019	57		 push	 edi
  0001a	51		 push	 ecx
  0001b	8d bd 1c ff ff
	ff		 lea	 edi, DWORD PTR [ebp-228]
  00021	b9 36 00 00 00	 mov	 ecx, 54			; 00000036H
  00026	b8 cc cc cc cc	 mov	 eax, -858993460		; ccccccccH
  0002b	f3 ab		 rep stosd
  0002d	59		 pop	 ecx
  0002e	a1 00 00 00 00	 mov	 eax, DWORD PTR ___security_cookie
  00033	33 c5		 xor	 eax, ebp
  00035	50		 push	 eax
  00036	8d 45 f4	 lea	 eax, DWORD PTR __$EHRec$[ebp]
  00039	64 a3 00 00 00
	00		 mov	 DWORD PTR fs:0, eax
  0003f	89 4d ec	 mov	 DWORD PTR _this$[ebp], ecx
  00042	c7 45 fc 00 00
	00 00		 mov	 DWORD PTR __$EHRec$[ebp+8], 0

; 476  : 		typename _Alloc::template rebind<_Container_proxy>::other
; 477  : 			_Alproxy(_Alval);

  00049	8b 45 ec	 mov	 eax, DWORD PTR _this$[ebp]
  0004c	83 c0 1c	 add	 eax, 28			; 0000001cH
  0004f	50		 push	 eax
  00050	8d 4d e3	 lea	 ecx, DWORD PTR __Alproxy$[ebp]
  00053	e8 00 00 00 00	 call	 ??$?0D@?$allocator@U_Container_proxy@std@@@std@@QAE@ABV?$allocator@D@1@@Z ; std::allocator<std::_Container_proxy>::allocator<std::_Container_proxy><char>

; 478  : 		this->_Orphan_all();

  00058	8b f4		 mov	 esi, esp
  0005a	8b 4d ec	 mov	 ecx, DWORD PTR _this$[ebp]
  0005d	ff 15 00 00 00
	00		 call	 DWORD PTR __imp_?_Orphan_all@_Container_base12@std@@QAEXXZ
  00063	3b f4		 cmp	 esi, esp
  00065	e8 00 00 00 00	 call	 __RTC_CheckEsp

; 479  : 		_Dest_val(_Alproxy, this->_Myproxy);

  0006a	8b 45 ec	 mov	 eax, DWORD PTR _this$[ebp]
  0006d	8b 08		 mov	 ecx, DWORD PTR [eax]
  0006f	51		 push	 ecx
  00070	8d 55 e3	 lea	 edx, DWORD PTR __Alproxy$[ebp]
  00073	52		 push	 edx
  00074	e8 00 00 00 00	 call	 ??$_Dest_val@V?$allocator@U_Container_proxy@std@@@std@@U_Container_proxy@2@@std@@YAXAAV?$allocator@U_Container_proxy@std@@@0@PAU_Container_proxy@0@@Z ; std::_Dest_val<std::allocator<std::_Container_proxy>,std::_Container_proxy>
  00079	83 c4 08	 add	 esp, 8

; 480  : 		_Alproxy.deallocate(this->_Myproxy, 1);

  0007c	6a 01		 push	 1
  0007e	8b 45 ec	 mov	 eax, DWORD PTR _this$[ebp]
  00081	8b 08		 mov	 ecx, DWORD PTR [eax]
  00083	51		 push	 ecx
  00084	8d 4d e3	 lea	 ecx, DWORD PTR __Alproxy$[ebp]
  00087	e8 00 00 00 00	 call	 ?deallocate@?$allocator@U_Container_proxy@std@@@std@@QAEXPAU_Container_proxy@2@I@Z ; std::allocator<std::_Container_proxy>::deallocate

; 481  : 		this->_Myproxy = 0;

  0008c	8b 45 ec	 mov	 eax, DWORD PTR _this$[ebp]
  0008f	c7 00 00 00 00
	00		 mov	 DWORD PTR [eax], 0

; 482  : 		}

  00095	c7 45 fc ff ff
	ff ff		 mov	 DWORD PTR __$EHRec$[ebp+8], -1
  0009c	8b f4		 mov	 esi, esp
  0009e	8b 4d ec	 mov	 ecx, DWORD PTR _this$[ebp]
  000a1	ff 15 00 00 00
	00		 call	 DWORD PTR __imp_??1_Container_base12@std@@QAE@XZ
  000a7	3b f4		 cmp	 esi, esp
  000a9	e8 00 00 00 00	 call	 __RTC_CheckEsp
  000ae	52		 push	 edx
  000af	8b cd		 mov	 ecx, ebp
  000b1	50		 push	 eax
  000b2	8d 15 00 00 00
	00		 lea	 edx, DWORD PTR $LN7@String_val@2
  000b8	e8 00 00 00 00	 call	 @_RTC_CheckStackVars@8
  000bd	58		 pop	 eax
  000be	5a		 pop	 edx
  000bf	8b 4d f4	 mov	 ecx, DWORD PTR __$EHRec$[ebp]
  000c2	64 89 0d 00 00
	00 00		 mov	 DWORD PTR fs:0, ecx
  000c9	59		 pop	 ecx
  000ca	5f		 pop	 edi
  000cb	5e		 pop	 esi
  000cc	5b		 pop	 ebx
  000cd	81 c4 e4 00 00
	00		 add	 esp, 228		; 000000e4H
  000d3	3b ec		 cmp	 ebp, esp
  000d5	e8 00 00 00 00	 call	 __RTC_CheckEsp
  000da	8b e5		 mov	 esp, ebp
  000dc	5d		 pop	 ebp
  000dd	c3		 ret	 0
  000de	8b ff		 npad	 2
$LN7@String_val@2:
  000e0	01 00 00 00	 DD	 1
  000e4	00 00 00 00	 DD	 $LN6@String_val@2
$LN6@String_val@2:
  000e8	e3 ff ff ff	 DD	 -29			; ffffffe3H
  000ec	01 00 00 00	 DD	 1
  000f0	00 00 00 00	 DD	 $LN4@String_val@2
$LN4@String_val@2:
  000f4	5f		 DB	 95			; 0000005fH
  000f5	41		 DB	 65			; 00000041H
  000f6	6c		 DB	 108			; 0000006cH
  000f7	70		 DB	 112			; 00000070H
  000f8	72		 DB	 114			; 00000072H
  000f9	6f		 DB	 111			; 0000006fH
  000fa	78		 DB	 120			; 00000078H
  000fb	79		 DB	 121			; 00000079H
  000fc	00		 DB	 0
_TEXT	ENDS
;	COMDAT text$x
text$x	SEGMENT
__unwindfunclet$??1?$_String_val@DV?$allocator@D@std@@@std@@QAE@XZ$0:
  00000	8b f4		 mov	 esi, esp
  00002	8b 4d ec	 mov	 ecx, DWORD PTR _this$[ebp]
  00005	ff 15 00 00 00
	00		 call	 DWORD PTR __imp_??1_Container_base12@std@@QAE@XZ
  0000b	3b f4		 cmp	 esi, esp
  0000d	e9 00 00 00 00	 jmp	 __RTC_CheckEsp
__ehhandler$??1?$_String_val@DV?$allocator@D@std@@@std@@QAE@XZ:
  00012	8b 54 24 08	 mov	 edx, DWORD PTR [esp+8]
  00016	8d 42 0c	 lea	 eax, DWORD PTR [edx+12]
  00019	8b 8a 18 ff ff
	ff		 mov	 ecx, DWORD PTR [edx-232]
  0001f	33 c8		 xor	 ecx, eax
  00021	e8 00 00 00 00	 call	 @__security_check_cookie@4
  00026	b8 00 00 00 00	 mov	 eax, OFFSET __ehfuncinfo$??1?$_String_val@DV?$allocator@D@std@@@std@@QAE@XZ
  0002b	e9 00 00 00 00	 jmp	 ___CxxFrameHandler3
text$x	ENDS
??1?$_String_val@DV?$allocator@D@std@@@std@@QAE@XZ ENDP	; std::_String_val<char,std::allocator<char> >::~_String_val<char,std::allocator<char> >
; Function compile flags: /Odtp /RTCsu /ZI
; File c:\program files (x86)\microsoft visual studio 10.0\vc\include\xmemory
;	COMDAT ??0?$allocator@D@std@@QAE@XZ
_TEXT	SEGMENT
_this$ = -8						; size = 4
??0?$allocator@D@std@@QAE@XZ PROC			; std::allocator<char>::allocator<char>, COMDAT
; _this$ = ecx

; 161  : 	_ALLOCATOR() _THROW0()

  00000	55		 push	 ebp
  00001	8b ec		 mov	 ebp, esp
  00003	81 ec cc 00 00
	00		 sub	 esp, 204		; 000000ccH
  00009	53		 push	 ebx
  0000a	56		 push	 esi
  0000b	57		 push	 edi
  0000c	51		 push	 ecx
  0000d	8d bd 34 ff ff
	ff		 lea	 edi, DWORD PTR [ebp-204]
  00013	b9 33 00 00 00	 mov	 ecx, 51			; 00000033H
  00018	b8 cc cc cc cc	 mov	 eax, -858993460		; ccccccccH
  0001d	f3 ab		 rep stosd
  0001f	59		 pop	 ecx
  00020	89 4d f8	 mov	 DWORD PTR _this$[ebp], ecx

; 162  : 		{	// construct default allocator (do nothing)
; 163  : 		}

  00023	8b 45 f8	 mov	 eax, DWORD PTR _this$[ebp]
  00026	5f		 pop	 edi
  00027	5e		 pop	 esi
  00028	5b		 pop	 ebx
  00029	8b e5		 mov	 esp, ebp
  0002b	5d		 pop	 ebp
  0002c	c3		 ret	 0
??0?$allocator@D@std@@QAE@XZ ENDP			; std::allocator<char>::allocator<char>
; Function compile flags: /Odtp /RTCsu /ZI
_TEXT	ENDS
;	COMDAT ??0?$allocator@D@std@@QAE@ABV01@@Z
_TEXT	SEGMENT
_this$ = -8						; size = 4
___formal$ = 8						; size = 4
??0?$allocator@D@std@@QAE@ABV01@@Z PROC			; std::allocator<char>::allocator<char>, COMDAT
; _this$ = ecx

; 165  : 	_ALLOCATOR(const _ALLOCATOR<_Ty>&) _THROW0()

  00000	55		 push	 ebp
  00001	8b ec		 mov	 ebp, esp
  00003	81 ec cc 00 00
	00		 sub	 esp, 204		; 000000ccH
  00009	53		 push	 ebx
  0000a	56		 push	 esi
  0000b	57		 push	 edi
  0000c	51		 push	 ecx
  0000d	8d bd 34 ff ff
	ff		 lea	 edi, DWORD PTR [ebp-204]
  00013	b9 33 00 00 00	 mov	 ecx, 51			; 00000033H
  00018	b8 cc cc cc cc	 mov	 eax, -858993460		; ccccccccH
  0001d	f3 ab		 rep stosd
  0001f	59		 pop	 ecx
  00020	89 4d f8	 mov	 DWORD PTR _this$[ebp], ecx

; 166  : 		{	// construct by copying (do nothing)
; 167  : 		}

  00023	8b 45 f8	 mov	 eax, DWORD PTR _this$[ebp]
  00026	5f		 pop	 edi
  00027	5e		 pop	 esi
  00028	5b		 pop	 ebx
  00029	8b e5		 mov	 esp, ebp
  0002b	5d		 pop	 ebp
  0002c	c2 04 00	 ret	 4
??0?$allocator@D@std@@QAE@ABV01@@Z ENDP			; std::allocator<char>::allocator<char>
; Function compile flags: /Odtp /RTCsu /ZI
_TEXT	ENDS
;	COMDAT ?deallocate@?$allocator@D@std@@QAEXPADI@Z
_TEXT	SEGMENT
_this$ = -8						; size = 4
__Ptr$ = 8						; size = 4
___formal$ = 12						; size = 4
?deallocate@?$allocator@D@std@@QAEXPADI@Z PROC		; std::allocator<char>::deallocate, COMDAT
; _this$ = ecx

; 181  : 		{	// deallocate object at _Ptr, ignore size

  00000	55		 push	 ebp
  00001	8b ec		 mov	 ebp, esp
  00003	81 ec cc 00 00
	00		 sub	 esp, 204		; 000000ccH
  00009	53		 push	 ebx
  0000a	56		 push	 esi
  0000b	57		 push	 edi
  0000c	51		 push	 ecx
  0000d	8d bd 34 ff ff
	ff		 lea	 edi, DWORD PTR [ebp-204]
  00013	b9 33 00 00 00	 mov	 ecx, 51			; 00000033H
  00018	b8 cc cc cc cc	 mov	 eax, -858993460		; ccccccccH
  0001d	f3 ab		 rep stosd
  0001f	59		 pop	 ecx
  00020	89 4d f8	 mov	 DWORD PTR _this$[ebp], ecx

; 182  : 		::operator delete(_Ptr);

  00023	8b 45 08	 mov	 eax, DWORD PTR __Ptr$[ebp]
  00026	50		 push	 eax
  00027	e8 00 00 00 00	 call	 ??3@YAXPAX@Z		; operator delete
  0002c	83 c4 04	 add	 esp, 4

; 183  : 		}

  0002f	5f		 pop	 edi
  00030	5e		 pop	 esi
  00031	5b		 pop	 ebx
  00032	81 c4 cc 00 00
	00		 add	 esp, 204		; 000000ccH
  00038	3b ec		 cmp	 ebp, esp
  0003a	e8 00 00 00 00	 call	 __RTC_CheckEsp
  0003f	8b e5		 mov	 esp, ebp
  00041	5d		 pop	 ebp
  00042	c2 08 00	 ret	 8
?deallocate@?$allocator@D@std@@QAEXPADI@Z ENDP		; std::allocator<char>::deallocate
_TEXT	ENDS
PUBLIC	??0?$_Tree_val@V?$_Tmap_traits@EPAVGameAction@ReplayTool@@U?$less@E@std@@V?$allocator@U?$pair@$$CBEPAVGameAction@ReplayTool@@@std@@@4@$0A@@std@@@std@@QAE@ABU?$less@E@1@V?$allocator@U?$pair@$$CBEPAVGameAction@ReplayTool@@@std@@@1@@Z ; std::_Tree_val<std::_Tmap_traits<unsigned char,ReplayTool::GameAction *,std::less<unsigned char>,std::allocator<std::pair<unsigned char const ,ReplayTool::GameAction *> >,0> >::_Tree_val<std::_Tmap_traits<unsigned char,ReplayTool::GameAction *,std::less<unsigned char>,std::allocator<std::pair<unsigned char const ,ReplayTool::GameAction *> >,0> >
PUBLIC	??0?$allocator@U?$pair@$$CBEPAVGameAction@ReplayTool@@@std@@@std@@QAE@ABV01@@Z ; std::allocator<std::pair<unsigned char const ,ReplayTool::GameAction *> >::allocator<std::pair<unsigned char const ,ReplayTool::GameAction *> >
; Function compile flags: /Odtp /RTCsu /ZI
; File c:\program files (x86)\microsoft visual studio 10.0\vc\include\xtree
;	COMDAT ??0?$_Tree@V?$_Tmap_traits@EPAVGameAction@ReplayTool@@U?$less@E@std@@V?$allocator@U?$pair@$$CBEPAVGameAction@ReplayTool@@@std@@@4@$0A@@std@@@std@@QAE@ABU?$less@E@1@ABV?$allocator@U?$pair@$$CBEPAVGameAction@ReplayTool@@@std@@@1@@Z
_TEXT	SEGMENT
$T173213 = -212						; size = 4
_this$ = -8						; size = 4
__Parg$ = 8						; size = 4
__Al$ = 12						; size = 4
??0?$_Tree@V?$_Tmap_traits@EPAVGameAction@ReplayTool@@U?$less@E@std@@V?$allocator@U?$pair@$$CBEPAVGameAction@ReplayTool@@@std@@@4@$0A@@std@@@std@@QAE@ABU?$less@E@1@ABV?$allocator@U?$pair@$$CBEPAVGameAction@ReplayTool@@@std@@@1@@Z PROC ; std::_Tree<std::_Tmap_traits<unsigned char,ReplayTool::GameAction *,std::less<unsigned char>,std::allocator<std::pair<unsigned char const ,ReplayTool::GameAction *> >,0> >::_Tree<std::_Tmap_traits<unsigned char,ReplayTool::GameAction *,std::less<unsigned char>,std::allocator<std::pair<unsigned char const ,ReplayTool::GameAction *> >,0> >, COMDAT
; _this$ = ecx

; 698  : 		{	// construct empty tree

  00000	55		 push	 ebp
  00001	8b ec		 mov	 ebp, esp
  00003	81 ec d8 00 00
	00		 sub	 esp, 216		; 000000d8H
  00009	53		 push	 ebx
  0000a	56		 push	 esi
  0000b	57		 push	 edi
  0000c	51		 push	 ecx
  0000d	8d bd 28 ff ff
	ff		 lea	 edi, DWORD PTR [ebp-216]
  00013	b9 36 00 00 00	 mov	 ecx, 54			; 00000036H
  00018	b8 cc cc cc cc	 mov	 eax, -858993460		; ccccccccH
  0001d	f3 ab		 rep stosd
  0001f	59		 pop	 ecx
  00020	89 4d f8	 mov	 DWORD PTR _this$[ebp], ecx
  00023	51		 push	 ecx
  00024	8b cc		 mov	 ecx, esp
  00026	89 a5 2c ff ff
	ff		 mov	 DWORD PTR $T173213[ebp], esp
  0002c	8b 45 0c	 mov	 eax, DWORD PTR __Al$[ebp]
  0002f	50		 push	 eax
  00030	e8 00 00 00 00	 call	 ??0?$allocator@U?$pair@$$CBEPAVGameAction@ReplayTool@@@std@@@std@@QAE@ABV01@@Z ; std::allocator<std::pair<unsigned char const ,ReplayTool::GameAction *> >::allocator<std::pair<unsigned char const ,ReplayTool::GameAction *> >
  00035	8b 4d 08	 mov	 ecx, DWORD PTR __Parg$[ebp]
  00038	51		 push	 ecx
  00039	8b 4d f8	 mov	 ecx, DWORD PTR _this$[ebp]
  0003c	e8 00 00 00 00	 call	 ??0?$_Tree_val@V?$_Tmap_traits@EPAVGameAction@ReplayTool@@U?$less@E@std@@V?$allocator@U?$pair@$$CBEPAVGameAction@ReplayTool@@@std@@@4@$0A@@std@@@std@@QAE@ABU?$less@E@1@V?$allocator@U?$pair@$$CBEPAVGameAction@ReplayTool@@@std@@@1@@Z ; std::_Tree_val<std::_Tmap_traits<unsigned char,ReplayTool::GameAction *,std::less<unsigned char>,std::allocator<std::pair<unsigned char const ,ReplayTool::GameAction *> >,0> >::_Tree_val<std::_Tmap_traits<unsigned char,ReplayTool::GameAction *,std::less<unsigned char>,std::allocator<std::pair<unsigned char const ,ReplayTool::GameAction *> >,0> >

; 699  : 		}

  00041	8b 45 f8	 mov	 eax, DWORD PTR _this$[ebp]
  00044	5f		 pop	 edi
  00045	5e		 pop	 esi
  00046	5b		 pop	 ebx
  00047	81 c4 d8 00 00
	00		 add	 esp, 216		; 000000d8H
  0004d	3b ec		 cmp	 ebp, esp
  0004f	e8 00 00 00 00	 call	 __RTC_CheckEsp
  00054	8b e5		 mov	 esp, ebp
  00056	5d		 pop	 ebp
  00057	c2 08 00	 ret	 8
??0?$_Tree@V?$_Tmap_traits@EPAVGameAction@ReplayTool@@U?$less@E@std@@V?$allocator@U?$pair@$$CBEPAVGameAction@ReplayTool@@@std@@@4@$0A@@std@@@std@@QAE@ABU?$less@E@1@ABV?$allocator@U?$pair@$$CBEPAVGameAction@ReplayTool@@@std@@@1@@Z ENDP ; std::_Tree<std::_Tmap_traits<unsigned char,ReplayTool::GameAction *,std::less<unsigned char>,std::allocator<std::pair<unsigned char const ,ReplayTool::GameAction *> >,0> >::_Tree<std::_Tmap_traits<unsigned char,ReplayTool::GameAction *,std::less<unsigned char>,std::allocator<std::pair<unsigned char const ,ReplayTool::GameAction *> >,0> >
_TEXT	ENDS
PUBLIC	?_Lbound@?$_Tree@V?$_Tmap_traits@EPAVGameAction@ReplayTool@@U?$less@E@std@@V?$allocator@U?$pair@$$CBEPAVGameAction@ReplayTool@@@std@@@4@$0A@@std@@@std@@IAEPAU_Node@?$_Tree_nod@V?$_Tmap_traits@EPAVGameAction@ReplayTool@@U?$less@E@std@@V?$allocator@U?$pair@$$CBEPAVGameAction@ReplayTool@@@std@@@4@$0A@@std@@@2@ABE@Z ; std::_Tree<std::_Tmap_traits<unsigned char,ReplayTool::GameAction *,std::less<unsigned char>,std::allocator<std::pair<unsigned char const ,ReplayTool::GameAction *> >,0> >::_Lbound
; Function compile flags: /Odtp /RTCsu /ZI
;	COMDAT ?lower_bound@?$_Tree@V?$_Tmap_traits@EPAVGameAction@ReplayTool@@U?$less@E@std@@V?$allocator@U?$pair@$$CBEPAVGameAction@ReplayTool@@@std@@@4@$0A@@std@@@std@@QAE?AV?$_Tree_iterator@V?$_Tree_val@V?$_Tmap_traits@EPAVGameAction@ReplayTool@@U?$less@E@std@@V?$allocator@U?$pair@$$CBEPAVGameAction@ReplayTool@@@std@@@4@$0A@@std@@@std@@@2@ABE@Z
_TEXT	SEGMENT
$T173218 = -212						; size = 4
_this$ = -8						; size = 4
___$ReturnUdt$ = 8					; size = 4
__Keyval$ = 12						; size = 4
?lower_bound@?$_Tree@V?$_Tmap_traits@EPAVGameAction@ReplayTool@@U?$less@E@std@@V?$allocator@U?$pair@$$CBEPAVGameAction@ReplayTool@@@std@@@4@$0A@@std@@@std@@QAE?AV?$_Tree_iterator@V?$_Tree_val@V?$_Tmap_traits@EPAVGameAction@ReplayTool@@U?$less@E@std@@V?$allocator@U?$pair@$$CBEPAVGameAction@ReplayTool@@@std@@@4@$0A@@std@@@std@@@2@ABE@Z PROC ; std::_Tree<std::_Tmap_traits<unsigned char,ReplayTool::GameAction *,std::less<unsigned char>,std::allocator<std::pair<unsigned char const ,ReplayTool::GameAction *> >,0> >::lower_bound, COMDAT
; _this$ = ecx

; 1449 : 		{	// find leftmost node not less than _Keyval in mutable tree

  00000	55		 push	 ebp
  00001	8b ec		 mov	 ebp, esp
  00003	81 ec d8 00 00
	00		 sub	 esp, 216		; 000000d8H
  00009	53		 push	 ebx
  0000a	56		 push	 esi
  0000b	57		 push	 edi
  0000c	51		 push	 ecx
  0000d	8d bd 28 ff ff
	ff		 lea	 edi, DWORD PTR [ebp-216]
  00013	b9 36 00 00 00	 mov	 ecx, 54			; 00000036H
  00018	b8 cc cc cc cc	 mov	 eax, -858993460		; ccccccccH
  0001d	f3 ab		 rep stosd
  0001f	59		 pop	 ecx
  00020	89 4d f8	 mov	 DWORD PTR _this$[ebp], ecx
  00023	c7 85 2c ff ff
	ff 00 00 00 00	 mov	 DWORD PTR $T173218[ebp], 0

; 1450 : 		return (iterator(_Lbound(_Keyval), this));

  0002d	8b 45 f8	 mov	 eax, DWORD PTR _this$[ebp]
  00030	50		 push	 eax
  00031	8b 4d 0c	 mov	 ecx, DWORD PTR __Keyval$[ebp]
  00034	51		 push	 ecx
  00035	8b 4d f8	 mov	 ecx, DWORD PTR _this$[ebp]
  00038	e8 00 00 00 00	 call	 ?_Lbound@?$_Tree@V?$_Tmap_traits@EPAVGameAction@ReplayTool@@U?$less@E@std@@V?$allocator@U?$pair@$$CBEPAVGameAction@ReplayTool@@@std@@@4@$0A@@std@@@std@@IAEPAU_Node@?$_Tree_nod@V?$_Tmap_traits@EPAVGameAction@ReplayTool@@U?$less@E@std@@V?$allocator@U?$pair@$$CBEPAVGameAction@ReplayTool@@@std@@@4@$0A@@std@@@2@ABE@Z ; std::_Tree<std::_Tmap_traits<unsigned char,ReplayTool::GameAction *,std::less<unsigned char>,std::allocator<std::pair<unsigned char const ,ReplayTool::GameAction *> >,0> >::_Lbound
  0003d	50		 push	 eax
  0003e	8b 4d 08	 mov	 ecx, DWORD PTR ___$ReturnUdt$[ebp]
  00041	e8 00 00 00 00	 call	 ??0?$_Tree_iterator@V?$_Tree_val@V?$_Tmap_traits@EPAVGameAction@ReplayTool@@U?$less@E@std@@V?$allocator@U?$pair@$$CBEPAVGameAction@ReplayTool@@@std@@@4@$0A@@std@@@std@@@std@@QAE@PAU_Node@?$_Tree_nod@V?$_Tmap_traits@EPAVGameAction@ReplayTool@@U?$less@E@std@@V?$allocator@U?$pair@$$CBEPAVGameAction@ReplayTool@@@std@@@4@$0A@@std@@@1@PBV?$_Tree_val@V?$_Tmap_traits@EPAVGameAction@ReplayTool@@U?$less@E@std@@V?$allocator@U?$pair@$$CBEPAVGameAction@ReplayTool@@@std@@@4@$0A@@std@@@1@@Z ; std::_Tree_iterator<std::_Tree_val<std::_Tmap_traits<unsigned char,ReplayTool::GameAction *,std::less<unsigned char>,std::allocator<std::pair<unsigned char const ,ReplayTool::GameAction *> >,0> > >::_Tree_iterator<std::_Tree_val<std::_Tmap_traits<unsigned char,ReplayTool::GameAction *,std::less<unsigned char>,std::allocator<std::pair<unsigned char const ,ReplayTool::GameAction *> >,0> > >
  00046	8b 95 2c ff ff
	ff		 mov	 edx, DWORD PTR $T173218[ebp]
  0004c	83 ca 01	 or	 edx, 1
  0004f	89 95 2c ff ff
	ff		 mov	 DWORD PTR $T173218[ebp], edx
  00055	8b 45 08	 mov	 eax, DWORD PTR ___$ReturnUdt$[ebp]

; 1451 : 		}

  00058	5f		 pop	 edi
  00059	5e		 pop	 esi
  0005a	5b		 pop	 ebx
  0005b	81 c4 d8 00 00
	00		 add	 esp, 216		; 000000d8H
  00061	3b ec		 cmp	 ebp, esp
  00063	e8 00 00 00 00	 call	 __RTC_CheckEsp
  00068	8b e5		 mov	 esp, ebp
  0006a	5d		 pop	 ebp
  0006b	c2 08 00	 ret	 8
?lower_bound@?$_Tree@V?$_Tmap_traits@EPAVGameAction@ReplayTool@@U?$less@E@std@@V?$allocator@U?$pair@$$CBEPAVGameAction@ReplayTool@@@std@@@4@$0A@@std@@@std@@QAE?AV?$_Tree_iterator@V?$_Tree_val@V?$_Tmap_traits@EPAVGameAction@ReplayTool@@U?$less@E@std@@V?$allocator@U?$pair@$$CBEPAVGameAction@ReplayTool@@@std@@@4@$0A@@std@@@std@@@2@ABE@Z ENDP ; std::_Tree<std::_Tmap_traits<unsigned char,ReplayTool::GameAction *,std::less<unsigned char>,std::allocator<std::pair<unsigned char const ,ReplayTool::GameAction *> >,0> >::lower_bound
_TEXT	ENDS
PUBLIC	??$_Kfn@$$CBEPAVGameAction@ReplayTool@@@?$_Tmap_traits@EPAVGameAction@ReplayTool@@U?$less@E@std@@V?$allocator@U?$pair@$$CBEPAVGameAction@ReplayTool@@@std@@@4@$0A@@std@@SAABEABU?$pair@$$CBEPAVGameAction@ReplayTool@@@1@@Z ; std::_Tmap_traits<unsigned char,ReplayTool::GameAction *,std::less<unsigned char>,std::allocator<std::pair<unsigned char const ,ReplayTool::GameAction *> >,0>::_Kfn<unsigned char const ,ReplayTool::GameAction *>
PUBLIC	?_Myval@?$_Tree_val@V?$_Tmap_traits@EPAVGameAction@ReplayTool@@U?$less@E@std@@V?$allocator@U?$pair@$$CBEPAVGameAction@ReplayTool@@@std@@@4@$0A@@std@@@std@@SAAAU?$pair@$$CBEPAVGameAction@ReplayTool@@@2@PAU_Node@?$_Tree_nod@V?$_Tmap_traits@EPAVGameAction@ReplayTool@@U?$less@E@std@@V?$allocator@U?$pair@$$CBEPAVGameAction@ReplayTool@@@std@@@4@$0A@@std@@@2@@Z ; std::_Tree_val<std::_Tmap_traits<unsigned char,ReplayTool::GameAction *,std::less<unsigned char>,std::allocator<std::pair<unsigned char const ,ReplayTool::GameAction *> >,0> >::_Myval
; Function compile flags: /Odtp /RTCsu /ZI
;	COMDAT ?_Key@?$_Tree_val@V?$_Tmap_traits@EPAVGameAction@ReplayTool@@U?$less@E@std@@V?$allocator@U?$pair@$$CBEPAVGameAction@ReplayTool@@@std@@@4@$0A@@std@@@std@@SAAAEPAU_Node@?$_Tree_nod@V?$_Tmap_traits@EPAVGameAction@ReplayTool@@U?$less@E@std@@V?$allocator@U?$pair@$$CBEPAVGameAction@ReplayTool@@@std@@@4@$0A@@std@@@2@@Z
_TEXT	SEGMENT
__Pnode$ = 8						; size = 4
?_Key@?$_Tree_val@V?$_Tmap_traits@EPAVGameAction@ReplayTool@@U?$less@E@std@@V?$allocator@U?$pair@$$CBEPAVGameAction@ReplayTool@@@std@@@4@$0A@@std@@@std@@SAAAEPAU_Node@?$_Tree_nod@V?$_Tmap_traits@EPAVGameAction@ReplayTool@@U?$less@E@std@@V?$allocator@U?$pair@$$CBEPAVGameAction@ReplayTool@@@std@@@4@$0A@@std@@@2@@Z PROC ; std::_Tree_val<std::_Tmap_traits<unsigned char,ReplayTool::GameAction *,std::less<unsigned char>,std::allocator<std::pair<unsigned char const ,ReplayTool::GameAction *> >,0> >::_Key, COMDAT

; 616  : 		{	// return reference to key in node

  00000	55		 push	 ebp
  00001	8b ec		 mov	 ebp, esp
  00003	81 ec c0 00 00
	00		 sub	 esp, 192		; 000000c0H
