; Listing generated by Microsoft (R) Optimizing Compiler Version 16.00.40219.01 

	TITLE	C:\Fili\Development\GP\RtsAiResearch\bwapi\bwapi\libReplayTool\Replay.cpp
	.686P
	.XMM
	include listing.inc
	.model	flat

INCLUDELIB MSVCRTD
INCLUDELIB OLDNAMES

PUBLIC	?replayHeader@@3Ureplay_resource@ReplayTool@@A	; replayHeader
PUBLIC	?value@?$integral_constant@_N$0A@@tr1@std@@2_NB	; std::tr1::integral_constant<bool,0>::value
PUBLIC	?value@?$integral_constant@_N$00@tr1@std@@2_NB	; std::tr1::integral_constant<bool,1>::value
PUBLIC	?value@?$integral_constant@I$0A@@tr1@std@@2IB	; std::tr1::integral_constant<unsigned int,0>::value
PUBLIC	?_Rank@?$_Arithmetic_traits@_N@std@@2HB		; std::_Arithmetic_traits<bool>::_Rank
PUBLIC	?_Rank@?$_Arithmetic_traits@D@std@@2HB		; std::_Arithmetic_traits<char>::_Rank
PUBLIC	?_Rank@?$_Arithmetic_traits@C@std@@2HB		; std::_Arithmetic_traits<signed char>::_Rank
PUBLIC	?_Rank@?$_Arithmetic_traits@E@std@@2HB		; std::_Arithmetic_traits<unsigned char>::_Rank
PUBLIC	?_Rank@?$_Arithmetic_traits@F@std@@2HB		; std::_Arithmetic_traits<short>::_Rank
PUBLIC	?_Rank@?$_Arithmetic_traits@G@std@@2HB		; std::_Arithmetic_traits<unsigned short>::_Rank
PUBLIC	?_Rank@?$_Arithmetic_traits@H@std@@2HB		; std::_Arithmetic_traits<int>::_Rank
PUBLIC	?_Rank@?$_Arithmetic_traits@I@std@@2HB		; std::_Arithmetic_traits<unsigned int>::_Rank
PUBLIC	?_Rank@?$_Arithmetic_traits@J@std@@2HB		; std::_Arithmetic_traits<long>::_Rank
PUBLIC	?_Rank@?$_Arithmetic_traits@K@std@@2HB		; std::_Arithmetic_traits<unsigned long>::_Rank
PUBLIC	?_Rank@?$_Arithmetic_traits@_J@std@@2HB		; std::_Arithmetic_traits<__int64>::_Rank
PUBLIC	?_Rank@?$_Arithmetic_traits@_K@std@@2HB		; std::_Arithmetic_traits<unsigned __int64>::_Rank
PUBLIC	?_Rank@?$_Arithmetic_traits@M@std@@2HB		; std::_Arithmetic_traits<float>::_Rank
PUBLIC	?_Rank@?$_Arithmetic_traits@N@std@@2HB		; std::_Arithmetic_traits<double>::_Rank
PUBLIC	?_Rank@?$_Arithmetic_traits@O@std@@2HB		; std::_Arithmetic_traits<long double>::_Rank
PUBLIC	?collate@?$_Locbase@H@std@@2HB			; std::_Locbase<int>::collate
PUBLIC	?ctype@?$_Locbase@H@std@@2HB			; std::_Locbase<int>::ctype
PUBLIC	?monetary@?$_Locbase@H@std@@2HB			; std::_Locbase<int>::monetary
PUBLIC	?numeric@?$_Locbase@H@std@@2HB			; std::_Locbase<int>::numeric
PUBLIC	?time@?$_Locbase@H@std@@2HB			; std::_Locbase<int>::time
PUBLIC	?messages@?$_Locbase@H@std@@2HB			; std::_Locbase<int>::messages
PUBLIC	?all@?$_Locbase@H@std@@2HB			; std::_Locbase<int>::all
PUBLIC	?none@?$_Locbase@H@std@@2HB			; std::_Locbase<int>::none
PUBLIC	?skipws@?$_Iosb@H@std@@2W4_Fmtflags@12@B	; std::_Iosb<int>::skipws
PUBLIC	?unitbuf@?$_Iosb@H@std@@2W4_Fmtflags@12@B	; std::_Iosb<int>::unitbuf
PUBLIC	?uppercase@?$_Iosb@H@std@@2W4_Fmtflags@12@B	; std::_Iosb<int>::uppercase
PUBLIC	?showbase@?$_Iosb@H@std@@2W4_Fmtflags@12@B	; std::_Iosb<int>::showbase
PUBLIC	?showpoint@?$_Iosb@H@std@@2W4_Fmtflags@12@B	; std::_Iosb<int>::showpoint
PUBLIC	?showpos@?$_Iosb@H@std@@2W4_Fmtflags@12@B	; std::_Iosb<int>::showpos
PUBLIC	?left@?$_Iosb@H@std@@2W4_Fmtflags@12@B		; std::_Iosb<int>::left
PUBLIC	?right@?$_Iosb@H@std@@2W4_Fmtflags@12@B		; std::_Iosb<int>::right
PUBLIC	?internal@?$_Iosb@H@std@@2W4_Fmtflags@12@B	; std::_Iosb<int>::internal
PUBLIC	?dec@?$_Iosb@H@std@@2W4_Fmtflags@12@B		; std::_Iosb<int>::dec
PUBLIC	?oct@?$_Iosb@H@std@@2W4_Fmtflags@12@B		; std::_Iosb<int>::oct
PUBLIC	?hex@?$_Iosb@H@std@@2W4_Fmtflags@12@B		; std::_Iosb<int>::hex
PUBLIC	?scientific@?$_Iosb@H@std@@2W4_Fmtflags@12@B	; std::_Iosb<int>::scientific
PUBLIC	?fixed@?$_Iosb@H@std@@2W4_Fmtflags@12@B		; std::_Iosb<int>::fixed
PUBLIC	?hexfloat@?$_Iosb@H@std@@2W4_Fmtflags@12@B	; std::_Iosb<int>::hexfloat
PUBLIC	?boolalpha@?$_Iosb@H@std@@2W4_Fmtflags@12@B	; std::_Iosb<int>::boolalpha
PUBLIC	?_Stdio@?$_Iosb@H@std@@2W4_Fmtflags@12@B	; std::_Iosb<int>::_Stdio
PUBLIC	?adjustfield@?$_Iosb@H@std@@2W4_Fmtflags@12@B	; std::_Iosb<int>::adjustfield
PUBLIC	?basefield@?$_Iosb@H@std@@2W4_Fmtflags@12@B	; std::_Iosb<int>::basefield
PUBLIC	?floatfield@?$_Iosb@H@std@@2W4_Fmtflags@12@B	; std::_Iosb<int>::floatfield
PUBLIC	?goodbit@?$_Iosb@H@std@@2W4_Iostate@12@B	; std::_Iosb<int>::goodbit
PUBLIC	?eofbit@?$_Iosb@H@std@@2W4_Iostate@12@B		; std::_Iosb<int>::eofbit
PUBLIC	?failbit@?$_Iosb@H@std@@2W4_Iostate@12@B	; std::_Iosb<int>::failbit
PUBLIC	?badbit@?$_Iosb@H@std@@2W4_Iostate@12@B		; std::_Iosb<int>::badbit
PUBLIC	?_Hardfail@?$_Iosb@H@std@@2W4_Iostate@12@B	; std::_Iosb<int>::_Hardfail
PUBLIC	?in@?$_Iosb@H@std@@2W4_Openmode@12@B		; std::_Iosb<int>::in
PUBLIC	?out@?$_Iosb@H@std@@2W4_Openmode@12@B		; std::_Iosb<int>::out
PUBLIC	?ate@?$_Iosb@H@std@@2W4_Openmode@12@B		; std::_Iosb<int>::ate
PUBLIC	?app@?$_Iosb@H@std@@2W4_Openmode@12@B		; std::_Iosb<int>::app
PUBLIC	?trunc@?$_Iosb@H@std@@2W4_Openmode@12@B		; std::_Iosb<int>::trunc
PUBLIC	?_Nocreate@?$_Iosb@H@std@@2W4_Openmode@12@B	; std::_Iosb<int>::_Nocreate
PUBLIC	?_Noreplace@?$_Iosb@H@std@@2W4_Openmode@12@B	; std::_Iosb<int>::_Noreplace
PUBLIC	?binary@?$_Iosb@H@std@@2W4_Openmode@12@B	; std::_Iosb<int>::binary
PUBLIC	?beg@?$_Iosb@H@std@@2W4_Seekdir@12@B		; std::_Iosb<int>::beg
PUBLIC	?cur@?$_Iosb@H@std@@2W4_Seekdir@12@B		; std::_Iosb<int>::cur
PUBLIC	?end@?$_Iosb@H@std@@2W4_Seekdir@12@B		; std::_Iosb<int>::end
PUBLIC	?_Value@?$_Size@U?$_Cons_node@U_Nil@tr1@std@@U123@@tr1@std@@@tr1@std@@2IB ; std::tr1::_Size<std::tr1::_Cons_node<std::tr1::_Nil,std::tr1::_Nil> >::_Value
_BSS	SEGMENT
?replayHeader@@3Ureplay_resource@ReplayTool@@A DB 0279H DUP (?) ; replayHeader
_BSS	ENDS
;	COMDAT ?_Value@?$_Size@U?$_Cons_node@U_Nil@tr1@std@@U123@@tr1@std@@@tr1@std@@2IB
CONST	SEGMENT
?_Value@?$_Size@U?$_Cons_node@U_Nil@tr1@std@@U123@@tr1@std@@@tr1@std@@2IB DD 00H ; std::tr1::_Size<std::tr1::_Cons_node<std::tr1::_Nil,std::tr1::_Nil> >::_Value
CONST	ENDS
;	COMDAT ?end@?$_Iosb@H@std@@2W4_Seekdir@12@B
CONST	SEGMENT
?end@?$_Iosb@H@std@@2W4_Seekdir@12@B DD 02H		; std::_Iosb<int>::end
CONST	ENDS
;	COMDAT ?cur@?$_Iosb@H@std@@2W4_Seekdir@12@B
CONST	SEGMENT
?cur@?$_Iosb@H@std@@2W4_Seekdir@12@B DD 01H		; std::_Iosb<int>::cur
CONST	ENDS
;	COMDAT ?beg@?$_Iosb@H@std@@2W4_Seekdir@12@B
CONST	SEGMENT
?beg@?$_Iosb@H@std@@2W4_Seekdir@12@B DD 00H		; std::_Iosb<int>::beg
CONST	ENDS
;	COMDAT ?binary@?$_Iosb@H@std@@2W4_Openmode@12@B
CONST	SEGMENT
?binary@?$_Iosb@H@std@@2W4_Openmode@12@B DD 020H	; std::_Iosb<int>::binary
CONST	ENDS
;	COMDAT ?_Noreplace@?$_Iosb@H@std@@2W4_Openmode@12@B
CONST	SEGMENT
?_Noreplace@?$_Iosb@H@std@@2W4_Openmode@12@B DD 080H	; std::_Iosb<int>::_Noreplace
CONST	ENDS
;	COMDAT ?_Nocreate@?$_Iosb@H@std@@2W4_Openmode@12@B
CONST	SEGMENT
?_Nocreate@?$_Iosb@H@std@@2W4_Openmode@12@B DD 040H	; std::_Iosb<int>::_Nocreate
CONST	ENDS
;	COMDAT ?trunc@?$_Iosb@H@std@@2W4_Openmode@12@B
CONST	SEGMENT
?trunc@?$_Iosb@H@std@@2W4_Openmode@12@B DD 010H		; std::_Iosb<int>::trunc
CONST	ENDS
;	COMDAT ?app@?$_Iosb@H@std@@2W4_Openmode@12@B
CONST	SEGMENT
?app@?$_Iosb@H@std@@2W4_Openmode@12@B DD 08H		; std::_Iosb<int>::app
CONST	ENDS
;	COMDAT ?ate@?$_Iosb@H@std@@2W4_Openmode@12@B
CONST	SEGMENT
?ate@?$_Iosb@H@std@@2W4_Openmode@12@B DD 04H		; std::_Iosb<int>::ate
CONST	ENDS
;	COMDAT ?out@?$_Iosb@H@std@@2W4_Openmode@12@B
CONST	SEGMENT
?out@?$_Iosb@H@std@@2W4_Openmode@12@B DD 02H		; std::_Iosb<int>::out
CONST	ENDS
;	COMDAT ?in@?$_Iosb@H@std@@2W4_Openmode@12@B
CONST	SEGMENT
?in@?$_Iosb@H@std@@2W4_Openmode@12@B DD 01H		; std::_Iosb<int>::in
CONST	ENDS
;	COMDAT ?_Hardfail@?$_Iosb@H@std@@2W4_Iostate@12@B
CONST	SEGMENT
?_Hardfail@?$_Iosb@H@std@@2W4_Iostate@12@B DD 010H	; std::_Iosb<int>::_Hardfail
CONST	ENDS
;	COMDAT ?badbit@?$_Iosb@H@std@@2W4_Iostate@12@B
CONST	SEGMENT
?badbit@?$_Iosb@H@std@@2W4_Iostate@12@B DD 04H		; std::_Iosb<int>::badbit
CONST	ENDS
;	COMDAT ?failbit@?$_Iosb@H@std@@2W4_Iostate@12@B
CONST	SEGMENT
?failbit@?$_Iosb@H@std@@2W4_Iostate@12@B DD 02H		; std::_Iosb<int>::failbit
CONST	ENDS
;	COMDAT ?eofbit@?$_Iosb@H@std@@2W4_Iostate@12@B
CONST	SEGMENT
?eofbit@?$_Iosb@H@std@@2W4_Iostate@12@B DD 01H		; std::_Iosb<int>::eofbit
CONST	ENDS
;	COMDAT ?goodbit@?$_Iosb@H@std@@2W4_Iostate@12@B
CONST	SEGMENT
?goodbit@?$_Iosb@H@std@@2W4_Iostate@12@B DD 00H		; std::_Iosb<int>::goodbit
CONST	ENDS
;	COMDAT ?floatfield@?$_Iosb@H@std@@2W4_Fmtflags@12@B
CONST	SEGMENT
?floatfield@?$_Iosb@H@std@@2W4_Fmtflags@12@B DD 03000H	; std::_Iosb<int>::floatfield
CONST	ENDS
;	COMDAT ?basefield@?$_Iosb@H@std@@2W4_Fmtflags@12@B
CONST	SEGMENT
?basefield@?$_Iosb@H@std@@2W4_Fmtflags@12@B DD 0e00H	; std::_Iosb<int>::basefield
CONST	ENDS
;	COMDAT ?adjustfield@?$_Iosb@H@std@@2W4_Fmtflags@12@B
CONST	SEGMENT
?adjustfield@?$_Iosb@H@std@@2W4_Fmtflags@12@B DD 01c0H	; std::_Iosb<int>::adjustfield
CONST	ENDS
;	COMDAT ?_Stdio@?$_Iosb@H@std@@2W4_Fmtflags@12@B
CONST	SEGMENT
?_Stdio@?$_Iosb@H@std@@2W4_Fmtflags@12@B DD 08000H	; std::_Iosb<int>::_Stdio
CONST	ENDS
;	COMDAT ?boolalpha@?$_Iosb@H@std@@2W4_Fmtflags@12@B
CONST	SEGMENT
?boolalpha@?$_Iosb@H@std@@2W4_Fmtflags@12@B DD 04000H	; std::_Iosb<int>::boolalpha
CONST	ENDS
;	COMDAT ?hexfloat@?$_Iosb@H@std@@2W4_Fmtflags@12@B
CONST	SEGMENT
?hexfloat@?$_Iosb@H@std@@2W4_Fmtflags@12@B DD 03000H	; std::_Iosb<int>::hexfloat
CONST	ENDS
;	COMDAT ?fixed@?$_Iosb@H@std@@2W4_Fmtflags@12@B
CONST	SEGMENT
?fixed@?$_Iosb@H@std@@2W4_Fmtflags@12@B DD 02000H	; std::_Iosb<int>::fixed
CONST	ENDS
;	COMDAT ?scientific@?$_Iosb@H@std@@2W4_Fmtflags@12@B
CONST	SEGMENT
?scientific@?$_Iosb@H@std@@2W4_Fmtflags@12@B DD 01000H	; std::_Iosb<int>::scientific
CONST	ENDS
;	COMDAT ?hex@?$_Iosb@H@std@@2W4_Fmtflags@12@B
CONST	SEGMENT
?hex@?$_Iosb@H@std@@2W4_Fmtflags@12@B DD 0800H		; std::_Iosb<int>::hex
CONST	ENDS
;	COMDAT ?oct@?$_Iosb@H@std@@2W4_Fmtflags@12@B
CONST	SEGMENT
?oct@?$_Iosb@H@std@@2W4_Fmtflags@12@B DD 0400H		; std::_Iosb<int>::oct
CONST	ENDS
;	COMDAT ?dec@?$_Iosb@H@std@@2W4_Fmtflags@12@B
CONST	SEGMENT
?dec@?$_Iosb@H@std@@2W4_Fmtflags@12@B DD 0200H		; std::_Iosb<int>::dec
CONST	ENDS
;	COMDAT ?internal@?$_Iosb@H@std@@2W4_Fmtflags@12@B
CONST	SEGMENT
?internal@?$_Iosb@H@std@@2W4_Fmtflags@12@B DD 0100H	; std::_Iosb<int>::internal
CONST	ENDS
;	COMDAT ?right@?$_Iosb@H@std@@2W4_Fmtflags@12@B
CONST	SEGMENT
?right@?$_Iosb@H@std@@2W4_Fmtflags@12@B DD 080H		; std::_Iosb<int>::right
CONST	ENDS
;	COMDAT ?left@?$_Iosb@H@std@@2W4_Fmtflags@12@B
CONST	SEGMENT
?left@?$_Iosb@H@std@@2W4_Fmtflags@12@B DD 040H		; std::_Iosb<int>::left
CONST	ENDS
;	COMDAT ?showpos@?$_Iosb@H@std@@2W4_Fmtflags@12@B
CONST	SEGMENT
?showpos@?$_Iosb@H@std@@2W4_Fmtflags@12@B DD 020H	; std::_Iosb<int>::showpos
CONST	ENDS
;	COMDAT ?showpoint@?$_Iosb@H@std@@2W4_Fmtflags@12@B
CONST	SEGMENT
?showpoint@?$_Iosb@H@std@@2W4_Fmtflags@12@B DD 010H	; std::_Iosb<int>::showpoint
CONST	ENDS
;	COMDAT ?showbase@?$_Iosb@H@std@@2W4_Fmtflags@12@B
CONST	SEGMENT
?showbase@?$_Iosb@H@std@@2W4_Fmtflags@12@B DD 08H	; std::_Iosb<int>::showbase
CONST	ENDS
;	COMDAT ?uppercase@?$_Iosb@H@std@@2W4_Fmtflags@12@B
CONST	SEGMENT
?uppercase@?$_Iosb@H@std@@2W4_Fmtflags@12@B DD 04H	; std::_Iosb<int>::uppercase
CONST	ENDS
;	COMDAT ?unitbuf@?$_Iosb@H@std@@2W4_Fmtflags@12@B
CONST	SEGMENT
?unitbuf@?$_Iosb@H@std@@2W4_Fmtflags@12@B DD 02H	; std::_Iosb<int>::unitbuf
CONST	ENDS
;	COMDAT ?skipws@?$_Iosb@H@std@@2W4_Fmtflags@12@B
CONST	SEGMENT
?skipws@?$_Iosb@H@std@@2W4_Fmtflags@12@B DD 01H		; std::_Iosb<int>::skipws
CONST	ENDS
;	COMDAT ?none@?$_Locbase@H@std@@2HB
CONST	SEGMENT
?none@?$_Locbase@H@std@@2HB DD 00H			; std::_Locbase<int>::none
CONST	ENDS
;	COMDAT ?all@?$_Locbase@H@std@@2HB
CONST	SEGMENT
?all@?$_Locbase@H@std@@2HB DD 03fH			; std::_Locbase<int>::all
CONST	ENDS
;	COMDAT ?messages@?$_Locbase@H@std@@2HB
CONST	SEGMENT
?messages@?$_Locbase@H@std@@2HB DD 020H			; std::_Locbase<int>::messages
CONST	ENDS
;	COMDAT ?time@?$_Locbase@H@std@@2HB
CONST	SEGMENT
?time@?$_Locbase@H@std@@2HB DD 010H			; std::_Locbase<int>::time
CONST	ENDS
;	COMDAT ?numeric@?$_Locbase@H@std@@2HB
CONST	SEGMENT
?numeric@?$_Locbase@H@std@@2HB DD 08H			; std::_Locbase<int>::numeric
CONST	ENDS
;	COMDAT ?monetary@?$_Locbase@H@std@@2HB
CONST	SEGMENT
?monetary@?$_Locbase@H@std@@2HB DD 04H			; std::_Locbase<int>::monetary
CONST	ENDS
;	COMDAT ?ctype@?$_Locbase@H@std@@2HB
CONST	SEGMENT
?ctype@?$_Locbase@H@std@@2HB DD 02H			; std::_Locbase<int>::ctype
CONST	ENDS
;	COMDAT ?collate@?$_Locbase@H@std@@2HB
CONST	SEGMENT
?collate@?$_Locbase@H@std@@2HB DD 01H			; std::_Locbase<int>::collate
CONST	ENDS
;	COMDAT ?_Rank@?$_Arithmetic_traits@O@std@@2HB
CONST	SEGMENT
?_Rank@?$_Arithmetic_traits@O@std@@2HB DD 09H		; std::_Arithmetic_traits<long double>::_Rank
CONST	ENDS
;	COMDAT ?_Rank@?$_Arithmetic_traits@N@std@@2HB
CONST	SEGMENT
?_Rank@?$_Arithmetic_traits@N@std@@2HB DD 08H		; std::_Arithmetic_traits<double>::_Rank
CONST	ENDS
;	COMDAT ?_Rank@?$_Arithmetic_traits@M@std@@2HB
CONST	SEGMENT
?_Rank@?$_Arithmetic_traits@M@std@@2HB DD 07H		; std::_Arithmetic_traits<float>::_Rank
CONST	ENDS
;	COMDAT ?_Rank@?$_Arithmetic_traits@_K@std@@2HB
CONST	SEGMENT
?_Rank@?$_Arithmetic_traits@_K@std@@2HB DD 06H		; std::_Arithmetic_traits<unsigned __int64>::_Rank
CONST	ENDS
;	COMDAT ?_Rank@?$_Arithmetic_traits@_J@std@@2HB
CONST	SEGMENT
?_Rank@?$_Arithmetic_traits@_J@std@@2HB DD 06H		; std::_Arithmetic_traits<__int64>::_Rank
CONST	ENDS
;	COMDAT ?_Rank@?$_Arithmetic_traits@K@std@@2HB
CONST	SEGMENT
?_Rank@?$_Arithmetic_traits@K@std@@2HB DD 05H		; std::_Arithmetic_traits<unsigned long>::_Rank
CONST	ENDS
;	COMDAT ?_Rank@?$_Arithmetic_traits@J@std@@2HB
CONST	SEGMENT
?_Rank@?$_Arithmetic_traits@J@std@@2HB DD 05H		; std::_Arithmetic_traits<long>::_Rank
CONST	ENDS
;	COMDAT ?_Rank@?$_Arithmetic_traits@I@std@@2HB
CONST	SEGMENT
?_Rank@?$_Arithmetic_traits@I@std@@2HB DD 04H		; std::_Arithmetic_traits<unsigned int>::_Rank
CONST	ENDS
;	COMDAT ?_Rank@?$_Arithmetic_traits@H@std@@2HB
CONST	SEGMENT
?_Rank@?$_Arithmetic_traits@H@std@@2HB DD 04H		; std::_Arithmetic_traits<int>::_Rank
CONST	ENDS
;	COMDAT ?_Rank@?$_Arithmetic_traits@G@std@@2HB
CONST	SEGMENT
?_Rank@?$_Arithmetic_traits@G@std@@2HB DD 03H		; std::_Arithmetic_traits<unsigned short>::_Rank
CONST	ENDS
;	COMDAT ?_Rank@?$_Arithmetic_traits@F@std@@2HB
CONST	SEGMENT
?_Rank@?$_Arithmetic_traits@F@std@@2HB DD 03H		; std::_Arithmetic_traits<short>::_Rank
CONST	ENDS
;	COMDAT ?_Rank@?$_Arithmetic_traits@E@std@@2HB
CONST	SEGMENT
?_Rank@?$_Arithmetic_traits@E@std@@2HB DD 02H		; std::_Arithmetic_traits<unsigned char>::_Rank
CONST	ENDS
;	COMDAT ?_Rank@?$_Arithmetic_traits@C@std@@2HB
CONST	SEGMENT
?_Rank@?$_Arithmetic_traits@C@std@@2HB DD 02H		; std::_Arithmetic_traits<signed char>::_Rank
CONST	ENDS
;	COMDAT ?_Rank@?$_Arithmetic_traits@D@std@@2HB
CONST	SEGMENT
?_Rank@?$_Arithmetic_traits@D@std@@2HB DD 02H		; std::_Arithmetic_traits<char>::_Rank
CONST	ENDS
;	COMDAT ?_Rank@?$_Arithmetic_traits@_N@std@@2HB
CONST	SEGMENT
?_Rank@?$_Arithmetic_traits@_N@std@@2HB DD 01H		; std::_Arithmetic_traits<bool>::_Rank
CONST	ENDS
;	COMDAT ?value@?$integral_constant@I$0A@@tr1@std@@2IB
CONST	SEGMENT
?value@?$integral_constant@I$0A@@tr1@std@@2IB DD 00H	; std::tr1::integral_constant<unsigned int,0>::value
CONST	ENDS
;	COMDAT ?value@?$integral_constant@_N$00@tr1@std@@2_NB
CONST	SEGMENT
?value@?$integral_constant@_N$00@tr1@std@@2_NB DB 01H	; std::tr1::integral_constant<bool,1>::value
CONST	ENDS
;	COMDAT ?value@?$integral_constant@_N$0A@@tr1@std@@2_NB
CONST	SEGMENT
?value@?$integral_constant@_N$0A@@tr1@std@@2_NB DB 00H	; std::tr1::integral_constant<bool,0>::value
CONST	ENDS
PUBLIC	__$ArrayPad$
PUBLIC	?writeBuffer@@YAXPBD0PAXK@Z			; writeBuffer
EXTRN	??1FileWriter@ReplayTool@@QAE@XZ:PROC		; ReplayTool::FileWriter::~FileWriter
EXTRN	?WriteRaw@FileWriter@ReplayTool@@QAEXPAXI@Z:PROC ; ReplayTool::FileWriter::WriteRaw
EXTRN	?Open@FileWriter@ReplayTool@@QAE_NPBD@Z:PROC	; ReplayTool::FileWriter::Open
EXTRN	__imp__sprintf:PROC
EXTRN	??0FileWriter@ReplayTool@@QAE@XZ:PROC		; ReplayTool::FileWriter::FileWriter
EXTRN	___security_cookie:DWORD
EXTRN	___CxxFrameHandler3:PROC
EXTRN	@__security_check_cookie@4:PROC
EXTRN	@_RTC_CheckStackVars@8:PROC
EXTRN	__RTC_CheckEsp:PROC
EXTRN	__RTC_Shutdown:PROC
EXTRN	__RTC_InitBase:PROC
;	COMDAT xdata$x
; File c:\fili\development\gp\rtsairesearch\bwapi\bwapi\libreplaytool\replay.cpp
xdata$x	SEGMENT
__unwindtable$?writeBuffer@@YAXPBD0PAXK@Z DD 0ffffffffH
	DD	FLAT:__unwindfunclet$?writeBuffer@@YAXPBD0PAXK@Z$0
__ehfuncinfo$?writeBuffer@@YAXPBD0PAXK@Z DD 019930522H
	DD	01H
	DD	FLAT:__unwindtable$?writeBuffer@@YAXPBD0PAXK@Z
	DD	2 DUP(00H)
	DD	2 DUP(00H)
	DD	00H
	DD	01H
xdata$x	ENDS
;	COMDAT rtc$TMZ
rtc$TMZ	SEGMENT
__RTC_Shutdown.rtc$TMZ DD FLAT:__RTC_Shutdown
rtc$TMZ	ENDS
;	COMDAT rtc$IMZ
rtc$IMZ	SEGMENT
__RTC_InitBase.rtc$IMZ DD FLAT:__RTC_InitBase
; Function compile flags: /Odtp /RTCsu /ZI
rtc$IMZ	ENDS
;	COMDAT ?writeBuffer@@YAXPBD0PAXK@Z
_TEXT	SEGMENT
_szTmp$ = -292						; size = 260
_fw$ = -24						; size = 4
__$ArrayPad$ = -16					; size = 4
__$EHRec$ = -12						; size = 12
_pszFormat$ = 8						; size = 4
_pszFilename$ = 12					; size = 4
_pBuffer$ = 16						; size = 4
_dwBufferSize$ = 20					; size = 4
?writeBuffer@@YAXPBD0PAXK@Z PROC			; writeBuffer, COMDAT

; 19   : {

  00000	55		 push	 ebp
  00001	8b ec		 mov	 ebp, esp
  00003	6a ff		 push	 -1
  00005	68 00 00 00 00	 push	 __ehhandler$?writeBuffer@@YAXPBD0PAXK@Z
  0000a	64 a1 00 00 00
	00		 mov	 eax, DWORD PTR fs:0
  00010	50		 push	 eax
  00011	81 ec dc 01 00
	00		 sub	 esp, 476		; 000001dcH
  00017	53		 push	 ebx
  00018	56		 push	 esi
  00019	57		 push	 edi
  0001a	8d bd 18 fe ff
	ff		 lea	 edi, DWORD PTR [ebp-488]
  00020	b9 77 00 00 00	 mov	 ecx, 119		; 00000077H
  00025	b8 cc cc cc cc	 mov	 eax, -858993460		; ccccccccH
  0002a	f3 ab		 rep stosd
  0002c	a1 00 00 00 00	 mov	 eax, DWORD PTR ___security_cookie
  00031	33 c5		 xor	 eax, ebp
  00033	89 45 f0	 mov	 DWORD PTR __$ArrayPad$[ebp], eax
  00036	50		 push	 eax
  00037	8d 45 f4	 lea	 eax, DWORD PTR __$EHRec$[ebp]
  0003a	64 a3 00 00 00
	00		 mov	 DWORD PTR fs:0, eax

; 20   :   FileWriter fw;

  00040	8d 4d e8	 lea	 ecx, DWORD PTR _fw$[ebp]
  00043	e8 00 00 00 00	 call	 ??0FileWriter@ReplayTool@@QAE@XZ ; ReplayTool::FileWriter::FileWriter
  00048	c7 45 fc 00 00
	00 00		 mov	 DWORD PTR __$EHRec$[ebp+8], 0

; 21   :   char szTmp[MAX_PATH];
; 22   :   sprintf(szTmp, pszFormat, pszFilename);

  0004f	8b f4		 mov	 esi, esp
  00051	8b 45 0c	 mov	 eax, DWORD PTR _pszFilename$[ebp]
  00054	50		 push	 eax
  00055	8b 4d 08	 mov	 ecx, DWORD PTR _pszFormat$[ebp]
  00058	51		 push	 ecx
  00059	8d 95 dc fe ff
	ff		 lea	 edx, DWORD PTR _szTmp$[ebp]
  0005f	52		 push	 edx
  00060	ff 15 00 00 00
	00		 call	 DWORD PTR __imp__sprintf
  00066	83 c4 0c	 add	 esp, 12			; 0000000cH
  00069	3b f4		 cmp	 esi, esp
  0006b	e8 00 00 00 00	 call	 __RTC_CheckEsp

; 23   :   if ( fw.Open( szTmp ) )

  00070	8d 85 dc fe ff
	ff		 lea	 eax, DWORD PTR _szTmp$[ebp]
  00076	50		 push	 eax
  00077	8d 4d e8	 lea	 ecx, DWORD PTR _fw$[ebp]
  0007a	e8 00 00 00 00	 call	 ?Open@FileWriter@ReplayTool@@QAE_NPBD@Z ; ReplayTool::FileWriter::Open
  0007f	0f b6 c8	 movzx	 ecx, al
  00082	85 c9		 test	 ecx, ecx
  00084	74 10		 je	 SHORT $LN1@writeBuffe

; 24   :     fw.WriteRaw(pBuffer, dwBufferSize);

  00086	8b 45 14	 mov	 eax, DWORD PTR _dwBufferSize$[ebp]
  00089	50		 push	 eax
  0008a	8b 4d 10	 mov	 ecx, DWORD PTR _pBuffer$[ebp]
  0008d	51		 push	 ecx
  0008e	8d 4d e8	 lea	 ecx, DWORD PTR _fw$[ebp]
  00091	e8 00 00 00 00	 call	 ?WriteRaw@FileWriter@ReplayTool@@QAEXPAXI@Z ; ReplayTool::FileWriter::WriteRaw
$LN1@writeBuffe:

; 25   : }

  00096	c7 45 fc ff ff
	ff ff		 mov	 DWORD PTR __$EHRec$[ebp+8], -1
  0009d	8d 4d e8	 lea	 ecx, DWORD PTR _fw$[ebp]
  000a0	e8 00 00 00 00	 call	 ??1FileWriter@ReplayTool@@QAE@XZ ; ReplayTool::FileWriter::~FileWriter
  000a5	52		 push	 edx
  000a6	8b cd		 mov	 ecx, ebp
  000a8	50		 push	 eax
  000a9	8d 15 00 00 00
	00		 lea	 edx, DWORD PTR $LN9@writeBuffe
  000af	e8 00 00 00 00	 call	 @_RTC_CheckStackVars@8
  000b4	58		 pop	 eax
  000b5	5a		 pop	 edx
  000b6	8b 4d f4	 mov	 ecx, DWORD PTR __$EHRec$[ebp]
  000b9	64 89 0d 00 00
	00 00		 mov	 DWORD PTR fs:0, ecx
  000c0	59		 pop	 ecx
  000c1	5f		 pop	 edi
  000c2	5e		 pop	 esi
  000c3	5b		 pop	 ebx
  000c4	8b 4d f0	 mov	 ecx, DWORD PTR __$ArrayPad$[ebp]
  000c7	33 cd		 xor	 ecx, ebp
  000c9	e8 00 00 00 00	 call	 @__security_check_cookie@4
  000ce	81 c4 e8 01 00
	00		 add	 esp, 488		; 000001e8H
  000d4	3b ec		 cmp	 ebp, esp
  000d6	e8 00 00 00 00	 call	 __RTC_CheckEsp
  000db	8b e5		 mov	 esp, ebp
  000dd	5d		 pop	 ebp
  000de	c3		 ret	 0
  000df	90		 npad	 1
$LN9@writeBuffe:
  000e0	02 00 00 00	 DD	 2
  000e4	00 00 00 00	 DD	 $LN8@writeBuffe
$LN8@writeBuffe:
  000e8	e8 ff ff ff	 DD	 -24			; ffffffe8H
  000ec	04 00 00 00	 DD	 4
  000f0	00 00 00 00	 DD	 $LN5@writeBuffe
  000f4	dc fe ff ff	 DD	 -292			; fffffedcH
  000f8	04 01 00 00	 DD	 260			; 00000104H
  000fc	00 00 00 00	 DD	 $LN6@writeBuffe
$LN6@writeBuffe:
  00100	73		 DB	 115			; 00000073H
  00101	7a		 DB	 122			; 0000007aH
  00102	54		 DB	 84			; 00000054H
  00103	6d		 DB	 109			; 0000006dH
  00104	70		 DB	 112			; 00000070H
  00105	00		 DB	 0
$LN5@writeBuffe:
  00106	66		 DB	 102			; 00000066H
  00107	77		 DB	 119			; 00000077H
  00108	00		 DB	 0
_TEXT	ENDS
;	COMDAT text$x
text$x	SEGMENT
__unwindfunclet$?writeBuffer@@YAXPBD0PAXK@Z$0:
  00000	8d 4d e8	 lea	 ecx, DWORD PTR _fw$[ebp]
  00003	e9 00 00 00 00	 jmp	 ??1FileWriter@ReplayTool@@QAE@XZ ; ReplayTool::FileWriter::~FileWriter
__ehhandler$?writeBuffer@@YAXPBD0PAXK@Z:
  00008	8b 54 24 08	 mov	 edx, DWORD PTR [esp+8]
  0000c	8d 42 0c	 lea	 eax, DWORD PTR [edx+12]
  0000f	8b 8a 14 fe ff
	ff		 mov	 ecx, DWORD PTR [edx-492]
  00015	33 c8		 xor	 ecx, eax
  00017	e8 00 00 00 00	 call	 @__security_check_cookie@4
  0001c	8b 4a fc	 mov	 ecx, DWORD PTR [edx-4]
  0001f	33 c8		 xor	 ecx, eax
  00021	e8 00 00 00 00	 call	 @__security_check_cookie@4
  00026	b8 00 00 00 00	 mov	 eax, OFFSET __ehfuncinfo$?writeBuffer@@YAXPBD0PAXK@Z
  0002b	e9 00 00 00 00	 jmp	 ___CxxFrameHandler3
text$x	ENDS
?writeBuffer@@YAXPBD0PAXK@Z ENDP			; writeBuffer
PUBLIC	??_D?$basic_ofstream@DU?$char_traits@D@std@@@std@@QAEXXZ ; std::basic_ofstream<char,std::char_traits<char> >::`vbase destructor'
PUBLIC	?close@?$basic_ofstream@DU?$char_traits@D@std@@@std@@QAEXXZ ; std::basic_ofstream<char,std::char_traits<char> >::close
PUBLIC	??$?6U?$char_traits@D@std@@@std@@YAAAV?$basic_ostream@DU?$char_traits@D@std@@@0@AAV10@PBD@Z ; std::operator<<<std::char_traits<char> >
PUBLIC	??_C@_01EEMJAFIK@?6?$AA@			; `string'
PUBLIC	??0?$basic_ofstream@DU?$char_traits@D@std@@@std@@QAE@PBDHH@Z ; std::basic_ofstream<char,std::char_traits<char> >::basic_ofstream<char,std::char_traits<char> >
PUBLIC	??_C@_0BC@EJMFLGPI@Replay_errLog?4log?$AA@	; `string'
PUBLIC	?errSimple@@YA_NPBD@Z				; errSimple
;	COMDAT ??_C@_01EEMJAFIK@?6?$AA@
CONST	SEGMENT
??_C@_01EEMJAFIK@?6?$AA@ DB 0aH, 00H			; `string'
CONST	ENDS
;	COMDAT ??_C@_0BC@EJMFLGPI@Replay_errLog?4log?$AA@
CONST	SEGMENT
??_C@_0BC@EJMFLGPI@Replay_errLog?4log?$AA@ DB 'Replay_errLog.log', 00H ; `string'
CONST	ENDS
;	COMDAT xdata$x
xdata$x	SEGMENT
__unwindtable$?errSimple@@YA_NPBD@Z DD 0ffffffffH
	DD	FLAT:__unwindfunclet$?errSimple@@YA_NPBD@Z$0
__ehfuncinfo$?errSimple@@YA_NPBD@Z DD 019930522H
	DD	01H
	DD	FLAT:__unwindtable$?errSimple@@YA_NPBD@Z
	DD	2 DUP(00H)
	DD	2 DUP(00H)
	DD	00H
	DD	01H
; Function compile flags: /Odtp /RTCsu /ZI
xdata$x	ENDS
;	COMDAT ?errSimple@@YA_NPBD@Z
_TEXT	SEGMENT
$T173716 = -385						; size = 1
_log$ = -184						; size = 168
__$EHRec$ = -12						; size = 12
_pszText$ = 8						; size = 4
?errSimple@@YA_NPBD@Z PROC				; errSimple, COMDAT

; 28   : {

  00000	55		 push	 ebp
  00001	8b ec		 mov	 ebp, esp
  00003	6a ff		 push	 -1
  00005	68 00 00 00 00	 push	 __ehhandler$?errSimple@@YA_NPBD@Z
  0000a	64 a1 00 00 00
	00		 mov	 eax, DWORD PTR fs:0
  00010	50		 push	 eax
  00011	81 ec 7c 01 00
	00		 sub	 esp, 380		; 0000017cH
  00017	53		 push	 ebx
  00018	56		 push	 esi
  00019	57		 push	 edi
  0001a	8d bd 78 fe ff
	ff		 lea	 edi, DWORD PTR [ebp-392]
  00020	b9 5f 00 00 00	 mov	 ecx, 95			; 0000005fH
  00025	b8 cc cc cc cc	 mov	 eax, -858993460		; ccccccccH
  0002a	f3 ab		 rep stosd
  0002c	a1 00 00 00 00	 mov	 eax, DWORD PTR ___security_cookie
  00031	33 c5		 xor	 eax, ebp
  00033	50		 push	 eax
  00034	8d 45 f4	 lea	 eax, DWORD PTR __$EHRec$[ebp]
  00037	64 a3 00 00 00
	00		 mov	 DWORD PTR fs:0, eax

; 29   :   std::ofstream log("Replay_errLog.log", std::ios_base::app);

  0003d	6a 01		 push	 1
  0003f	6a 40		 push	 64			; 00000040H
  00041	6a 08		 push	 8
  00043	68 00 00 00 00	 push	 OFFSET ??_C@_0BC@EJMFLGPI@Replay_errLog?4log?$AA@
  00048	8d 8d 48 ff ff
	ff		 lea	 ecx, DWORD PTR _log$[ebp]
  0004e	e8 00 00 00 00	 call	 ??0?$basic_ofstream@DU?$char_traits@D@std@@@std@@QAE@PBDHH@Z ; std::basic_ofstream<char,std::char_traits<char> >::basic_ofstream<char,std::char_traits<char> >
  00053	c7 45 fc 00 00
	00 00		 mov	 DWORD PTR __$EHRec$[ebp+8], 0

; 30   :   log << pszText << "\n";

  0005a	68 00 00 00 00	 push	 OFFSET ??_C@_01EEMJAFIK@?6?$AA@
  0005f	8b 45 08	 mov	 eax, DWORD PTR _pszText$[ebp]
  00062	50		 push	 eax
  00063	8d 8d 48 ff ff
	ff		 lea	 ecx, DWORD PTR _log$[ebp]
  00069	51		 push	 ecx
  0006a	e8 00 00 00 00	 call	 ??$?6U?$char_traits@D@std@@@std@@YAAAV?$basic_ostream@DU?$char_traits@D@std@@@0@AAV10@PBD@Z ; std::operator<<<std::char_traits<char> >
  0006f	83 c4 08	 add	 esp, 8
  00072	50		 push	 eax
  00073	e8 00 00 00 00	 call	 ??$?6U?$char_traits@D@std@@@std@@YAAAV?$basic_ostream@DU?$char_traits@D@std@@@0@AAV10@PBD@Z ; std::operator<<<std::char_traits<char> >
  00078	83 c4 08	 add	 esp, 8

; 31   :   log.close();

  0007b	8d 8d 48 ff ff
	ff		 lea	 ecx, DWORD PTR _log$[ebp]
  00081	e8 00 00 00 00	 call	 ?close@?$basic_ofstream@DU?$char_traits@D@std@@@std@@QAEXXZ ; std::basic_ofstream<char,std::char_traits<char> >::close

; 32   :   return false;

  00086	c6 85 7f fe ff
	ff 00		 mov	 BYTE PTR $T173716[ebp], 0
  0008d	c7 45 fc ff ff
	ff ff		 mov	 DWORD PTR __$EHRec$[ebp+8], -1
  00094	8d 8d 48 ff ff
	ff		 lea	 ecx, DWORD PTR _log$[ebp]
  0009a	e8 00 00 00 00	 call	 ??_D?$basic_ofstream@DU?$char_traits@D@std@@@std@@QAEXXZ
  0009f	8a 85 7f fe ff
	ff		 mov	 al, BYTE PTR $T173716[ebp]

; 33   : }

  000a5	52		 push	 edx
  000a6	8b cd		 mov	 ecx, ebp
  000a8	50		 push	 eax
  000a9	8d 15 00 00 00
	00		 lea	 edx, DWORD PTR $LN7@errSimple
  000af	e8 00 00 00 00	 call	 @_RTC_CheckStackVars@8
  000b4	58		 pop	 eax
  000b5	5a		 pop	 edx
  000b6	8b 4d f4	 mov	 ecx, DWORD PTR __$EHRec$[ebp]
  000b9	64 89 0d 00 00
	00 00		 mov	 DWORD PTR fs:0, ecx
  000c0	59		 pop	 ecx
  000c1	5f		 pop	 edi
  000c2	5e		 pop	 esi
  000c3	5b		 pop	 ebx
  000c4	81 c4 88 01 00
	00		 add	 esp, 392		; 00000188H
  000ca	3b ec		 cmp	 ebp, esp
  000cc	e8 00 00 00 00	 call	 __RTC_CheckEsp
  000d1	8b e5		 mov	 esp, ebp
  000d3	5d		 pop	 ebp
  000d4	c3		 ret	 0
  000d5	8d 49 00	 npad	 3
$LN7@errSimple:
  000d8	01 00 00 00	 DD	 1
  000dc	00 00 00 00	 DD	 $LN6@errSimple
$LN6@errSimple:
  000e0	48 ff ff ff	 DD	 -184			; ffffff48H
  000e4	a8 00 00 00	 DD	 168			; 000000a8H
  000e8	00 00 00 00	 DD	 $LN4@errSimple
$LN4@errSimple:
  000ec	6c		 DB	 108			; 0000006cH
  000ed	6f		 DB	 111			; 0000006fH
  000ee	67		 DB	 103			; 00000067H
  000ef	00		 DB	 0
_TEXT	ENDS
;	COMDAT text$x
text$x	SEGMENT
__unwindfunclet$?errSimple@@YA_NPBD@Z$0:
  00000	8d 8d 48 ff ff
	ff		 lea	 ecx, DWORD PTR _log$[ebp]
  00006	e9 00 00 00 00	 jmp	 ??_D?$basic_ofstream@DU?$char_traits@D@std@@@std@@QAEXXZ
__ehhandler$?errSimple@@YA_NPBD@Z:
  0000b	8b 54 24 08	 mov	 edx, DWORD PTR [esp+8]
  0000f	8d 42 0c	 lea	 eax, DWORD PTR [edx+12]
  00012	8b 8a 74 fe ff
	ff		 mov	 ecx, DWORD PTR [edx-396]
  00018	33 c8		 xor	 ecx, eax
  0001a	e8 00 00 00 00	 call	 @__security_check_cookie@4
  0001f	b8 00 00 00 00	 mov	 eax, OFFSET __ehfuncinfo$?errSimple@@YA_NPBD@Z
  00024	e9 00 00 00 00	 jmp	 ___CxxFrameHandler3
text$x	ENDS
?errSimple@@YA_NPBD@Z ENDP				; errSimple
PUBLIC	??1?$basic_ofstream@DU?$char_traits@D@std@@@std@@UAE@XZ ; std::basic_ofstream<char,std::char_traits<char> >::~basic_ofstream<char,std::char_traits<char> >
EXTRN	__imp_??1?$basic_ios@DU?$char_traits@D@std@@@std@@UAE@XZ:PROC
; Function compile flags: /Odtp /RTCsu /ZI
;	COMDAT ??_D?$basic_ofstream@DU?$char_traits@D@std@@@std@@QAEXXZ
_TEXT	SEGMENT
_this$ = -8						; size = 4
??_D?$basic_ofstream@DU?$char_traits@D@std@@@std@@QAEXXZ PROC ; std::basic_ofstream<char,std::char_traits<char> >::`vbase destructor', COMDAT
; _this$ = ecx
  00000	55		 push	 ebp
  00001	8b ec		 mov	 ebp, esp
  00003	81 ec cc 00 00
	00		 sub	 esp, 204		; 000000ccH
  00009	53		 push	 ebx
  0000a	56		 push	 esi
  0000b	57		 push	 edi
  0000c	51		 push	 ecx
  0000d	8d bd 34 ff ff
	ff		 lea	 edi, DWORD PTR [ebp-204]
  00013	b9 33 00 00 00	 mov	 ecx, 51			; 00000033H
  00018	b8 cc cc cc cc	 mov	 eax, -858993460		; ccccccccH
  0001d	f3 ab		 rep stosd
  0001f	59		 pop	 ecx
  00020	89 4d f8	 mov	 DWORD PTR _this$[ebp], ecx
  00023	8b 4d f8	 mov	 ecx, DWORD PTR _this$[ebp]
  00026	83 c1 60	 add	 ecx, 96			; 00000060H
  00029	e8 00 00 00 00	 call	 ??1?$basic_ofstream@DU?$char_traits@D@std@@@std@@UAE@XZ ; std::basic_ofstream<char,std::char_traits<char> >::~basic_ofstream<char,std::char_traits<char> >
  0002e	8b 4d f8	 mov	 ecx, DWORD PTR _this$[ebp]
  00031	83 c1 60	 add	 ecx, 96			; 00000060H
  00034	8b f4		 mov	 esi, esp
  00036	ff 15 00 00 00
	00		 call	 DWORD PTR __imp_??1?$basic_ios@DU?$char_traits@D@std@@@std@@UAE@XZ
  0003c	3b f4		 cmp	 esi, esp
  0003e	e8 00 00 00 00	 call	 __RTC_CheckEsp
  00043	5f		 pop	 edi
  00044	5e		 pop	 esi
  00045	5b		 pop	 ebx
  00046	81 c4 cc 00 00
	00		 add	 esp, 204		; 000000ccH
  0004c	3b ec		 cmp	 ebp, esp
  0004e	e8 00 00 00 00	 call	 __RTC_CheckEsp
  00053	8b e5		 mov	 esp, ebp
  00055	5d		 pop	 ebp
  00056	c3		 ret	 0
??_D?$basic_ofstream@DU?$char_traits@D@std@@@std@@QAEXXZ ENDP ; std::basic_ofstream<char,std::char_traits<char> >::`vbase destructor'
_TEXT	ENDS
PUBLIC	??_D?$basic_fstream@DU?$char_traits@D@std@@@std@@QAEXXZ ; std::basic_fstream<char,std::char_traits<char> >::`vbase destructor'
PUBLIC	??_C@_0BD@LIIDKFNL@?$CFs?2?$CFs?4?$CFd?4trace?4txt?$AA@ ; `string'
PUBLIC	?close@?$basic_fstream@DU?$char_traits@D@std@@@std@@QAEXXZ ; std::basic_fstream<char,std::char_traits<char> >::close
PUBLIC	?open@?$basic_fstream@DU?$char_traits@D@std@@@std@@QAEXPBDHH@Z ; std::basic_fstream<char,std::char_traits<char> >::open
PUBLIC	??_C@_0BA@BJFOHCCG@?$CFs?2?$CFs?4trace?4txt?$AA@ ; `string'
PUBLIC	?getOutRepoPath@ParseReplayParams@ReplayTool@@QBEPBDXZ ; ReplayTool::ParseReplayParams::getOutRepoPath
PUBLIC	?getReplayPath@ParseReplayParams@ReplayTool@@QBEPBDXZ ; ReplayTool::ParseReplayParams::getReplayPath
PUBLIC	??0?$basic_fstream@DU?$char_traits@D@std@@@std@@QAE@XZ ; std::basic_fstream<char,std::char_traits<char> >::basic_fstream<char,std::char_traits<char> >
PUBLIC	?getActionsTraceFilepath@@YAXABVParseReplayParams@ReplayTool@@QAD@Z ; getActionsTraceFilepath
EXTRN	__imp_??Bios_base@std@@QBEPAXXZ:PROC
EXTRN	__imp__sprintf_s:PROC
EXTRN	__imp__strrchr:PROC
;	COMDAT ??_C@_0BD@LIIDKFNL@?$CFs?2?$CFs?4?$CFd?4trace?4txt?$AA@
CONST	SEGMENT
??_C@_0BD@LIIDKFNL@?$CFs?2?$CFs?4?$CFd?4trace?4txt?$AA@ DB '%s\%s.%d.trac'
	DB	'e.txt', 00H					; `string'
CONST	ENDS
;	COMDAT ??_C@_0BA@BJFOHCCG@?$CFs?2?$CFs?4trace?4txt?$AA@
CONST	SEGMENT
??_C@_0BA@BJFOHCCG@?$CFs?2?$CFs?4trace?4txt?$AA@ DB '%s\%s.trace.txt', 00H ; `string'
CONST	ENDS
;	COMDAT xdata$x
xdata$x	SEGMENT
__unwindtable$?getActionsTraceFilepath@@YAXABVParseReplayParams@ReplayTool@@QAD@Z DD 0ffffffffH
	DD	FLAT:__unwindfunclet$?getActionsTraceFilepath@@YAXABVParseReplayParams@ReplayTool@@QAD@Z$0
__ehfuncinfo$?getActionsTraceFilepath@@YAXABVParseReplayParams@ReplayTool@@QAD@Z DD 019930522H
	DD	01H
	DD	FLAT:__unwindtable$?getActionsTraceFilepath@@YAXABVParseReplayParams@ReplayTool@@QAD@Z
	DD	2 DUP(00H)
	DD	2 DUP(00H)
	DD	00H
	DD	01H
; Function compile flags: /Odtp /RTCsu /ZI
xdata$x	ENDS
;	COMDAT ?getActionsTraceFilepath@@YAXABVParseReplayParams@ReplayTool@@QAD@Z
_TEXT	SEGMENT
_nameCollisionID$158500 = -224				; size = 4
_replayFilename$ = -212					; size = 4
_actionsDbgFile$ = -200					; size = 184
__$EHRec$ = -12						; size = 12
_params$ = 8						; size = 4
_actionsDbgFilepath$ = 12				; size = 4
?getActionsTraceFilepath@@YAXABVParseReplayParams@ReplayTool@@QAD@Z PROC ; getActionsTraceFilepath, COMDAT

; 45   : {

  00000	55		 push	 ebp
  00001	8b ec		 mov	 ebp, esp
  00003	6a ff		 push	 -1
  00005	68 00 00 00 00	 push	 __ehhandler$?getActionsTraceFilepath@@YAXABVParseReplayParams@ReplayTool@@QAD@Z
  0000a	64 a1 00 00 00
	00		 mov	 eax, DWORD PTR fs:0
  00010	50		 push	 eax
  00011	81 ec 98 01 00
	00		 sub	 esp, 408		; 00000198H
  00017	53		 push	 ebx
  00018	56		 push	 esi
  00019	57		 push	 edi
  0001a	8d bd 5c fe ff
	ff		 lea	 edi, DWORD PTR [ebp-420]
  00020	b9 66 00 00 00	 mov	 ecx, 102		; 00000066H
  00025	b8 cc cc cc cc	 mov	 eax, -858993460		; ccccccccH
  0002a	f3 ab		 rep stosd
  0002c	a1 00 00 00 00	 mov	 eax, DWORD PTR ___security_cookie
  00031	33 c5		 xor	 eax, ebp
  00033	50		 push	 eax
  00034	8d 45 f4	 lea	 eax, DWORD PTR __$EHRec$[ebp]
  00037	64 a3 00 00 00
	00		 mov	 DWORD PTR fs:0, eax

; 46   :   fstream actionsDbgFile;

  0003d	6a 01		 push	 1
  0003f	8d 8d 38 ff ff
	ff		 lea	 ecx, DWORD PTR _actionsDbgFile$[ebp]
  00045	e8 00 00 00 00	 call	 ??0?$basic_fstream@DU?$char_traits@D@std@@@std@@QAE@XZ ; std::basic_fstream<char,std::char_traits<char> >::basic_fstream<char,std::char_traits<char> >
  0004a	c7 45 fc 00 00
	00 00		 mov	 DWORD PTR __$EHRec$[ebp+8], 0

; 47   :   const char* replayFilename = strrchr(params.getReplayPath(), '\\');

  00051	8b f4		 mov	 esi, esp
  00053	6a 5c		 push	 92			; 0000005cH
  00055	8b 4d 08	 mov	 ecx, DWORD PTR _params$[ebp]
  00058	e8 00 00 00 00	 call	 ?getReplayPath@ParseReplayParams@ReplayTool@@QBEPBDXZ ; ReplayTool::ParseReplayParams::getReplayPath
  0005d	50		 push	 eax
  0005e	ff 15 00 00 00
	00		 call	 DWORD PTR __imp__strrchr
  00064	83 c4 08	 add	 esp, 8
  00067	3b f4		 cmp	 esi, esp
  00069	e8 00 00 00 00	 call	 __RTC_CheckEsp
  0006e	89 85 2c ff ff
	ff		 mov	 DWORD PTR _replayFilename$[ebp], eax

; 48   : 
; 49   :   // In case the path has no slashes i.e the replay file name only
; 50   :   if (NULL == replayFilename)

  00074	83 bd 2c ff ff
	ff 00		 cmp	 DWORD PTR _replayFilename$[ebp], 0
  0007b	75 10		 jne	 SHORT $LN6@getActions

; 51   :   {
; 52   :     replayFilename = params.getReplayPath();

  0007d	8b 4d 08	 mov	 ecx, DWORD PTR _params$[ebp]
  00080	e8 00 00 00 00	 call	 ?getReplayPath@ParseReplayParams@ReplayTool@@QBEPBDXZ ; ReplayTool::ParseReplayParams::getReplayPath
  00085	89 85 2c ff ff
	ff		 mov	 DWORD PTR _replayFilename$[ebp], eax

; 53   :   }
; 54   :   else

  0008b	eb 0f		 jmp	 SHORT $LN5@getActions
$LN6@getActions:

; 55   :   {
; 56   :     // stand directly after the slash
; 57   :     ++replayFilename;

  0008d	8b 85 2c ff ff
	ff		 mov	 eax, DWORD PTR _replayFilename$[ebp]
  00093	83 c0 01	 add	 eax, 1
  00096	89 85 2c ff ff
	ff		 mov	 DWORD PTR _replayFilename$[ebp], eax
$LN5@getActions:

; 58   :   }
; 59   : 
; 60   :   actionsDbgFilepath[0] = '\0';

  0009c	8b 45 0c	 mov	 eax, DWORD PTR _actionsDbgFilepath$[ebp]
  0009f	c6 00 00	 mov	 BYTE PTR [eax], 0

; 61   : 
; 62   :   sprintf_s(actionsDbgFilepath, MAX_PATH, "%s\\%s.trace.txt", params.getOutRepoPath(), replayFilename);

  000a2	8b f4		 mov	 esi, esp
  000a4	8b 85 2c ff ff
	ff		 mov	 eax, DWORD PTR _replayFilename$[ebp]
  000aa	50		 push	 eax
  000ab	8b 4d 08	 mov	 ecx, DWORD PTR _params$[ebp]
  000ae	e8 00 00 00 00	 call	 ?getOutRepoPath@ParseReplayParams@ReplayTool@@QBEPBDXZ ; ReplayTool::ParseReplayParams::getOutRepoPath
  000b3	50		 push	 eax
  000b4	68 00 00 00 00	 push	 OFFSET ??_C@_0BA@BJFOHCCG@?$CFs?2?$CFs?4trace?4txt?$AA@
  000b9	68 04 01 00 00	 push	 260			; 00000104H
  000be	8b 4d 0c	 mov	 ecx, DWORD PTR _actionsDbgFilepath$[ebp]
  000c1	51		 push	 ecx
  000c2	ff 15 00 00 00
	00		 call	 DWORD PTR __imp__sprintf_s
  000c8	83 c4 14	 add	 esp, 20			; 00000014H
  000cb	3b f4		 cmp	 esi, esp
  000cd	e8 00 00 00 00	 call	 __RTC_CheckEsp

; 63   :   actionsDbgFile.open(actionsDbgFilepath, ios::in | ios::out | ios::_Nocreate);

  000d2	6a 40		 push	 64			; 00000040H
  000d4	6a 43		 push	 67			; 00000043H
  000d6	8b 45 0c	 mov	 eax, DWORD PTR _actionsDbgFilepath$[ebp]
  000d9	50		 push	 eax
  000da	8d 8d 38 ff ff
	ff		 lea	 ecx, DWORD PTR _actionsDbgFile$[ebp]
  000e0	e8 00 00 00 00	 call	 ?open@?$basic_fstream@DU?$char_traits@D@std@@@std@@QAEXPBDHH@Z ; std::basic_fstream<char,std::char_traits<char> >::open

; 64   : 
; 65   :   // File could be opened successfully which means that a filename collision happened
; 66   :   // a file with the same name already exists, need to generate a unique filename
; 67   :   if (actionsDbgFile)

  000e5	8b 85 38 ff ff
	ff		 mov	 eax, DWORD PTR _actionsDbgFile$[ebp]
  000eb	8b 48 04	 mov	 ecx, DWORD PTR [eax+4]
  000ee	8d 8c 0d 38 ff
	ff ff		 lea	 ecx, DWORD PTR _actionsDbgFile$[ebp+ecx]
  000f5	8b f4		 mov	 esi, esp
  000f7	ff 15 00 00 00
	00		 call	 DWORD PTR __imp_??Bios_base@std@@QBEPAXXZ
  000fd	3b f4		 cmp	 esi, esp
  000ff	e8 00 00 00 00	 call	 __RTC_CheckEsp
  00104	85 c0		 test	 eax, eax
  00106	0f 84 9b 00 00
	00		 je	 $LN4@getActions

; 68   :   {
; 69   :     unsigned nameCollisionID = 0;

  0010c	c7 85 20 ff ff
	ff 00 00 00 00	 mov	 DWORD PTR _nameCollisionID$158500[ebp], 0
$LN3@getActions:

; 70   : 
; 71   :     do
; 72   :     {
; 73   :       actionsDbgFile.close();

  00116	8d 8d 38 ff ff
	ff		 lea	 ecx, DWORD PTR _actionsDbgFile$[ebp]
  0011c	e8 00 00 00 00	 call	 ?close@?$basic_fstream@DU?$char_traits@D@std@@@std@@QAEXXZ ; std::basic_fstream<char,std::char_traits<char> >::close

; 74   : 
; 75   :       actionsDbgFilepath[0] = '\0';

  00121	8b 45 0c	 mov	 eax, DWORD PTR _actionsDbgFilepath$[ebp]
  00124	c6 00 00	 mov	 BYTE PTR [eax], 0

; 76   :       ++nameCollisionID;

  00127	8b 85 20 ff ff
	ff		 mov	 eax, DWORD PTR _nameCollisionID$158500[ebp]
  0012d	83 c0 01	 add	 eax, 1
  00130	89 85 20 ff ff
	ff		 mov	 DWORD PTR _nameCollisionID$158500[ebp], eax

; 77   :       sprintf_s(actionsDbgFilepath, MAX_PATH, "%s\\%s.%d.trace.txt", params.getOutRepoPath(), replayFilename, nameCollisionID);

  00136	8b f4		 mov	 esi, esp
  00138	8b 85 20 ff ff
	ff		 mov	 eax, DWORD PTR _nameCollisionID$158500[ebp]
  0013e	50		 push	 eax
  0013f	8b 8d 2c ff ff
	ff		 mov	 ecx, DWORD PTR _replayFilename$[ebp]
  00145	51		 push	 ecx
  00146	8b 4d 08	 mov	 ecx, DWORD PTR _params$[ebp]
  00149	e8 00 00 00 00	 call	 ?getOutRepoPath@ParseReplayParams@ReplayTool@@QBEPBDXZ ; ReplayTool::ParseReplayParams::getOutRepoPath
  0014e	50		 push	 eax
  0014f	68 00 00 00 00	 push	 OFFSET ??_C@_0BD@LIIDKFNL@?$CFs?2?$CFs?4?$CFd?4trace?4txt?$AA@
  00154	68 04 01 00 00	 push	 260			; 00000104H
  00159	8b 55 0c	 mov	 edx, DWORD PTR _actionsDbgFilepath$[ebp]
  0015c	52		 push	 edx
  0015d	ff 15 00 00 00
	00		 call	 DWORD PTR __imp__sprintf_s
  00163	83 c4 18	 add	 esp, 24			; 00000018H
  00166	3b f4		 cmp	 esi, esp
  00168	e8 00 00 00 00	 call	 __RTC_CheckEsp

; 78   : 
; 79   :       actionsDbgFile.open(actionsDbgFilepath, ios::in | ios::out | ios::_Nocreate);

  0016d	6a 40		 push	 64			; 00000040H
  0016f	6a 43		 push	 67			; 00000043H
  00171	8b 45 0c	 mov	 eax, DWORD PTR _actionsDbgFilepath$[ebp]
  00174	50		 push	 eax
  00175	8d 8d 38 ff ff
	ff		 lea	 ecx, DWORD PTR _actionsDbgFile$[ebp]
  0017b	e8 00 00 00 00	 call	 ?open@?$basic_fstream@DU?$char_traits@D@std@@@std@@QAEXPBDHH@Z ; std::basic_fstream<char,std::char_traits<char> >::open

; 80   :     }
; 81   :     while (actionsDbgFile);

  00180	8b 85 38 ff ff
	ff		 mov	 eax, DWORD PTR _actionsDbgFile$[ebp]
  00186	8b 48 04	 mov	 ecx, DWORD PTR [eax+4]
  00189	8d 8c 0d 38 ff
	ff ff		 lea	 ecx, DWORD PTR _actionsDbgFile$[ebp+ecx]
  00190	8b f4		 mov	 esi, esp
  00192	ff 15 00 00 00
	00		 call	 DWORD PTR __imp_??Bios_base@std@@QBEPAXXZ
  00198	3b f4		 cmp	 esi, esp
  0019a	e8 00 00 00 00	 call	 __RTC_CheckEsp
  0019f	85 c0		 test	 eax, eax
  001a1	0f 85 6f ff ff
	ff		 jne	 $LN3@getActions
$LN4@getActions:

; 82   :   }
; 83   : 
; 84   :   actionsDbgFile.close();

  001a7	8d 8d 38 ff ff
	ff		 lea	 ecx, DWORD PTR _actionsDbgFile$[ebp]
  001ad	e8 00 00 00 00	 call	 ?close@?$basic_fstream@DU?$char_traits@D@std@@@std@@QAEXXZ ; std::basic_fstream<char,std::char_traits<char> >::close

; 85   : }

  001b2	c7 45 fc ff ff
	ff ff		 mov	 DWORD PTR __$EHRec$[ebp+8], -1
  001b9	8d 8d 38 ff ff
	ff		 lea	 ecx, DWORD PTR _actionsDbgFile$[ebp]
  001bf	e8 00 00 00 00	 call	 ??_D?$basic_fstream@DU?$char_traits@D@std@@@std@@QAEXXZ
  001c4	52		 push	 edx
  001c5	8b cd		 mov	 ecx, ebp
  001c7	50		 push	 eax
  001c8	8d 15 00 00 00
	00		 lea	 edx, DWORD PTR $LN13@getActions
  001ce	e8 00 00 00 00	 call	 @_RTC_CheckStackVars@8
  001d3	58		 pop	 eax
  001d4	5a		 pop	 edx
  001d5	8b 4d f4	 mov	 ecx, DWORD PTR __$EHRec$[ebp]
  001d8	64 89 0d 00 00
	00 00		 mov	 DWORD PTR fs:0, ecx
  001df	59		 pop	 ecx
  001e0	5f		 pop	 edi
  001e1	5e		 pop	 esi
  001e2	5b		 pop	 ebx
  001e3	81 c4 a4 01 00
	00		 add	 esp, 420		; 000001a4H
  001e9	3b ec		 cmp	 ebp, esp
  001eb	e8 00 00 00 00	 call	 __RTC_CheckEsp
  001f0	8b e5		 mov	 esp, ebp
  001f2	5d		 pop	 ebp
  001f3	c3		 ret	 0
$LN13@getActions:
  001f4	01 00 00 00	 DD	 1
  001f8	00 00 00 00	 DD	 $LN12@getActions
$LN12@getActions:
  001fc	38 ff ff ff	 DD	 -200			; ffffff38H
  00200	b8 00 00 00	 DD	 184			; 000000b8H
  00204	00 00 00 00	 DD	 $LN10@getActions
$LN10@getActions:
  00208	61		 DB	 97			; 00000061H
  00209	63		 DB	 99			; 00000063H
  0020a	74		 DB	 116			; 00000074H
  0020b	69		 DB	 105			; 00000069H
  0020c	6f		 DB	 111			; 0000006fH
  0020d	6e		 DB	 110			; 0000006eH
  0020e	73		 DB	 115			; 00000073H
  0020f	44		 DB	 68			; 00000044H
  00210	62		 DB	 98			; 00000062H
  00211	67		 DB	 103			; 00000067H
  00212	46		 DB	 70			; 00000046H
  00213	69		 DB	 105			; 00000069H
  00214	6c		 DB	 108			; 0000006cH
  00215	65		 DB	 101			; 00000065H
  00216	00		 DB	 0
_TEXT	ENDS
;	COMDAT text$x
text$x	SEGMENT
__unwindfunclet$?getActionsTraceFilepath@@YAXABVParseReplayParams@ReplayTool@@QAD@Z$0:
  00000	8d 8d 38 ff ff
	ff		 lea	 ecx, DWORD PTR _actionsDbgFile$[ebp]
  00006	e9 00 00 00 00	 jmp	 ??_D?$basic_fstream@DU?$char_traits@D@std@@@std@@QAEXXZ
__ehhandler$?getActionsTraceFilepath@@YAXABVParseReplayParams@ReplayTool@@QAD@Z:
  0000b	8b 54 24 08	 mov	 edx, DWORD PTR [esp+8]
  0000f	8d 42 0c	 lea	 eax, DWORD PTR [edx+12]
  00012	8b 8a 58 fe ff
	ff		 mov	 ecx, DWORD PTR [edx-424]
  00018	33 c8		 xor	 ecx, eax
  0001a	e8 00 00 00 00	 call	 @__security_check_cookie@4
  0001f	b8 00 00 00 00	 mov	 eax, OFFSET __ehfuncinfo$?getActionsTraceFilepath@@YAXABVParseReplayParams@ReplayTool@@QAD@Z
  00024	e9 00 00 00 00	 jmp	 ___CxxFrameHandler3
text$x	ENDS
?getActionsTraceFilepath@@YAXABVParseReplayParams@ReplayTool@@QAD@Z ENDP ; getActionsTraceFilepath
; Function compile flags: /Odtp /RTCsu /ZI
; File c:\fili\development\gp\rtsairesearch\bwapi\bwapi\libreplaytool\parsereplayparams.h
;	COMDAT ?getReplayPath@ParseReplayParams@ReplayTool@@QBEPBDXZ
_TEXT	SEGMENT
_this$ = -8						; size = 4
?getReplayPath@ParseReplayParams@ReplayTool@@QBEPBDXZ PROC ; ReplayTool::ParseReplayParams::getReplayPath, COMDAT
; _this$ = ecx

; 16   :   const char* getReplayPath() const { return replayPath; }

  00000	55		 push	 ebp
  00001	8b ec		 mov	 ebp, esp
  00003	81 ec cc 00 00
	00		 sub	 esp, 204		; 000000ccH
  00009	53		 push	 ebx
  0000a	56		 push	 esi
  0000b	57		 push	 edi
  0000c	51		 push	 ecx
  0000d	8d bd 34 ff ff
	ff		 lea	 edi, DWORD PTR [ebp-204]
  00013	b9 33 00 00 00	 mov	 ecx, 51			; 00000033H
  00018	b8 cc cc cc cc	 mov	 eax, -858993460		; ccccccccH
  0001d	f3 ab		 rep stosd
  0001f	59		 pop	 ecx
  00020	89 4d f8	 mov	 DWORD PTR _this$[ebp], ecx
  00023	8b 45 f8	 mov	 eax, DWORD PTR _this$[ebp]
  00026	5f		 pop	 edi
  00027	5e		 pop	 esi
  00028	5b		 pop	 ebx
  00029	8b e5		 mov	 esp, ebp
  0002b	5d		 pop	 ebp
  0002c	c3		 ret	 0
?getReplayPath@ParseReplayParams@ReplayTool@@QBEPBDXZ ENDP ; ReplayTool::ParseReplayParams::getReplayPath
; Function compile flags: /Odtp /RTCsu /ZI
_TEXT	ENDS
;	COMDAT ?getOutRepoPath@ParseReplayParams@ReplayTool@@QBEPBDXZ
_TEXT	SEGMENT
_this$ = -8						; size = 4
?getOutRepoPath@ParseReplayParams@ReplayTool@@QBEPBDXZ PROC ; ReplayTool::ParseReplayParams::getOutRepoPath, COMDAT
; _this$ = ecx

; 19   :   const char* getOutRepoPath() const { return outRepoPath; }

  00000	55		 push	 ebp
  00001	8b ec		 mov	 ebp, esp
  00003	81 ec cc 00 00
	00		 sub	 esp, 204		; 000000ccH
  00009	53		 push	 ebx
  0000a	56		 push	 esi
  0000b	57		 push	 edi
  0000c	51		 push	 ecx
  0000d	8d bd 34 ff ff
	ff		 lea	 edi, DWORD PTR [ebp-204]
  00013	b9 33 00 00 00	 mov	 ecx, 51			; 00000033H
  00018	b8 cc cc cc cc	 mov	 eax, -858993460		; ccccccccH
  0001d	f3 ab		 rep stosd
  0001f	59		 pop	 ecx
  00020	89 4d f8	 mov	 DWORD PTR _this$[ebp], ecx
  00023	8b 45 f8	 mov	 eax, DWORD PTR _this$[ebp]
  00026	05 04 01 00 00	 add	 eax, 260		; 00000104H
  0002b	5f		 pop	 edi
  0002c	5e		 pop	 esi
  0002d	5b		 pop	 ebx
  0002e	8b e5		 mov	 esp, ebp
  00030	5d		 pop	 ebp
  00031	c3		 ret	 0
?getOutRepoPath@ParseReplayParams@ReplayTool@@QBEPBDXZ ENDP ; ReplayTool::ParseReplayParams::getOutRepoPath
_TEXT	ENDS
PUBLIC	??1?$basic_fstream@DU?$char_traits@D@std@@@std@@UAE@XZ ; std::basic_fstream<char,std::char_traits<char> >::~basic_fstream<char,std::char_traits<char> >
; Function compile flags: /Odtp /RTCsu /ZI
;	COMDAT ??_D?$basic_fstream@DU?$char_traits@D@std@@@std@@QAEXXZ
_TEXT	SEGMENT
_this$ = -8						; size = 4
??_D?$basic_fstream@DU?$char_traits@D@std@@@std@@QAEXXZ PROC ; std::basic_fstream<char,std::char_traits<char> >::`vbase destructor', COMDAT
; _this$ = ecx
  00000	55		 push	 ebp
  00001	8b ec		 mov	 ebp, esp
  00003	81 ec cc 00 00
	00		 sub	 esp, 204		; 000000ccH
  00009	53		 push	 ebx
  0000a	56		 push	 esi
  0000b	57		 push	 edi
  0000c	51		 push	 ecx
  0000d	8d bd 34 ff ff
	ff		 lea	 edi, DWORD PTR [ebp-204]
  00013	b9 33 00 00 00	 mov	 ecx, 51			; 00000033H
  00018	b8 cc cc cc cc	 mov	 eax, -858993460		; ccccccccH
  0001d	f3 ab		 rep stosd
  0001f	59		 pop	 ecx
  00020	89 4d f8	 mov	 DWORD PTR _this$[ebp], ecx
  00023	8b 4d f8	 mov	 ecx, DWORD PTR _this$[ebp]
  00026	83 c1 70	 add	 ecx, 112		; 00000070H
  00029	e8 00 00 00 00	 call	 ??1?$basic_fstream@DU?$char_traits@D@std@@@std@@UAE@XZ ; std::basic_fstream<char,std::char_traits<char> >::~basic_fstream<char,std::char_traits<char> >
  0002e	8b 4d f8	 mov	 ecx, DWORD PTR _this$[ebp]
  00031	83 c1 70	 add	 ecx, 112		; 00000070H
  00034	8b f4		 mov	 esi, esp
  00036	ff 15 00 00 00
	00		 call	 DWORD PTR __imp_??1?$basic_ios@DU?$char_traits@D@std@@@std@@UAE@XZ
  0003c	3b f4		 cmp	 esi, esp
  0003e	e8 00 00 00 00	 call	 __RTC_CheckEsp
  00043	5f		 pop	 edi
  00044	5e		 pop	 esi
  00045	5b		 pop	 ebx
  00046	81 c4 cc 00 00
	00		 add	 esp, 204		; 000000ccH
  0004c	3b ec		 cmp	 ebp, esp
  0004e	e8 00 00 00 00	 call	 __RTC_CheckEsp
  00053	8b e5		 mov	 esp, ebp
  00055	5d		 pop	 ebp
  00056	c3		 ret	 0
??_D?$basic_fstream@DU?$char_traits@D@std@@@std@@QAEXXZ ENDP ; std::basic_fstream<char,std::char_traits<char> >::`vbase destructor'
_TEXT	ENDS
PUBLIC	??1?$list@PAVGameAction@ReplayTool@@V?$allocator@PAVGameAction@ReplayTool@@@std@@@std@@QAE@XZ ; std::list<ReplayTool::GameAction *,std::allocator<ReplayTool::GameAction *> >::~list<ReplayTool::GameAction *,std::allocator<ReplayTool::GameAction *> >
PUBLIC	??_C@_0BH@GIODCKM@?5?9?9?5Fixed?5replay?5with?5?$AA@ ; `string'
PUBLIC	??_C@_0BD@KJNJLLBA@?5frames?4?5Desired?3?5?$AA@	; `string'
PUBLIC	??_C@_09OLOLNFGA@?5frames?4?6?$AA@		; `string'
PUBLIC	??_C@_0M@ELGLGCGP@Results?4txt?$AA@		; `string'
PUBLIC	??0?$list@PAVGameAction@ReplayTool@@V?$allocator@PAVGameAction@ReplayTool@@@std@@@std@@QAE@XZ ; std::list<ReplayTool::GameAction *,std::allocator<ReplayTool::GameAction *> >::list<ReplayTool::GameAction *,std::allocator<ReplayTool::GameAction *> >
PUBLIC	??_C@_06OFAPKIKJ@?$CFs?4chk?$AA@		; `string'
PUBLIC	??_C@_06IOAJIBFN@?$CFs?4act?$AA@		; `string'
PUBLIC	??_C@_06KABEHPNE@?$CFs?4hdr?$AA@		; `string'
PUBLIC	??_C@_0BK@IEBEPEGN@Decompressing?5map?5failed?4?$AA@ ; `string'
PUBLIC	??_C@_0BJ@OIDIHHCB@Unable?5to?5read?5chk?5size?4?$AA@ ; `string'
PUBLIC	??_C@_0BO@EPJINIOH@Decompressing?5actions?5failed?4?$AA@ ; `string'
PUBLIC	??_C@_0BN@BAHEENIG@Unable?5to?5read?5actions?5size?4?$AA@ ; `string'
PUBLIC	??_C@_0BO@IOIDDIKA@Unable?5to?5read?5replay?5header?4?$AA@ ; `string'
PUBLIC	??_C@_0BN@JDKFCELP@No?5Replay?5resource?5ID?5found?4?$AA@ ; `string'
PUBLIC	__$ArrayPad$
PUBLIC	_parseReplay
EXTRN	?size@ReplayReader@ReplayTool@@QBEIXZ:PROC	; ReplayTool::ReplayReader::size
EXTRN	?CompressWrite@@YAXPAXIAAVFileWriter@ReplayTool@@@Z:PROC ; CompressWrite
EXTRN	__imp_??6?$basic_ostream@DU?$char_traits@D@std@@@std@@QAEAAV01@K@Z:PROC
EXTRN	?highestFrameTick@ReplayReader@ReplayTool@@UBEKXZ:PROC ; ReplayTool::ReplayReader::highestFrameTick
EXTRN	_logActions:PROC
EXTRN	_parseActions:PROC
EXTRN	__imp__malloc:PROC
EXTRN	??1ReplayReader@ReplayTool@@UAE@XZ:PROC		; ReplayTool::ReplayReader::~ReplayReader
EXTRN	??BReplayReader@ReplayTool@@QBEPAXXZ:PROC	; ReplayTool::ReplayReader::operator void *
EXTRN	??0ReplayReader@ReplayTool@@QAE@K@Z:PROC	; ReplayTool::ReplayReader::ReplayReader
EXTRN	?DecompressRead@@YA_NPAXIAAVFileReader@ReplayTool@@@Z:PROC ; DecompressRead
EXTRN	??1FileReader@ReplayTool@@QAE@XZ:PROC		; ReplayTool::FileReader::~FileReader
EXTRN	?Open@FileReader@ReplayTool@@QAE_NPBD@Z:PROC	; ReplayTool::FileReader::Open
EXTRN	??0FileReader@ReplayTool@@QAE@XZ:PROC		; ReplayTool::FileReader::FileReader
;	COMDAT ??_C@_0BH@GIODCKM@?5?9?9?5Fixed?5replay?5with?5?$AA@
; File c:\fili\development\gp\rtsairesearch\bwapi\bwapi\libreplaytool\replay.cpp
CONST	SEGMENT
??_C@_0BH@GIODCKM@?5?9?9?5Fixed?5replay?5with?5?$AA@ DB ' -- Fixed replay'
	DB	' with ', 00H				; `string'
CONST	ENDS
;	COMDAT ??_C@_0BD@KJNJLLBA@?5frames?4?5Desired?3?5?$AA@
CONST	SEGMENT
??_C@_0BD@KJNJLLBA@?5frames?4?5Desired?3?5?$AA@ DB ' frames. Desired: ', 00H ; `string'
CONST	ENDS
;	COMDAT ??_C@_09OLOLNFGA@?5frames?4?6?$AA@
CONST	SEGMENT
??_C@_09OLOLNFGA@?5frames?4?6?$AA@ DB ' frames.', 0aH, 00H ; `string'
CONST	ENDS
;	COMDAT ??_C@_0M@ELGLGCGP@Results?4txt?$AA@
CONST	SEGMENT
??_C@_0M@ELGLGCGP@Results?4txt?$AA@ DB 'Results.txt', 00H ; `string'
CONST	ENDS
;	COMDAT ??_C@_06OFAPKIKJ@?$CFs?4chk?$AA@
CONST	SEGMENT
??_C@_06OFAPKIKJ@?$CFs?4chk?$AA@ DB '%s.chk', 00H	; `string'
CONST	ENDS
;	COMDAT ??_C@_06IOAJIBFN@?$CFs?4act?$AA@
CONST	SEGMENT
??_C@_06IOAJIBFN@?$CFs?4act?$AA@ DB '%s.act', 00H	; `string'
CONST	ENDS
;	COMDAT ??_C@_06KABEHPNE@?$CFs?4hdr?$AA@
CONST	SEGMENT
??_C@_06KABEHPNE@?$CFs?4hdr?$AA@ DB '%s.hdr', 00H	; `string'
CONST	ENDS
;	COMDAT ??_C@_0BK@IEBEPEGN@Decompressing?5map?5failed?4?$AA@
CONST	SEGMENT
??_C@_0BK@IEBEPEGN@Decompressing?5map?5failed?4?$AA@ DB 'Decompressing ma'
	DB	'p failed.', 00H				; `string'
CONST	ENDS
;	COMDAT ??_C@_0BJ@OIDIHHCB@Unable?5to?5read?5chk?5size?4?$AA@
CONST	SEGMENT
??_C@_0BJ@OIDIHHCB@Unable?5to?5read?5chk?5size?4?$AA@ DB 'Unable to read '
	DB	'chk size.', 00H				; `string'
CONST	ENDS
;	COMDAT ??_C@_0BO@EPJINIOH@Decompressing?5actions?5failed?4?$AA@
CONST	SEGMENT
??_C@_0BO@EPJINIOH@Decompressing?5actions?5failed?4?$AA@ DB 'Decompressin'
	DB	'g actions failed.', 00H			; `string'
CONST	ENDS
;	COMDAT ??_C@_0BN@BAHEENIG@Unable?5to?5read?5actions?5size?4?$AA@
CONST	SEGMENT
??_C@_0BN@BAHEENIG@Unable?5to?5read?5actions?5size?4?$AA@ DB 'Unable to r'
	DB	'ead actions size.', 00H			; `string'
CONST	ENDS
;	COMDAT ??_C@_0BO@IOIDDIKA@Unable?5to?5read?5replay?5header?4?$AA@
CONST	SEGMENT
??_C@_0BO@IOIDDIKA@Unable?5to?5read?5replay?5header?4?$AA@ DB 'Unable to '
	DB	'read replay header.', 00H			; `string'
CONST	ENDS
;	COMDAT ??_C@_0BN@JDKFCELP@No?5Replay?5resource?5ID?5found?4?$AA@
CONST	SEGMENT
??_C@_0BN@JDKFCELP@No?5Replay?5resource?5ID?5found?4?$AA@ DB 'No Replay r'
	DB	'esource ID found.', 00H			; `string'
; Function compile flags: /Odtp /RTCsu /ZI
CONST	ENDS
;	COMDAT _parseReplay
_TEXT	SEGMENT
$T173750 = -881						; size = 1
$T173751 = -869						; size = 1
$T173752 = -857						; size = 1
$T173753 = -845						; size = 1
$T173754 = -833						; size = 1
$T173755 = -821						; size = 1
$T173756 = -809						; size = 1
$T173757 = -797						; size = 1
_fw$159037 = -596					; size = 4
_log$159013 = -584					; size = 168
_actionsDbgFilepath$159011 = -408			; size = 260
_actions$159010 = -140					; size = 16
_pChkBuffer$ = -116					; size = 4
_dwChkBufferSize$ = -104				; size = 4
_repActions$ = -92					; size = 32
_dwActionBufferSize$ = -52				; size = 4
_dwRepResourceID$ = -40					; size = 4
_fr$ = -28						; size = 20
__$ArrayPad$ = -4					; size = 4
_params$ = 8						; size = 4
_dwFlags$ = 12						; size = 4
_parseReplay PROC					; COMDAT

; 88   : {

  00000	55		 push	 ebp
  00001	8b ec		 mov	 ebp, esp
  00003	81 ec 78 03 00
	00		 sub	 esp, 888		; 00000378H
  00009	53		 push	 ebx
  0000a	56		 push	 esi
  0000b	57		 push	 edi
  0000c	8d bd 88 fc ff
	ff		 lea	 edi, DWORD PTR [ebp-888]
  00012	b9 de 00 00 00	 mov	 ecx, 222		; 000000deH
  00017	b8 cc cc cc cc	 mov	 eax, -858993460		; ccccccccH
  0001c	f3 ab		 rep stosd
  0001e	a1 00 00 00 00	 mov	 eax, DWORD PTR ___security_cookie
  00023	33 c5		 xor	 eax, ebp
  00025	89 45 fc	 mov	 DWORD PTR __$ArrayPad$[ebp], eax

; 89   :   // Open replay file
; 90   :   FileReader fr;

  00028	8d 4d e4	 lea	 ecx, DWORD PTR _fr$[ebp]
  0002b	e8 00 00 00 00	 call	 ??0FileReader@ReplayTool@@QAE@XZ ; ReplayTool::FileReader::FileReader

; 91   :   if ( !fr.Open(params.getReplayPath()) )

  00030	8b 4d 08	 mov	 ecx, DWORD PTR _params$[ebp]
  00033	e8 00 00 00 00	 call	 ?getReplayPath@ParseReplayParams@ReplayTool@@QBEPBDXZ ; ReplayTool::ParseReplayParams::getReplayPath
  00038	50		 push	 eax
  00039	8d 4d e4	 lea	 ecx, DWORD PTR _fr$[ebp]
  0003c	e8 00 00 00 00	 call	 ?Open@FileReader@ReplayTool@@QAE_NPBD@Z ; ReplayTool::FileReader::Open
  00041	0f b6 c0	 movzx	 eax, al
  00044	85 c0		 test	 eax, eax
  00046	75 1a		 jne	 SHORT $LN14@parseRepla

; 92   :     return false;

  00048	c6 85 8f fc ff
	ff 00		 mov	 BYTE PTR $T173750[ebp], 0
  0004f	8d 4d e4	 lea	 ecx, DWORD PTR _fr$[ebp]
  00052	e8 00 00 00 00	 call	 ??1FileReader@ReplayTool@@QAE@XZ ; ReplayTool::FileReader::~FileReader
  00057	8a 85 8f fc ff
	ff		 mov	 al, BYTE PTR $T173750[ebp]
  0005d	e9 6e 04 00 00	 jmp	 $LN15@parseRepla
$LN14@parseRepla:

; 93   : 
; 94   : ///////////////////// Header
; 95   :   // Read replay resource identifier
; 96   :   DWORD dwRepResourceID = 0;

  00062	c7 45 d8 00 00
	00 00		 mov	 DWORD PTR _dwRepResourceID$[ebp], 0

; 97   :   // Best guess: "reRS" is "replay RESOURCE"
; 98   :   if ( !DecompressRead(&dwRepResourceID, sizeof(dwRepResourceID), fr) || dwRepResourceID != mmioFOURCC('r','e','R','S') )

  00069	8d 45 e4	 lea	 eax, DWORD PTR _fr$[ebp]
  0006c	50		 push	 eax
  0006d	6a 04		 push	 4
  0006f	8d 4d d8	 lea	 ecx, DWORD PTR _dwRepResourceID$[ebp]
  00072	51		 push	 ecx
  00073	e8 00 00 00 00	 call	 ?DecompressRead@@YA_NPAXIAAVFileReader@ReplayTool@@@Z ; DecompressRead
  00078	83 c4 0c	 add	 esp, 12			; 0000000cH
  0007b	0f b6 d0	 movzx	 edx, al
  0007e	85 d2		 test	 edx, edx
  00080	74 09		 je	 SHORT $LN12@parseRepla
  00082	81 7d d8 72 65
	52 53		 cmp	 DWORD PTR _dwRepResourceID$[ebp], 1397908850 ; 53526572H
  00089	74 26		 je	 SHORT $LN13@parseRepla
$LN12@parseRepla:

; 99   :     return errSimple("No Replay resource ID found.");

  0008b	68 00 00 00 00	 push	 OFFSET ??_C@_0BN@JDKFCELP@No?5Replay?5resource?5ID?5found?4?$AA@
  00090	e8 00 00 00 00	 call	 ?errSimple@@YA_NPBD@Z	; errSimple
  00095	83 c4 04	 add	 esp, 4
  00098	88 85 9b fc ff
	ff		 mov	 BYTE PTR $T173751[ebp], al
  0009e	8d 4d e4	 lea	 ecx, DWORD PTR _fr$[ebp]
  000a1	e8 00 00 00 00	 call	 ??1FileReader@ReplayTool@@QAE@XZ ; ReplayTool::FileReader::~FileReader
  000a6	8a 85 9b fc ff
	ff		 mov	 al, BYTE PTR $T173751[ebp]
  000ac	e9 1f 04 00 00	 jmp	 $LN15@parseRepla
$LN13@parseRepla:

; 100  : 
; 101  :   // Read replay resource header
; 102  :   if ( !DecompressRead(&replayHeader, sizeof(replayHeader), fr) )

  000b1	8d 45 e4	 lea	 eax, DWORD PTR _fr$[ebp]
  000b4	50		 push	 eax
  000b5	68 79 02 00 00	 push	 633			; 00000279H
  000ba	68 00 00 00 00	 push	 OFFSET ?replayHeader@@3Ureplay_resource@ReplayTool@@A ; replayHeader
  000bf	e8 00 00 00 00	 call	 ?DecompressRead@@YA_NPAXIAAVFileReader@ReplayTool@@@Z ; DecompressRead
  000c4	83 c4 0c	 add	 esp, 12			; 0000000cH
  000c7	0f b6 c8	 movzx	 ecx, al
  000ca	85 c9		 test	 ecx, ecx
  000cc	75 26		 jne	 SHORT $LN11@parseRepla

; 103  :     return errSimple("Unable to read replay header.");

  000ce	68 00 00 00 00	 push	 OFFSET ??_C@_0BO@IOIDDIKA@Unable?5to?5read?5replay?5header?4?$AA@
  000d3	e8 00 00 00 00	 call	 ?errSimple@@YA_NPBD@Z	; errSimple
  000d8	83 c4 04	 add	 esp, 4
  000db	88 85 a7 fc ff
	ff		 mov	 BYTE PTR $T173752[ebp], al
  000e1	8d 4d e4	 lea	 ecx, DWORD PTR _fr$[ebp]
  000e4	e8 00 00 00 00	 call	 ??1FileReader@ReplayTool@@QAE@XZ ; ReplayTool::FileReader::~FileReader
  000e9	8a 85 a7 fc ff
	ff		 mov	 al, BYTE PTR $T173752[ebp]
  000ef	e9 dc 03 00 00	 jmp	 $LN15@parseRepla
$LN11@parseRepla:

; 104  : 
; 105  : ////////////////// Actions
; 106  :   // Read replay actions section size
; 107  :   DWORD dwActionBufferSize = 0;

  000f4	c7 45 cc 00 00
	00 00		 mov	 DWORD PTR _dwActionBufferSize$[ebp], 0

; 108  :   if ( !DecompressRead(&dwActionBufferSize, 4, fr) )

  000fb	8d 45 e4	 lea	 eax, DWORD PTR _fr$[ebp]
  000fe	50		 push	 eax
  000ff	6a 04		 push	 4
  00101	8d 4d cc	 lea	 ecx, DWORD PTR _dwActionBufferSize$[ebp]
  00104	51		 push	 ecx
  00105	e8 00 00 00 00	 call	 ?DecompressRead@@YA_NPAXIAAVFileReader@ReplayTool@@@Z ; DecompressRead
  0010a	83 c4 0c	 add	 esp, 12			; 0000000cH
  0010d	0f b6 d0	 movzx	 edx, al
  00110	85 d2		 test	 edx, edx
  00112	75 26		 jne	 SHORT $LN10@parseRepla

; 109  :     return errSimple("Unable to read actions size.");

  00114	68 00 00 00 00	 push	 OFFSET ??_C@_0BN@BAHEENIG@Unable?5to?5read?5actions?5size?4?$AA@
  00119	e8 00 00 00 00	 call	 ?errSimple@@YA_NPBD@Z	; errSimple
  0011e	83 c4 04	 add	 esp, 4
  00121	88 85 b3 fc ff
	ff		 mov	 BYTE PTR $T173753[ebp], al
  00127	8d 4d e4	 lea	 ecx, DWORD PTR _fr$[ebp]
  0012a	e8 00 00 00 00	 call	 ??1FileReader@ReplayTool@@QAE@XZ ; ReplayTool::FileReader::~FileReader
  0012f	8a 85 b3 fc ff
	ff		 mov	 al, BYTE PTR $T173753[ebp]
  00135	e9 96 03 00 00	 jmp	 $LN15@parseRepla
$LN10@parseRepla:

; 110  : 
; 111  :   // Allocate and Read replay actions
; 112  :   ReplayReader repActions(dwActionBufferSize);

  0013a	8b 45 cc	 mov	 eax, DWORD PTR _dwActionBufferSize$[ebp]
  0013d	50		 push	 eax
  0013e	8d 4d a4	 lea	 ecx, DWORD PTR _repActions$[ebp]
  00141	e8 00 00 00 00	 call	 ??0ReplayReader@ReplayTool@@QAE@K@Z ; ReplayTool::ReplayReader::ReplayReader

; 113  :   if ( dwActionBufferSize && (!repActions || !DecompressRead(repActions, dwActionBufferSize, fr)) )

  00146	83 7d cc 00	 cmp	 DWORD PTR _dwActionBufferSize$[ebp], 0
  0014a	74 5a		 je	 SHORT $LN9@parseRepla
  0014c	8d 4d a4	 lea	 ecx, DWORD PTR _repActions$[ebp]
  0014f	e8 00 00 00 00	 call	 ??BReplayReader@ReplayTool@@QBEPAXXZ ; ReplayTool::ReplayReader::operator void *
  00154	85 c0		 test	 eax, eax
  00156	74 20		 je	 SHORT $LN8@parseRepla
  00158	8d 45 e4	 lea	 eax, DWORD PTR _fr$[ebp]
  0015b	50		 push	 eax
  0015c	8b 4d cc	 mov	 ecx, DWORD PTR _dwActionBufferSize$[ebp]
  0015f	51		 push	 ecx
  00160	8d 4d a4	 lea	 ecx, DWORD PTR _repActions$[ebp]
  00163	e8 00 00 00 00	 call	 ??BReplayReader@ReplayTool@@QBEPAXXZ ; ReplayTool::ReplayReader::operator void *
  00168	50		 push	 eax
  00169	e8 00 00 00 00	 call	 ?DecompressRead@@YA_NPAXIAAVFileReader@ReplayTool@@@Z ; DecompressRead
  0016e	83 c4 0c	 add	 esp, 12			; 0000000cH
  00171	0f b6 d0	 movzx	 edx, al
  00174	85 d2		 test	 edx, edx
  00176	75 2e		 jne	 SHORT $LN9@parseRepla
$LN8@parseRepla:

; 114  :     return errSimple("Decompressing actions failed.");

  00178	68 00 00 00 00	 push	 OFFSET ??_C@_0BO@EPJINIOH@Decompressing?5actions?5failed?4?$AA@
  0017d	e8 00 00 00 00	 call	 ?errSimple@@YA_NPBD@Z	; errSimple
  00182	83 c4 04	 add	 esp, 4
  00185	88 85 bf fc ff
	ff		 mov	 BYTE PTR $T173754[ebp], al
  0018b	8d 4d a4	 lea	 ecx, DWORD PTR _repActions$[ebp]
  0018e	e8 00 00 00 00	 call	 ??1ReplayReader@ReplayTool@@UAE@XZ ; ReplayTool::ReplayReader::~ReplayReader
  00193	8d 4d e4	 lea	 ecx, DWORD PTR _fr$[ebp]
  00196	e8 00 00 00 00	 call	 ??1FileReader@ReplayTool@@QAE@XZ ; ReplayTool::FileReader::~FileReader
  0019b	8a 85 bf fc ff
	ff		 mov	 al, BYTE PTR $T173754[ebp]
  001a1	e9 2a 03 00 00	 jmp	 $LN15@parseRepla
$LN9@parseRepla:

; 115  : 
; 116  : /////////////////// Map Chk
; 117  :   // get map chunk data size
; 118  :   DWORD dwChkBufferSize = 0;

  001a6	c7 45 98 00 00
	00 00		 mov	 DWORD PTR _dwChkBufferSize$[ebp], 0

; 119  :   if ( !DecompressRead(&dwChkBufferSize, 4, fr) )

  001ad	8d 45 e4	 lea	 eax, DWORD PTR _fr$[ebp]
  001b0	50		 push	 eax
  001b1	6a 04		 push	 4
  001b3	8d 4d 98	 lea	 ecx, DWORD PTR _dwChkBufferSize$[ebp]
  001b6	51		 push	 ecx
  001b7	e8 00 00 00 00	 call	 ?DecompressRead@@YA_NPAXIAAVFileReader@ReplayTool@@@Z ; DecompressRead
  001bc	83 c4 0c	 add	 esp, 12			; 0000000cH
  001bf	0f b6 d0	 movzx	 edx, al
  001c2	85 d2		 test	 edx, edx
  001c4	75 2e		 jne	 SHORT $LN7@parseRepla

; 120  :     return errSimple("Unable to read chk size.");

  001c6	68 00 00 00 00	 push	 OFFSET ??_C@_0BJ@OIDIHHCB@Unable?5to?5read?5chk?5size?4?$AA@
  001cb	e8 00 00 00 00	 call	 ?errSimple@@YA_NPBD@Z	; errSimple
  001d0	83 c4 04	 add	 esp, 4
  001d3	88 85 cb fc ff
	ff		 mov	 BYTE PTR $T173755[ebp], al
  001d9	8d 4d a4	 lea	 ecx, DWORD PTR _repActions$[ebp]
  001dc	e8 00 00 00 00	 call	 ??1ReplayReader@ReplayTool@@UAE@XZ ; ReplayTool::ReplayReader::~ReplayReader
  001e1	8d 4d e4	 lea	 ecx, DWORD PTR _fr$[ebp]
  001e4	e8 00 00 00 00	 call	 ??1FileReader@ReplayTool@@QAE@XZ ; ReplayTool::FileReader::~FileReader
  001e9	8a 85 cb fc ff
	ff		 mov	 al, BYTE PTR $T173755[ebp]
  001ef	e9 dc 02 00 00	 jmp	 $LN15@parseRepla
$LN7@parseRepla:

; 121  : 
; 122  :   // Allocate and Read chk data
; 123  :   void *pChkBuffer = malloc(dwChkBufferSize);

  001f4	8b f4		 mov	 esi, esp
  001f6	8b 45 98	 mov	 eax, DWORD PTR _dwChkBufferSize$[ebp]
  001f9	50		 push	 eax
  001fa	ff 15 00 00 00
	00		 call	 DWORD PTR __imp__malloc
  00200	83 c4 04	 add	 esp, 4
  00203	3b f4		 cmp	 esi, esp
  00205	e8 00 00 00 00	 call	 __RTC_CheckEsp
  0020a	89 45 8c	 mov	 DWORD PTR _pChkBuffer$[ebp], eax

; 124  :   //FileReader frChk(pChkBuffer, dwChkBufferSize);
; 125  :   if ( dwChkBufferSize && !DecompressRead(pChkBuffer, dwChkBufferSize, fr) )

  0020d	83 7d 98 00	 cmp	 DWORD PTR _dwChkBufferSize$[ebp], 0
  00211	74 49		 je	 SHORT $LN6@parseRepla
  00213	8d 45 e4	 lea	 eax, DWORD PTR _fr$[ebp]
  00216	50		 push	 eax
  00217	8b 4d 98	 mov	 ecx, DWORD PTR _dwChkBufferSize$[ebp]
  0021a	51		 push	 ecx
  0021b	8b 55 8c	 mov	 edx, DWORD PTR _pChkBuffer$[ebp]
  0021e	52		 push	 edx
  0021f	e8 00 00 00 00	 call	 ?DecompressRead@@YA_NPAXIAAVFileReader@ReplayTool@@@Z ; DecompressRead
  00224	83 c4 0c	 add	 esp, 12			; 0000000cH
  00227	0f b6 c0	 movzx	 eax, al
  0022a	85 c0		 test	 eax, eax
  0022c	75 2e		 jne	 SHORT $LN6@parseRepla

; 126  :     return errSimple("Decompressing map failed.");

  0022e	68 00 00 00 00	 push	 OFFSET ??_C@_0BK@IEBEPEGN@Decompressing?5map?5failed?4?$AA@
  00233	e8 00 00 00 00	 call	 ?errSimple@@YA_NPBD@Z	; errSimple
  00238	83 c4 04	 add	 esp, 4
  0023b	88 85 d7 fc ff
	ff		 mov	 BYTE PTR $T173756[ebp], al
  00241	8d 4d a4	 lea	 ecx, DWORD PTR _repActions$[ebp]
  00244	e8 00 00 00 00	 call	 ??1ReplayReader@ReplayTool@@UAE@XZ ; ReplayTool::ReplayReader::~ReplayReader
  00249	8d 4d e4	 lea	 ecx, DWORD PTR _fr$[ebp]
  0024c	e8 00 00 00 00	 call	 ??1FileReader@ReplayTool@@QAE@XZ ; ReplayTool::FileReader::~FileReader
  00251	8a 85 d7 fc ff
	ff		 mov	 al, BYTE PTR $T173756[ebp]
  00257	e9 74 02 00 00	 jmp	 $LN15@parseRepla
$LN6@parseRepla:

; 127  : 
; 128  :   // Write extracted replay data
; 129  :   if ( dwFlags & RFLAG_EXTRACT )

  0025c	8b 45 0c	 mov	 eax, DWORD PTR _dwFlags$[ebp]
  0025f	83 e0 01	 and	 eax, 1
  00262	74 61		 je	 SHORT $LN5@parseRepla

; 130  :   {
; 131  :     writeBuffer("%s.hdr", params.getReplayPath(), &replayHeader, sizeof(replayHeader));

  00264	68 79 02 00 00	 push	 633			; 00000279H
  00269	68 00 00 00 00	 push	 OFFSET ?replayHeader@@3Ureplay_resource@ReplayTool@@A ; replayHeader
  0026e	8b 4d 08	 mov	 ecx, DWORD PTR _params$[ebp]
  00271	e8 00 00 00 00	 call	 ?getReplayPath@ParseReplayParams@ReplayTool@@QBEPBDXZ ; ReplayTool::ParseReplayParams::getReplayPath
  00276	50		 push	 eax
  00277	68 00 00 00 00	 push	 OFFSET ??_C@_06KABEHPNE@?$CFs?4hdr?$AA@
  0027c	e8 00 00 00 00	 call	 ?writeBuffer@@YAXPBD0PAXK@Z ; writeBuffer
  00281	83 c4 10	 add	 esp, 16			; 00000010H

; 132  :     writeBuffer("%s.act", params.getReplayPath(), repActions, dwActionBufferSize);

  00284	8b 45 cc	 mov	 eax, DWORD PTR _dwActionBufferSize$[ebp]
  00287	50		 push	 eax
  00288	8d 4d a4	 lea	 ecx, DWORD PTR _repActions$[ebp]
  0028b	e8 00 00 00 00	 call	 ??BReplayReader@ReplayTool@@QBEPAXXZ ; ReplayTool::ReplayReader::operator void *
  00290	50		 push	 eax
  00291	8b 4d 08	 mov	 ecx, DWORD PTR _params$[ebp]
  00294	e8 00 00 00 00	 call	 ?getReplayPath@ParseReplayParams@ReplayTool@@QBEPBDXZ ; ReplayTool::ParseReplayParams::getReplayPath
  00299	50		 push	 eax
  0029a	68 00 00 00 00	 push	 OFFSET ??_C@_06IOAJIBFN@?$CFs?4act?$AA@
  0029f	e8 00 00 00 00	 call	 ?writeBuffer@@YAXPBD0PAXK@Z ; writeBuffer
  002a4	83 c4 10	 add	 esp, 16			; 00000010H

; 133  :     writeBuffer("%s.chk", params.getReplayPath(), pChkBuffer, dwChkBufferSize);

  002a7	8b 45 98	 mov	 eax, DWORD PTR _dwChkBufferSize$[ebp]
  002aa	50		 push	 eax
  002ab	8b 4d 8c	 mov	 ecx, DWORD PTR _pChkBuffer$[ebp]
  002ae	51		 push	 ecx
  002af	8b 4d 08	 mov	 ecx, DWORD PTR _params$[ebp]
  002b2	e8 00 00 00 00	 call	 ?getReplayPath@ParseReplayParams@ReplayTool@@QBEPBDXZ ; ReplayTool::ParseReplayParams::getReplayPath
  002b7	50		 push	 eax
  002b8	68 00 00 00 00	 push	 OFFSET ??_C@_06OFAPKIKJ@?$CFs?4chk?$AA@
  002bd	e8 00 00 00 00	 call	 ?writeBuffer@@YAXPBD0PAXK@Z ; writeBuffer
  002c2	83 c4 10	 add	 esp, 16			; 00000010H
$LN5@parseRepla:

; 134  :   }
; 135  : 
; 136  :   // parse data for repair
; 137  :   if ( dwFlags & RFLAG_REPAIR )

  002c5	8b 45 0c	 mov	 eax, DWORD PTR _dwFlags$[ebp]
  002c8	83 e0 02	 and	 eax, 2
  002cb	0f 84 e2 01 00
	00		 je	 $LN4@parseRepla

; 138  :   {
; 139  :     list<ReplayTool::GameAction*> actions;

  002d1	8d 8d 74 ff ff
	ff		 lea	 ecx, DWORD PTR _actions$159010[ebp]
  002d7	e8 00 00 00 00	 call	 ??0?$list@PAVGameAction@ReplayTool@@V?$allocator@PAVGameAction@ReplayTool@@@std@@@std@@QAE@XZ ; std::list<ReplayTool::GameAction *,std::allocator<ReplayTool::GameAction *> >::list<ReplayTool::GameAction *,std::allocator<ReplayTool::GameAction *> >

; 140  :     char actionsDbgFilepath[MAX_PATH];
; 141  : 
; 142  :     getActionsTraceFilepath(params, actionsDbgFilepath);

  002dc	8d 85 68 fe ff
	ff		 lea	 eax, DWORD PTR _actionsDbgFilepath$159011[ebp]
  002e2	50		 push	 eax
  002e3	8b 4d 08	 mov	 ecx, DWORD PTR _params$[ebp]
  002e6	51		 push	 ecx
  002e7	e8 00 00 00 00	 call	 ?getActionsTraceFilepath@@YAXABVParseReplayParams@ReplayTool@@QAD@Z ; getActionsTraceFilepath
  002ec	83 c4 08	 add	 esp, 8

; 143  : 
; 144  :     // Parse replay actions
; 145  :     parseActions(repActions, actions);

  002ef	8d 85 74 ff ff
	ff		 lea	 eax, DWORD PTR _actions$159010[ebp]
  002f5	50		 push	 eax
  002f6	8d 4d a4	 lea	 ecx, DWORD PTR _repActions$[ebp]
  002f9	51		 push	 ecx
  002fa	e8 00 00 00 00	 call	 _parseActions
  002ff	83 c4 08	 add	 esp, 8

; 146  :     logActions(actions, actionsDbgFilepath);

  00302	8d 85 68 fe ff
	ff		 lea	 eax, DWORD PTR _actionsDbgFilepath$159011[ebp]
  00308	50		 push	 eax
  00309	8d 8d 74 ff ff
	ff		 lea	 ecx, DWORD PTR _actions$159010[ebp]
  0030f	51		 push	 ecx
  00310	e8 00 00 00 00	 call	 _logActions
  00315	83 c4 08	 add	 esp, 8

; 147  : 
; 148  :     if ( replayHeader.dwFrameCount < repActions.highestFrameTick() )

  00318	8d 4d a4	 lea	 ecx, DWORD PTR _repActions$[ebp]
  0031b	e8 00 00 00 00	 call	 ?highestFrameTick@ReplayReader@ReplayTool@@UBEKXZ ; ReplayTool::ReplayReader::highestFrameTick
  00320	39 05 01 00 00
	00		 cmp	 DWORD PTR ?replayHeader@@3Ureplay_resource@ReplayTool@@A+1, eax
  00326	0f 83 7c 01 00
	00		 jae	 $LN3@parseRepla

; 149  :     {
; 150  :       std::ofstream log("Results.txt", std::ios_base::app);

  0032c	6a 01		 push	 1
  0032e	6a 40		 push	 64			; 00000040H
  00330	6a 08		 push	 8
  00332	68 00 00 00 00	 push	 OFFSET ??_C@_0M@ELGLGCGP@Results?4txt?$AA@
  00337	8d 8d b8 fd ff
	ff		 lea	 ecx, DWORD PTR _log$159013[ebp]
  0033d	e8 00 00 00 00	 call	 ??0?$basic_ofstream@DU?$char_traits@D@std@@@std@@QAE@PBDHH@Z ; std::basic_ofstream<char,std::char_traits<char> >::basic_ofstream<char,std::char_traits<char> >

; 151  :       log << params.getReplayPath() << " -- Fixed replay with " << replayHeader.dwFrameCount << " frames. Desired: " << repActions.highestFrameTick() << " frames.\n";

  00342	68 00 00 00 00	 push	 OFFSET ??_C@_09OLOLNFGA@?5frames?4?6?$AA@
  00347	8d 4d a4	 lea	 ecx, DWORD PTR _repActions$[ebp]
  0034a	e8 00 00 00 00	 call	 ?highestFrameTick@ReplayReader@ReplayTool@@UBEKXZ ; ReplayTool::ReplayReader::highestFrameTick
  0034f	8b f4		 mov	 esi, esp
  00351	50		 push	 eax
  00352	68 00 00 00 00	 push	 OFFSET ??_C@_0BD@KJNJLLBA@?5frames?4?5Desired?3?5?$AA@
  00357	8b fc		 mov	 edi, esp
  00359	a1 01 00 00 00	 mov	 eax, DWORD PTR ?replayHeader@@3Ureplay_resource@ReplayTool@@A+1
  0035e	50		 push	 eax
  0035f	68 00 00 00 00	 push	 OFFSET ??_C@_0BH@GIODCKM@?5?9?9?5Fixed?5replay?5with?5?$AA@
  00364	8b 4d 08	 mov	 ecx, DWORD PTR _params$[ebp]
  00367	e8 00 00 00 00	 call	 ?getReplayPath@ParseReplayParams@ReplayTool@@QBEPBDXZ ; ReplayTool::ParseReplayParams::getReplayPath
  0036c	50		 push	 eax
  0036d	8d 8d b8 fd ff
	ff		 lea	 ecx, DWORD PTR _log$159013[ebp]
  00373	51		 push	 ecx
  00374	e8 00 00 00 00	 call	 ??$?6U?$char_traits@D@std@@@std@@YAAAV?$basic_ostream@DU?$char_traits@D@std@@@0@AAV10@PBD@Z ; std::operator<<<std::char_traits<char> >
  00379	83 c4 08	 add	 esp, 8
  0037c	50		 push	 eax
  0037d	e8 00 00 00 00	 call	 ??$?6U?$char_traits@D@std@@@std@@YAAAV?$basic_ostream@DU?$char_traits@D@std@@@0@AAV10@PBD@Z ; std::operator<<<std::char_traits<char> >
  00382	83 c4 08	 add	 esp, 8
  00385	8b c8		 mov	 ecx, eax
  00387	ff 15 00 00 00
	00		 call	 DWORD PTR __imp_??6?$basic_ostream@DU?$char_traits@D@std@@@std@@QAEAAV01@K@Z
  0038d	3b fc		 cmp	 edi, esp
  0038f	e8 00 00 00 00	 call	 __RTC_CheckEsp
  00394	50		 push	 eax
  00395	e8 00 00 00 00	 call	 ??$?6U?$char_traits@D@std@@@std@@YAAAV?$basic_ostream@DU?$char_traits@D@std@@@0@AAV10@PBD@Z ; std::operator<<<std::char_traits<char> >
  0039a	83 c4 08	 add	 esp, 8
  0039d	8b c8		 mov	 ecx, eax
  0039f	ff 15 00 00 00
	00		 call	 DWORD PTR __imp_??6?$basic_ostream@DU?$char_traits@D@std@@@std@@QAEAAV01@K@Z
  003a5	3b f4		 cmp	 esi, esp
  003a7	e8 00 00 00 00	 call	 __RTC_CheckEsp
  003ac	50		 push	 eax
  003ad	e8 00 00 00 00	 call	 ??$?6U?$char_traits@D@std@@@std@@YAAAV?$basic_ostream@DU?$char_traits@D@std@@@0@AAV10@PBD@Z ; std::operator<<<std::char_traits<char> >
  003b2	83 c4 08	 add	 esp, 8

; 152  : 
; 153  :       replayHeader.dwFrameCount = repActions.highestFrameTick() + 100;

  003b5	8d 4d a4	 lea	 ecx, DWORD PTR _repActions$[ebp]
  003b8	e8 00 00 00 00	 call	 ?highestFrameTick@ReplayReader@ReplayTool@@UBEKXZ ; ReplayTool::ReplayReader::highestFrameTick
  003bd	83 c0 64	 add	 eax, 100		; 00000064H
  003c0	a3 01 00 00 00	 mov	 DWORD PTR ?replayHeader@@3Ureplay_resource@ReplayTool@@A+1, eax

; 154  : 
; 155  :       // Repair/reconstruct the replay
; 156  :       FileWriter fw;

  003c5	8d 8d ac fd ff
	ff		 lea	 ecx, DWORD PTR _fw$159037[ebp]
  003cb	e8 00 00 00 00	 call	 ??0FileWriter@ReplayTool@@QAE@XZ ; ReplayTool::FileWriter::FileWriter

; 157  :       fw.Open(params.getReplayPath());

  003d0	8b 4d 08	 mov	 ecx, DWORD PTR _params$[ebp]
  003d3	e8 00 00 00 00	 call	 ?getReplayPath@ParseReplayParams@ReplayTool@@QBEPBDXZ ; ReplayTool::ParseReplayParams::getReplayPath
  003d8	50		 push	 eax
  003d9	8d 8d ac fd ff
	ff		 lea	 ecx, DWORD PTR _fw$159037[ebp]
  003df	e8 00 00 00 00	 call	 ?Open@FileWriter@ReplayTool@@QAE_NPBD@Z ; ReplayTool::FileWriter::Open

; 158  : 
; 159  :       // write rep resource id
; 160  :       dwRepResourceID = mmioFOURCC('r','e','R','S');

  003e4	c7 45 d8 72 65
	52 53		 mov	 DWORD PTR _dwRepResourceID$[ebp], 1397908850 ; 53526572H

; 161  :       CompressWrite(&dwRepResourceID, sizeof(dwRepResourceID), fw);

  003eb	8d 85 ac fd ff
	ff		 lea	 eax, DWORD PTR _fw$159037[ebp]
  003f1	50		 push	 eax
  003f2	6a 04		 push	 4
  003f4	8d 4d d8	 lea	 ecx, DWORD PTR _dwRepResourceID$[ebp]
  003f7	51		 push	 ecx
  003f8	e8 00 00 00 00	 call	 ?CompressWrite@@YAXPAXIAAVFileWriter@ReplayTool@@@Z ; CompressWrite
  003fd	83 c4 0c	 add	 esp, 12			; 0000000cH

; 162  : 
; 163  :       // write header
; 164  :       CompressWrite(&replayHeader, sizeof(replayHeader), fw);

  00400	8d 85 ac fd ff
	ff		 lea	 eax, DWORD PTR _fw$159037[ebp]
  00406	50		 push	 eax
  00407	68 79 02 00 00	 push	 633			; 00000279H
  0040c	68 00 00 00 00	 push	 OFFSET ?replayHeader@@3Ureplay_resource@ReplayTool@@A ; replayHeader
  00411	e8 00 00 00 00	 call	 ?CompressWrite@@YAXPAXIAAVFileWriter@ReplayTool@@@Z ; CompressWrite
  00416	83 c4 0c	 add	 esp, 12			; 0000000cH

; 165  : 
; 166  :       // write actions
; 167  :       CompressWrite(&dwActionBufferSize, sizeof(dwActionBufferSize), fw);

  00419	8d 85 ac fd ff
	ff		 lea	 eax, DWORD PTR _fw$159037[ebp]
  0041f	50		 push	 eax
  00420	6a 04		 push	 4
  00422	8d 4d cc	 lea	 ecx, DWORD PTR _dwActionBufferSize$[ebp]
  00425	51		 push	 ecx
  00426	e8 00 00 00 00	 call	 ?CompressWrite@@YAXPAXIAAVFileWriter@ReplayTool@@@Z ; CompressWrite
  0042b	83 c4 0c	 add	 esp, 12			; 0000000cH

; 168  :       if ( dwActionBufferSize )

  0042e	83 7d cc 00	 cmp	 DWORD PTR _dwActionBufferSize$[ebp], 0
  00432	74 21		 je	 SHORT $LN2@parseRepla

; 169  :         CompressWrite(repActions, repActions.size(), fw);

  00434	8d 85 ac fd ff
	ff		 lea	 eax, DWORD PTR _fw$159037[ebp]
  0043a	50		 push	 eax
  0043b	8d 4d a4	 lea	 ecx, DWORD PTR _repActions$[ebp]
  0043e	e8 00 00 00 00	 call	 ?size@ReplayReader@ReplayTool@@QBEIXZ ; ReplayTool::ReplayReader::size
  00443	50		 push	 eax
  00444	8d 4d a4	 lea	 ecx, DWORD PTR _repActions$[ebp]
  00447	e8 00 00 00 00	 call	 ??BReplayReader@ReplayTool@@QBEPAXXZ ; ReplayTool::ReplayReader::operator void *
  0044c	50		 push	 eax
  0044d	e8 00 00 00 00	 call	 ?CompressWrite@@YAXPAXIAAVFileWriter@ReplayTool@@@Z ; CompressWrite
  00452	83 c4 0c	 add	 esp, 12			; 0000000cH
$LN2@parseRepla:

; 170  :     
; 171  :       // write chk
; 172  :       CompressWrite(&dwChkBufferSize, sizeof(dwChkBufferSize), fw);

  00455	8d 85 ac fd ff
	ff		 lea	 eax, DWORD PTR _fw$159037[ebp]
  0045b	50		 push	 eax
  0045c	6a 04		 push	 4
  0045e	8d 4d 98	 lea	 ecx, DWORD PTR _dwChkBufferSize$[ebp]
  00461	51		 push	 ecx
  00462	e8 00 00 00 00	 call	 ?CompressWrite@@YAXPAXIAAVFileWriter@ReplayTool@@@Z ; CompressWrite
  00467	83 c4 0c	 add	 esp, 12			; 0000000cH

; 173  :       if ( dwChkBufferSize )

  0046a	83 7d 98 00	 cmp	 DWORD PTR _dwChkBufferSize$[ebp], 0
  0046e	74 17		 je	 SHORT $LN1@parseRepla

; 174  :         CompressWrite(pChkBuffer, dwChkBufferSize, fw);

  00470	8d 85 ac fd ff
	ff		 lea	 eax, DWORD PTR _fw$159037[ebp]
  00476	50		 push	 eax
  00477	8b 4d 98	 mov	 ecx, DWORD PTR _dwChkBufferSize$[ebp]
  0047a	51		 push	 ecx
  0047b	8b 55 8c	 mov	 edx, DWORD PTR _pChkBuffer$[ebp]
  0047e	52		 push	 edx
  0047f	e8 00 00 00 00	 call	 ?CompressWrite@@YAXPAXIAAVFileWriter@ReplayTool@@@Z ; CompressWrite
  00484	83 c4 0c	 add	 esp, 12			; 0000000cH
$LN1@parseRepla:

; 175  : 
; 176  :       log.close();

  00487	8d 8d b8 fd ff
	ff		 lea	 ecx, DWORD PTR _log$159013[ebp]
  0048d	e8 00 00 00 00	 call	 ?close@?$basic_ofstream@DU?$char_traits@D@std@@@std@@QAEXXZ ; std::basic_ofstream<char,std::char_traits<char> >::close

; 177  :     } // if replay is damaged

  00492	8d 8d ac fd ff
	ff		 lea	 ecx, DWORD PTR _fw$159037[ebp]
  00498	e8 00 00 00 00	 call	 ??1FileWriter@ReplayTool@@QAE@XZ ; ReplayTool::FileWriter::~FileWriter
  0049d	8d 8d b8 fd ff
	ff		 lea	 ecx, DWORD PTR _log$159013[ebp]
  004a3	e8 00 00 00 00	 call	 ??_D?$basic_ofstream@DU?$char_traits@D@std@@@std@@QAEXXZ
$LN3@parseRepla:

; 178  :   }

  004a8	8d 8d 74 ff ff
	ff		 lea	 ecx, DWORD PTR _actions$159010[ebp]
  004ae	e8 00 00 00 00	 call	 ??1?$list@PAVGameAction@ReplayTool@@V?$allocator@PAVGameAction@ReplayTool@@@std@@@std@@QAE@XZ ; std::list<ReplayTool::GameAction *,std::allocator<ReplayTool::GameAction *> >::~list<ReplayTool::GameAction *,std::allocator<ReplayTool::GameAction *> >
$LN4@parseRepla:

; 179  : 
; 180  :   return true;

  004b3	c6 85 e3 fc ff
	ff 01		 mov	 BYTE PTR $T173757[ebp], 1
  004ba	8d 4d a4	 lea	 ecx, DWORD PTR _repActions$[ebp]
  004bd	e8 00 00 00 00	 call	 ??1ReplayReader@ReplayTool@@UAE@XZ ; ReplayTool::ReplayReader::~ReplayReader
  004c2	8d 4d e4	 lea	 ecx, DWORD PTR _fr$[ebp]
  004c5	e8 00 00 00 00	 call	 ??1FileReader@ReplayTool@@QAE@XZ ; ReplayTool::FileReader::~FileReader
  004ca	8a 85 e3 fc ff
	ff		 mov	 al, BYTE PTR $T173757[ebp]
$LN15@parseRepla:

; 181  : }

  004d0	52		 push	 edx
  004d1	8b cd		 mov	 ecx, ebp
  004d3	50		 push	 eax
  004d4	8d 15 00 00 00
	00		 lea	 edx, DWORD PTR $LN27@parseRepla
  004da	e8 00 00 00 00	 call	 @_RTC_CheckStackVars@8
  004df	58		 pop	 eax
  004e0	5a		 pop	 edx
  004e1	5f		 pop	 edi
  004e2	5e		 pop	 esi
  004e3	5b		 pop	 ebx
  004e4	8b 4d fc	 mov	 ecx, DWORD PTR __$ArrayPad$[ebp]
  004e7	33 cd		 xor	 ecx, ebp
  004e9	e8 00 00 00 00	 call	 @__security_check_cookie@4
  004ee	81 c4 78 03 00
	00		 add	 esp, 888		; 00000378H
  004f4	3b ec		 cmp	 ebp, esp
  004f6	e8 00 00 00 00	 call	 __RTC_CheckEsp
  004fb	8b e5		 mov	 esp, ebp
  004fd	5d		 pop	 ebp
  004fe	c3		 ret	 0
  004ff	90		 npad	 1
$LN27@parseRepla:
  00500	09 00 00 00	 DD	 9
  00504	00 00 00 00	 DD	 $LN26@parseRepla
$LN26@parseRepla:
  00508	e4 ff ff ff	 DD	 -28			; ffffffe4H
  0050c	14 00 00 00	 DD	 20			; 00000014H
  00510	00 00 00 00	 DD	 $LN17@parseRepla
  00514	d8 ff ff ff	 DD	 -40			; ffffffd8H
  00518	04 00 00 00	 DD	 4
  0051c	00 00 00 00	 DD	 $LN18@parseRepla
  00520	cc ff ff ff	 DD	 -52			; ffffffccH
  00524	04 00 00 00	 DD	 4
  00528	00 00 00 00	 DD	 $LN19@parseRepla
  0052c	a4 ff ff ff	 DD	 -92			; ffffffa4H
  00530	20 00 00 00	 DD	 32			; 00000020H
  00534	00 00 00 00	 DD	 $LN20@parseRepla
  00538	98 ff ff ff	 DD	 -104			; ffffff98H
  0053c	04 00 00 00	 DD	 4
  00540	00 00 00 00	 DD	 $LN21@parseRepla
  00544	74 ff ff ff	 DD	 -140			; ffffff74H
  00548	10 00 00 00	 DD	 16			; 00000010H
  0054c	00 00 00 00	 DD	 $LN22@parseRepla
  00550	68 fe ff ff	 DD	 -408			; fffffe68H
  00554	04 01 00 00	 DD	 260			; 00000104H
  00558	00 00 00 00	 DD	 $LN23@parseRepla
  0055c	b8 fd ff ff	 DD	 -584			; fffffdb8H
  00560	a8 00 00 00	 DD	 168			; 000000a8H
  00564	00 00 00 00	 DD	 $LN24@parseRepla
  00568	ac fd ff ff	 DD	 -596			; fffffdacH
  0056c	04 00 00 00	 DD	 4
  00570	00 00 00 00	 DD	 $LN25@parseRepla
$LN25@parseRepla:
  00574	66		 DB	 102			; 00000066H
  00575	77		 DB	 119			; 00000077H
  00576	00		 DB	 0
$LN24@parseRepla:
  00577	6c		 DB	 108			; 0000006cH
  00578	6f		 DB	 111			; 0000006fH
  00579	67		 DB	 103			; 00000067H
  0057a	00		 DB	 0
$LN23@parseRepla:
  0057b	61		 DB	 97			; 00000061H
  0057c	63		 DB	 99			; 00000063H
  0057d	74		 DB	 116			; 00000074H
  0057e	69		 DB	 105			; 00000069H
  0057f	6f		 DB	 111			; 0000006fH
  00580	6e		 DB	 110			; 0000006eH
  00581	73		 DB	 115			; 00000073H
  00582	44		 DB	 68			; 00000044H
  00583	62		 DB	 98			; 00000062H
  00584	67		 DB	 103			; 00000067H
  00585	46		 DB	 70			; 00000046H
  00586	69		 DB	 105			; 00000069H
  00587	6c		 DB	 108			; 0000006cH
  00588	65		 DB	 101			; 00000065H
  00589	70		 DB	 112			; 00000070H
  0058a	61		 DB	 97			; 00000061H
  0058b	74		 DB	 116			; 00000074H
  0058c	68		 DB	 104			; 00000068H
  0058d	00		 DB	 0
$LN22@parseRepla:
  0058e	61		 DB	 97			; 00000061H
  0058f	63		 DB	 99			; 00000063H
  00590	74		 DB	 116			; 00000074H
  00591	69		 DB	 105			; 00000069H
  00592	6f		 DB	 111			; 0000006fH
  00593	6e		 DB	 110			; 0000006eH
  00594	73		 DB	 115			; 00000073H
  00595	00		 DB	 0
$LN21@parseRepla:
  00596	64		 DB	 100			; 00000064H
  00597	77		 DB	 119			; 00000077H
  00598	43		 DB	 67			; 00000043H
  00599	68		 DB	 104			; 00000068H
  0059a	6b		 DB	 107			; 0000006bH
  0059b	42		 DB	 66			; 00000042H
  0059c	75		 DB	 117			; 00000075H
  0059d	66		 DB	 102			; 00000066H
  0059e	66		 DB	 102			; 00000066H
  0059f	65		 DB	 101			; 00000065H
  005a0	72		 DB	 114			; 00000072H
  005a1	53		 DB	 83			; 00000053H
  005a2	69		 DB	 105			; 00000069H
  005a3	7a		 DB	 122			; 0000007aH
  005a4	65		 DB	 101			; 00000065H
  005a5	00		 DB	 0
$LN20@parseRepla:
  005a6	72		 DB	 114			; 00000072H
  005a7	65		 DB	 101			; 00000065H
  005a8	70		 DB	 112			; 00000070H
  005a9	41		 DB	 65			; 00000041H
  005aa	63		 DB	 99			; 00000063H
  005ab	74		 DB	 116			; 00000074H
  005ac	69		 DB	 105			; 00000069H
  005ad	6f		 DB	 111			; 0000006fH
  005ae	6e		 DB	 110			; 0000006eH
  005af	73		 DB	 115			; 00000073H
  005b0	00		 DB	 0
$LN19@parseRepla:
  005b1	64		 DB	 100			; 00000064H
  005b2	77		 DB	 119			; 00000077H
  005b3	41		 DB	 65			; 00000041H
  005b4	63		 DB	 99			; 00000063H
  005b5	74		 DB	 116			; 00000074H
  005b6	69		 DB	 105			; 00000069H
  005b7	6f		 DB	 111			; 0000006fH
  005b8	6e		 DB	 110			; 0000006eH
  005b9	42		 DB	 66			; 00000042H
  005ba	75		 DB	 117			; 00000075H
  005bb	66		 DB	 102			; 00000066H
  005bc	66		 DB	 102			; 00000066H
  005bd	65		 DB	 101			; 00000065H
  005be	72		 DB	 114			; 00000072H
  005bf	53		 DB	 83			; 00000053H
  005c0	69		 DB	 105			; 00000069H
  005c1	7a		 DB	 122			; 0000007aH
  005c2	65		 DB	 101			; 00000065H
  005c3	00		 DB	 0
$LN18@parseRepla:
  005c4	64		 DB	 100			; 00000064H
  005c5	77		 DB	 119			; 00000077H
  005c6	52		 DB	 82			; 00000052H
  005c7	65		 DB	 101			; 00000065H
  005c8	70		 DB	 112			; 00000070H
  005c9	52		 DB	 82			; 00000052H
  005ca	65		 DB	 101			; 00000065H
  005cb	73		 DB	 115			; 00000073H
  005cc	6f		 DB	 111			; 0000006fH
  005cd	75		 DB	 117			; 00000075H
  005ce	72		 DB	 114			; 00000072H
  005cf	63		 DB	 99			; 00000063H
  005d0	65		 DB	 101			; 00000065H
  005d1	49		 DB	 73			; 00000049H
  005d2	44		 DB	 68			; 00000044H
  005d3	00		 DB	 0
$LN17@parseRepla:
  005d4	66		 DB	 102			; 00000066H
  005d5	72		 DB	 114			; 00000072H
  005d6	00		 DB	 0
_parseReplay ENDP
_TEXT	ENDS
PUBLIC	??1?$basic_filebuf@DU?$char_traits@D@std@@@std@@UAE@XZ ; std::basic_filebuf<char,std::char_traits<char> >::~basic_filebuf<char,std::char_traits<char> >
PUBLIC	?open@?$basic_filebuf@DU?$char_traits@D@std@@@std@@QAEPAV12@PBDHH@Z ; std::basic_filebuf<char,std::char_traits<char> >::open
PUBLIC	??0?$basic_filebuf@DU?$char_traits@D@std@@@std@@QAE@PAU_iobuf@@@Z ; std::basic_filebuf<char,std::char_traits<char> >::basic_filebuf<char,std::char_traits<char> >
PUBLIC	??_7?$basic_ofstream@DU?$char_traits@D@std@@@std@@6B@ ; std::basic_ofstream<char,std::char_traits<char> >::`vftable'
PUBLIC	??_8?$basic_ofstream@DU?$char_traits@D@std@@@std@@7B@ ; std::basic_ofstream<char,std::char_traits<char> >::`vbtable'
PUBLIC	??_R4?$basic_ofstream@DU?$char_traits@D@std@@@std@@6B@ ; std::basic_ofstream<char,std::char_traits<char> >::`RTTI Complete Object Locator'
PUBLIC	??_R0?AV?$basic_ofstream@DU?$char_traits@D@std@@@std@@@8 ; std::basic_ofstream<char,std::char_traits<char> > `RTTI Type Descriptor'
PUBLIC	??_R3?$basic_ofstream@DU?$char_traits@D@std@@@std@@8 ; std::basic_ofstream<char,std::char_traits<char> >::`RTTI Class Hierarchy Descriptor'
PUBLIC	??_R2?$basic_ofstream@DU?$char_traits@D@std@@@std@@8 ; std::basic_ofstream<char,std::char_traits<char> >::`RTTI Base Class Array'
PUBLIC	??_R1A@?0A@EA@?$basic_ofstream@DU?$char_traits@D@std@@@std@@8 ; std::basic_ofstream<char,std::char_traits<char> >::`RTTI Base Class Descriptor at (0,-1,0,64)'
PUBLIC	??_R1A@?0A@EA@?$basic_ostream@DU?$char_traits@D@std@@@std@@8 ; std::basic_ostream<char,std::char_traits<char> >::`RTTI Base Class Descriptor at (0,-1,0,64)'
PUBLIC	??_R0?AV?$basic_ostream@DU?$char_traits@D@std@@@std@@@8 ; std::basic_ostream<char,std::char_traits<char> > `RTTI Type Descriptor'
PUBLIC	??_R3?$basic_ostream@DU?$char_traits@D@std@@@std@@8 ; std::basic_ostream<char,std::char_traits<char> >::`RTTI Class Hierarchy Descriptor'
PUBLIC	??_R2?$basic_ostream@DU?$char_traits@D@std@@@std@@8 ; std::basic_ostream<char,std::char_traits<char> >::`RTTI Base Class Array'
PUBLIC	??_R1A@A@3FA@?$basic_ios@DU?$char_traits@D@std@@@std@@8 ; std::basic_ios<char,std::char_traits<char> >::`RTTI Base Class Descriptor at (0,0,4,80)'
PUBLIC	??_R0?AV?$basic_ios@DU?$char_traits@D@std@@@std@@@8 ; std::basic_ios<char,std::char_traits<char> > `RTTI Type Descriptor'
PUBLIC	??_R3?$basic_ios@DU?$char_traits@D@std@@@std@@8	; std::basic_ios<char,std::char_traits<char> >::`RTTI Class Hierarchy Descriptor'
PUBLIC	??_R2?$basic_ios@DU?$char_traits@D@std@@@std@@8	; std::basic_ios<char,std::char_traits<char> >::`RTTI Base Class Array'
PUBLIC	??_R1A@?0A@EA@?$basic_ios@DU?$char_traits@D@std@@@std@@8 ; std::basic_ios<char,std::char_traits<char> >::`RTTI Base Class Descriptor at (0,-1,0,64)'
PUBLIC	??_R1A@?0A@EA@ios_base@std@@8			; std::ios_base::`RTTI Base Class Descriptor at (0,-1,0,64)'
PUBLIC	??_R0?AVios_base@std@@@8			; std::ios_base `RTTI Type Descriptor'
PUBLIC	??_R3ios_base@std@@8				; std::ios_base::`RTTI Class Hierarchy Descriptor'
PUBLIC	??_R2ios_base@std@@8				; std::ios_base::`RTTI Base Class Array'
PUBLIC	??_R17?0A@EA@?$_Iosb@H@std@@8			; std::_Iosb<int>::`RTTI Base Class Descriptor at (8,-1,0,64)'
PUBLIC	??_R0?AV?$_Iosb@H@std@@@8			; std::_Iosb<int> `RTTI Type Descriptor'
PUBLIC	??_R3?$_Iosb@H@std@@8				; std::_Iosb<int>::`RTTI Class Hierarchy Descriptor'
PUBLIC	??_R2?$_Iosb@H@std@@8				; std::_Iosb<int>::`RTTI Base Class Array'
PUBLIC	??_R1A@?0A@EA@?$_Iosb@H@std@@8			; std::_Iosb<int>::`RTTI Base Class Descriptor at (0,-1,0,64)'
PUBLIC	??_R1A@A@3EA@ios_base@std@@8			; std::ios_base::`RTTI Base Class Descriptor at (0,0,4,64)'
PUBLIC	??_R17A@3EA@?$_Iosb@H@std@@8			; std::_Iosb<int>::`RTTI Base Class Descriptor at (8,0,4,64)'
EXTRN	__imp_??1?$basic_ostream@DU?$char_traits@D@std@@@std@@UAE@XZ:PROC
EXTRN	__imp_?setstate@?$basic_ios@DU?$char_traits@D@std@@@std@@QAEXH_N@Z:PROC
EXTRN	__imp_??0?$basic_ostream@DU?$char_traits@D@std@@@std@@QAE@PAV?$basic_streambuf@DU?$char_traits@D@std@@@1@_N@Z:PROC
EXTRN	__imp_??0?$basic_ios@DU?$char_traits@D@std@@@std@@IAE@XZ:PROC
EXTRN	??_7type_info@@6B@:QWORD			; type_info::`vftable'
EXTRN	??_E?$basic_ofstream@DU?$char_traits@D@std@@@std@@UAEPAXI@Z:PROC ; std::basic_ofstream<char,std::char_traits<char> >::`vector deleting destructor'
;	COMDAT ??_R17A@3EA@?$_Iosb@H@std@@8
; File c:\program files (x86)\microsoft visual studio 10.0\vc\include\fstream
rdata$r	SEGMENT
??_R17A@3EA@?$_Iosb@H@std@@8 DD FLAT:??_R0?AV?$_Iosb@H@std@@@8 ; std::_Iosb<int>::`RTTI Base Class Descriptor at (8,0,4,64)'
	DD	00H
	DD	08H
	DD	00H
	DD	04H
	DD	040H
	DD	FLAT:??_R3?$_Iosb@H@std@@8
rdata$r	ENDS
;	COMDAT ??_R1A@A@3EA@ios_base@std@@8
rdata$r	SEGMENT
??_R1A@A@3EA@ios_base@std@@8 DD FLAT:??_R0?AVios_base@std@@@8 ; std::ios_base::`RTTI Base Class Descriptor at (0,0,4,64)'
	DD	01H
	DD	00H
	DD	00H
	DD	04H
	DD	040H
	DD	FLAT:??_R3ios_base@std@@8
rdata$r	ENDS
;	COMDAT ??_R1A@?0A@EA@?$_Iosb@H@std@@8
rdata$r	SEGMENT
??_R1A@?0A@EA@?$_Iosb@H@std@@8 DD FLAT:??_R0?AV?$_Iosb@H@std@@@8 ; std::_Iosb<int>::`RTTI Base Class Descriptor at (0,-1,0,64)'
	DD	00H
	DD	00H
	DD	0ffffffffH
	DD	00H
	DD	040H
	DD	FLAT:??_R3?$_Iosb@H@std@@8
rdata$r	ENDS
;	COMDAT ??_R2?$_Iosb@H@std@@8
rdata$r	SEGMENT
??_R2?$_Iosb@H@std@@8 DD FLAT:??_R1A@?0A@EA@?$_Iosb@H@std@@8 ; std::_Iosb<int>::`RTTI Base Class Array'
rdata$r	ENDS
;	COMDAT ??_R3?$_Iosb@H@std@@8
rdata$r	SEGMENT
??_R3?$_Iosb@H@std@@8 DD 00H				; std::_Iosb<int>::`RTTI Class Hierarchy Descriptor'
	DD	00H
	DD	01H
	DD	FLAT:??_R2?$_Iosb@H@std@@8
rdata$r	ENDS
;	COMDAT ??_R0?AV?$_Iosb@H@std@@@8
_DATA	SEGMENT
??_R0?AV?$_Iosb@H@std@@@8 DD FLAT:??_7type_info@@6B@	; std::_Iosb<int> `RTTI Type Descriptor'
	DD	00H
	DB	'.?AV?$_Iosb@H@std@@', 00H
_DATA	ENDS
;	COMDAT ??_R17?0A@EA@?$_Iosb@H@std@@8
rdata$r	SEGMENT
??_R17?0A@EA@?$_Iosb@H@std@@8 DD FLAT:??_R0?AV?$_Iosb@H@std@@@8 ; std::_Iosb<int>::`RTTI Base Class Descriptor at (8,-1,0,64)'
	DD	00H
	DD	08H
	DD	0ffffffffH
	DD	00H
	DD	040H
	DD	FLAT:??_R3?$_Iosb@H@std@@8
rdata$r	ENDS
;	COMDAT ??_R2ios_base@std@@8
rdata$r	SEGMENT
??_R2ios_base@std@@8 DD FLAT:??_R1A@?0A@EA@ios_base@std@@8 ; std::ios_base::`RTTI Base Class Array'
	DD	FLAT:??_R17?0A@EA@?$_Iosb@H@std@@8
rdata$r	ENDS
;	COMDAT ??_R3ios_base@std@@8
rdata$r	SEGMENT
??_R3ios_base@std@@8 DD 00H				; std::ios_base::`RTTI Class Hierarchy Descriptor'
	DD	00H
	DD	02H
	DD	FLAT:??_R2ios_base@std@@8
rdata$r	ENDS
;	COMDAT ??_R0?AVios_base@std@@@8
_DATA	SEGMENT
??_R0?AVios_base@std@@@8 DD FLAT:??_7type_info@@6B@	; std::ios_base `RTTI Type Descriptor'
	DD	00H
	DB	'.?AVios_base@std@@', 00H
_DATA	ENDS
;	COMDAT ??_R1A@?0A@EA@ios_base@std@@8
rdata$r	SEGMENT
??_R1A@?0A@EA@ios_base@std@@8 DD FLAT:??_R0?AVios_base@std@@@8 ; std::ios_base::`RTTI Base Class Descriptor at (0,-1,0,64)'
	DD	01H
	DD	00H
	DD	0ffffffffH
	DD	00H
	DD	040H
	DD	FLAT:??_R3ios_base@std@@8
rdata$r	ENDS
;	COMDAT ??_R1A@?0A@EA@?$basic_ios@DU?$char_traits@D@std@@@std@@8
rdata$r	SEGMENT
??_R1A@?0A@EA@?$basic_ios@DU?$char_traits@D@std@@@std@@8 DD FLAT:??_R0?AV?$basic_ios@DU?$char_traits@D@std@@@std@@@8 ; std::basic_ios<char,std::char_traits<char> >::`RTTI Base Class Descriptor at (0,-1,0,64)'
	DD	02H
	DD	00H
	DD	0ffffffffH
	DD	00H
	DD	040H
	DD	FLAT:??_R3?$basic_ios@DU?$char_traits@D@std@@@std@@8
rdata$r	ENDS
;	COMDAT ??_R2?$basic_ios@DU?$char_traits@D@std@@@std@@8
rdata$r	SEGMENT
??_R2?$basic_ios@DU?$char_traits@D@std@@@std@@8 DD FLAT:??_R1A@?0A@EA@?$basic_ios@DU?$char_traits@D@std@@@std@@8 ; std::basic_ios<char,std::char_traits<char> >::`RTTI Base Class Array'
	DD	FLAT:??_R1A@?0A@EA@ios_base@std@@8
	DD	FLAT:??_R17?0A@EA@?$_Iosb@H@std@@8
rdata$r	ENDS
;	COMDAT ??_R3?$basic_ios@DU?$char_traits@D@std@@@std@@8
rdata$r	SEGMENT
??_R3?$basic_ios@DU?$char_traits@D@std@@@std@@8 DD 00H	; std::basic_ios<char,std::char_traits<char> >::`RTTI Class Hierarchy Descriptor'
	DD	00H
	DD	03H
	DD	FLAT:??_R2?$basic_ios@DU?$char_traits@D@std@@@std@@8
rdata$r	ENDS
;	COMDAT ??_R0?AV?$basic_ios@DU?$char_traits@D@std@@@std@@@8
_DATA	SEGMENT
??_R0?AV?$basic_ios@DU?$char_traits@D@std@@@std@@@8 DD FLAT:??_7type_info@@6B@ ; std::basic_ios<char,std::char_traits<char> > `RTTI Type Descriptor'
	DD	00H
	DB	'.?AV?$basic_ios@DU?$char_traits@D@std@@@std@@', 00H
_DATA	ENDS
;	COMDAT ??_R1A@A@3FA@?$basic_ios@DU?$char_traits@D@std@@@std@@8
rdata$r	SEGMENT
??_R1A@A@3FA@?$basic_ios@DU?$char_traits@D@std@@@std@@8 DD FLAT:??_R0?AV?$basic_ios@DU?$char_traits@D@std@@@std@@@8 ; std::basic_ios<char,std::char_traits<char> >::`RTTI Base Class Descriptor at (0,0,4,80)'
	DD	02H
	DD	00H
	DD	00H
	DD	04H
	DD	050H
	DD	FLAT:??_R3?$basic_ios@DU?$char_traits@D@std@@@std@@8
rdata$r	ENDS
;	COMDAT ??_R2?$basic_ostream@DU?$char_traits@D@std@@@std@@8
rdata$r	SEGMENT
??_R2?$basic_ostream@DU?$char_traits@D@std@@@std@@8 DD FLAT:??_R1A@?0A@EA@?$basic_ostream@DU?$char_traits@D@std@@@std@@8 ; std::basic_ostream<char,std::char_traits<char> >::`RTTI Base Class Array'
	DD	FLAT:??_R1A@A@3FA@?$basic_ios@DU?$char_traits@D@std@@@std@@8
	DD	FLAT:??_R1A@A@3EA@ios_base@std@@8
	DD	FLAT:??_R17A@3EA@?$_Iosb@H@std@@8
rdata$r	ENDS
;	COMDAT ??_R3?$basic_ostream@DU?$char_traits@D@std@@@std@@8
rdata$r	SEGMENT
??_R3?$basic_ostream@DU?$char_traits@D@std@@@std@@8 DD 00H ; std::basic_ostream<char,std::char_traits<char> >::`RTTI Class Hierarchy Descriptor'
	DD	00H
	DD	04H
	DD	FLAT:??_R2?$basic_ostream@DU?$char_traits@D@std@@@std@@8
rdata$r	ENDS
;	COMDAT ??_R0?AV?$basic_ostream@DU?$char_traits@D@std@@@std@@@8
_DATA	SEGMENT
??_R0?AV?$basic_ostream@DU?$char_traits@D@std@@@std@@@8 DD FLAT:??_7type_info@@6B@ ; std::basic_ostream<char,std::char_traits<char> > `RTTI Type Descriptor'
	DD	00H
	DB	'.?AV?$basic_ostream@DU?$char_traits@D@std@@@std@@', 00H
_DATA	ENDS
;	COMDAT ??_R1A@?0A@EA@?$basic_ostream@DU?$char_traits@D@std@@@std@@8
rdata$r	SEGMENT
??_R1A@?0A@EA@?$basic_ostream@DU?$char_traits@D@std@@@std@@8 DD FLAT:??_R0?AV?$basic_ostream@DU?$char_traits@D@std@@@std@@@8 ; std::basic_ostream<char,std::char_traits<char> >::`RTTI Base Class Descriptor at (0,-1,0,64)'
	DD	03H
	DD	00H
	DD	0ffffffffH
	DD	00H
	DD	040H
	DD	FLAT:??_R3?$basic_ostream@DU?$char_traits@D@std@@@std@@8
rdata$r	ENDS
;	COMDAT ??_R1A@?0A@EA@?$basic_ofstream@DU?$char_traits@D@std@@@std@@8
rdata$r	SEGMENT
??_R1A@?0A@EA@?$basic_ofstream@DU?$char_traits@D@std@@@std@@8 DD FLAT:??_R0?AV?$basic_ofstream@DU?$char_traits@D@std@@@std@@@8 ; std::basic_ofstream<char,std::char_traits<char> >::`RTTI Base Class Descriptor at (0,-1,0,64)'
	DD	04H
	DD	00H
	DD	0ffffffffH
	DD	00H
	DD	040H
	DD	FLAT:??_R3?$basic_ofstream@DU?$char_traits@D@std@@@std@@8
rdata$r	ENDS
;	COMDAT ??_R2?$basic_ofstream@DU?$char_traits@D@std@@@std@@8
rdata$r	SEGMENT
??_R2?$basic_ofstream@DU?$char_traits@D@std@@@std@@8 DD FLAT:??_R1A@?0A@EA@?$basic_ofstream@DU?$char_traits@D@std@@@std@@8 ; std::basic_ofstream<char,std::char_traits<char> >::`RTTI Base Class Array'
	DD	FLAT:??_R1A@?0A@EA@?$basic_ostream@DU?$char_traits@D@std@@@std@@8
	DD	FLAT:??_R1A@A@3FA@?$basic_ios@DU?$char_traits@D@std@@@std@@8
	DD	FLAT:??_R1A@A@3EA@ios_base@std@@8
	DD	FLAT:??_R17A@3EA@?$_Iosb@H@std@@8
rdata$r	ENDS
;	COMDAT ??_R3?$basic_ofstream@DU?$char_traits@D@std@@@std@@8
rdata$r	SEGMENT
??_R3?$basic_ofstream@DU?$char_traits@D@std@@@std@@8 DD 00H ; std::basic_ofstream<char,std::char_traits<char> >::`RTTI Class Hierarchy Descriptor'
	DD	00H
	DD	05H
	DD	FLAT:??_R2?$basic_ofstream@DU?$char_traits@D@std@@@std@@8
rdata$r	ENDS
;	COMDAT ??_R0?AV?$basic_ofstream@DU?$char_traits@D@std@@@std@@@8
_DATA	SEGMENT
??_R0?AV?$basic_ofstream@DU?$char_traits@D@std@@@std@@@8 DD FLAT:??_7type_info@@6B@ ; std::basic_ofstream<char,std::char_traits<char> > `RTTI Type Descriptor'
	DD	00H
	DB	'.?AV?$basic_ofstream@DU?$char_traits@D@std@@@std@@', 00H
_DATA	ENDS
;	COMDAT ??_R4?$basic_ofstream@DU?$char_traits@D@std@@@std@@6B@
rdata$r	SEGMENT
??_R4?$basic_ofstream@DU?$char_traits@D@std@@@std@@6B@ DD 00H ; std::basic_ofstream<char,std::char_traits<char> >::`RTTI Complete Object Locator'
	DD	060H
	DD	00H
	DD	FLAT:??_R0?AV?$basic_ofstream@DU?$char_traits@D@std@@@std@@@8
	DD	FLAT:??_R3?$basic_ofstream@DU?$char_traits@D@std@@@std@@8
rdata$r	ENDS
;	COMDAT ??_7?$basic_ofstream@DU?$char_traits@D@std@@@std@@6B@
CONST	SEGMENT
??_7?$basic_ofstream@DU?$char_traits@D@std@@@std@@6B@ DD FLAT:??_R4?$basic_ofstream@DU?$char_traits@D@std@@@std@@6B@ ; std::basic_ofstream<char,std::char_traits<char> >::`vftable'
	DD	FLAT:??_E?$basic_ofstream@DU?$char_traits@D@std@@@std@@UAEPAXI@Z
CONST	ENDS
;	COMDAT ??_8?$basic_ofstream@DU?$char_traits@D@std@@@std@@7B@
CONST	SEGMENT
??_8?$basic_ofstream@DU?$char_traits@D@std@@@std@@7B@ DD 00H ; std::basic_ofstream<char,std::char_traits<char> >::`vbtable'
	DD	060H
CONST	ENDS
;	COMDAT xdata$x
xdata$x	SEGMENT
__unwindtable$??0?$basic_ofstream@DU?$char_traits@D@std@@@std@@QAE@PBDHH@Z DD 0ffffffffH
	DD	FLAT:__unwindfunclet$??0?$basic_ofstream@DU?$char_traits@D@std@@@std@@QAE@PBDHH@Z$0
	DD	00H
	DD	FLAT:__unwindfunclet$??0?$basic_ofstream@DU?$char_traits@D@std@@@std@@QAE@PBDHH@Z$1
	DD	01H
	DD	FLAT:__unwindfunclet$??0?$basic_ofstream@DU?$char_traits@D@std@@@std@@QAE@PBDHH@Z$2
__ehfuncinfo$??0?$basic_ofstream@DU?$char_traits@D@std@@@std@@QAE@PBDHH@Z DD 019930522H
	DD	03H
	DD	FLAT:__unwindtable$??0?$basic_ofstream@DU?$char_traits@D@std@@@std@@QAE@PBDHH@Z
	DD	2 DUP(00H)
	DD	2 DUP(00H)
	DD	00H
	DD	01H
; Function compile flags: /Odtp /RTCsu /ZI
xdata$x	ENDS
;	COMDAT ??0?$basic_ofstream@DU?$char_traits@D@std@@@std@@QAE@PBDHH@Z
_TEXT	SEGMENT
$T173771 = -224						; size = 4
_this$ = -20						; size = 4
__$EHRec$ = -12						; size = 12
__Filename$ = 8						; size = 4
__Mode$ = 12						; size = 4
__Prot$ = 16						; size = 4
_$initVBases$ = 20					; size = 4
??0?$basic_ofstream@DU?$char_traits@D@std@@@std@@QAE@PBDHH@Z PROC ; std::basic_ofstream<char,std::char_traits<char> >::basic_ofstream<char,std::char_traits<char> >, COMDAT
; _this$ = ecx

; 940  : 		{	// construct with named file and specified mode

  00000	55		 push	 ebp
  00001	8b ec		 mov	 ebp, esp
  00003	6a ff		 push	 -1
  00005	68 00 00 00 00	 push	 __ehhandler$??0?$basic_ofstream@DU?$char_traits@D@std@@@std@@QAE@PBDHH@Z
  0000a	64 a1 00 00 00
	00		 mov	 eax, DWORD PTR fs:0
  00010	50		 push	 eax
  00011	81 ec d8 00 00
	00		 sub	 esp, 216		; 000000d8H
  00017	53		 push	 ebx
  00018	56		 push	 esi
  00019	57		 push	 edi
  0001a	51		 push	 ecx
  0001b	8d bd 1c ff ff
	ff		 lea	 edi, DWORD PTR [ebp-228]
  00021	b9 36 00 00 00	 mov	 ecx, 54			; 00000036H
  00026	b8 cc cc cc cc	 mov	 eax, -858993460		; ccccccccH
  0002b	f3 ab		 rep stosd
  0002d	59		 pop	 ecx
  0002e	a1 00 00 00 00	 mov	 eax, DWORD PTR ___security_cookie
  00033	33 c5		 xor	 eax, ebp
  00035	50		 push	 eax
  00036	8d 45 f4	 lea	 eax, DWORD PTR __$EHRec$[ebp]
  00039	64 a3 00 00 00
	00		 mov	 DWORD PTR fs:0, eax
  0003f	89 4d ec	 mov	 DWORD PTR _this$[ebp], ecx
  00042	c7 85 20 ff ff
	ff 00 00 00 00	 mov	 DWORD PTR $T173771[ebp], 0
  0004c	83 7d 14 00	 cmp	 DWORD PTR _$initVBases$[ebp], 0
  00050	74 34		 je	 SHORT $LN2@basic_ofst
  00052	8b 45 ec	 mov	 eax, DWORD PTR _this$[ebp]
  00055	c7 00 00 00 00
	00		 mov	 DWORD PTR [eax], OFFSET ??_8?$basic_ofstream@DU?$char_traits@D@std@@@std@@7B@
  0005b	8b 4d ec	 mov	 ecx, DWORD PTR _this$[ebp]
  0005e	83 c1 60	 add	 ecx, 96			; 00000060H
  00061	8b f4		 mov	 esi, esp
  00063	ff 15 00 00 00
	00		 call	 DWORD PTR __imp_??0?$basic_ios@DU?$char_traits@D@std@@@std@@IAE@XZ
  00069	3b f4		 cmp	 esi, esp
  0006b	e8 00 00 00 00	 call	 __RTC_CheckEsp
  00070	c7 45 fc 00 00
	00 00		 mov	 DWORD PTR __$EHRec$[ebp+8], 0
  00077	8b 85 20 ff ff
	ff		 mov	 eax, DWORD PTR $T173771[ebp]
  0007d	83 c8 01	 or	 eax, 1
  00080	89 85 20 ff ff
	ff		 mov	 DWORD PTR $T173771[ebp], eax
$LN2@basic_ofst:
  00086	8b f4		 mov	 esi, esp
  00088	6a 00		 push	 0
  0008a	6a 00		 push	 0
  0008c	8b 45 ec	 mov	 eax, DWORD PTR _this$[ebp]
  0008f	83 c0 04	 add	 eax, 4
  00092	50		 push	 eax
  00093	8b 4d ec	 mov	 ecx, DWORD PTR _this$[ebp]
  00096	ff 15 00 00 00
	00		 call	 DWORD PTR __imp_??0?$basic_ostream@DU?$char_traits@D@std@@@std@@QAE@PAV?$basic_streambuf@DU?$char_traits@D@std@@@1@_N@Z
  0009c	3b f4		 cmp	 esi, esp
  0009e	e8 00 00 00 00	 call	 __RTC_CheckEsp
  000a3	c7 45 fc 01 00
	00 00		 mov	 DWORD PTR __$EHRec$[ebp+8], 1
  000aa	8b 45 ec	 mov	 eax, DWORD PTR _this$[ebp]
  000ad	8b 08		 mov	 ecx, DWORD PTR [eax]
  000af	8b 51 04	 mov	 edx, DWORD PTR [ecx+4]
  000b2	8b 45 ec	 mov	 eax, DWORD PTR _this$[ebp]
  000b5	c7 04 10 00 00
	00 00		 mov	 DWORD PTR [eax+edx], OFFSET ??_7?$basic_ofstream@DU?$char_traits@D@std@@@std@@6B@
  000bc	6a 00		 push	 0
  000be	8b 4d ec	 mov	 ecx, DWORD PTR _this$[ebp]
  000c1	83 c1 04	 add	 ecx, 4
  000c4	e8 00 00 00 00	 call	 ??0?$basic_filebuf@DU?$char_traits@D@std@@@std@@QAE@PAU_iobuf@@@Z ; std::basic_filebuf<char,std::char_traits<char> >::basic_filebuf<char,std::char_traits<char> >
  000c9	c6 45 fc 02	 mov	 BYTE PTR __$EHRec$[ebp+8], 2

; 941  : 		if (_Filebuffer.open(_Filename, _Mode | ios_base::out, _Prot) == 0)

  000cd	8b 45 10	 mov	 eax, DWORD PTR __Prot$[ebp]
  000d0	50		 push	 eax
  000d1	8b 4d 0c	 mov	 ecx, DWORD PTR __Mode$[ebp]
  000d4	83 c9 02	 or	 ecx, 2
  000d7	51		 push	 ecx
  000d8	8b 55 08	 mov	 edx, DWORD PTR __Filename$[ebp]
  000db	52		 push	 edx
  000dc	8b 4d ec	 mov	 ecx, DWORD PTR _this$[ebp]
  000df	83 c1 04	 add	 ecx, 4
  000e2	e8 00 00 00 00	 call	 ?open@?$basic_filebuf@DU?$char_traits@D@std@@@std@@QAEPAV12@PBDHH@Z ; std::basic_filebuf<char,std::char_traits<char> >::open
  000e7	85 c0		 test	 eax, eax
  000e9	75 20		 jne	 SHORT $LN3@basic_ofst

; 942  : 			_Myios::setstate(ios_base::failbit);

  000eb	8b f4		 mov	 esi, esp
  000ed	6a 00		 push	 0
  000ef	6a 02		 push	 2
  000f1	8b 45 ec	 mov	 eax, DWORD PTR _this$[ebp]
  000f4	8b 08		 mov	 ecx, DWORD PTR [eax]
  000f6	8b 55 ec	 mov	 edx, DWORD PTR _this$[ebp]
  000f9	03 51 04	 add	 edx, DWORD PTR [ecx+4]
  000fc	8b ca		 mov	 ecx, edx
  000fe	ff 15 00 00 00
	00		 call	 DWORD PTR __imp_?setstate@?$basic_ios@DU?$char_traits@D@std@@@std@@QAEXH_N@Z
  00104	3b f4		 cmp	 esi, esp
  00106	e8 00 00 00 00	 call	 __RTC_CheckEsp
$LN3@basic_ofst:

; 943  : 		}

  0010b	c7 45 fc ff ff
	ff ff		 mov	 DWORD PTR __$EHRec$[ebp+8], -1
  00112	8b 45 ec	 mov	 eax, DWORD PTR _this$[ebp]
  00115	8b 4d f4	 mov	 ecx, DWORD PTR __$EHRec$[ebp]
  00118	64 89 0d 00 00
	00 00		 mov	 DWORD PTR fs:0, ecx
  0011f	59		 pop	 ecx
  00120	5f		 pop	 edi
  00121	5e		 pop	 esi
  00122	5b		 pop	 ebx
  00123	81 c4 e4 00 00
	00		 add	 esp, 228		; 000000e4H
  00129	3b ec		 cmp	 ebp, esp
  0012b	e8 00 00 00 00	 call	 __RTC_CheckEsp
  00130	8b e5		 mov	 esp, ebp
  00132	5d		 pop	 ebp
  00133	c2 10 00	 ret	 16			; 00000010H
_TEXT	ENDS
;	COMDAT text$x
text$x	SEGMENT
__unwindfunclet$??0?$basic_ofstream@DU?$char_traits@D@std@@@std@@QAE@PBDHH@Z$0:
  00000	8b 85 20 ff ff
	ff		 mov	 eax, DWORD PTR $T173771[ebp]
  00006	83 e0 01	 and	 eax, 1
  00009	0f 84 1c 00 00
	00		 je	 $LN6@basic_ofst
  0000f	83 a5 20 ff ff
	ff fe		 and	 DWORD PTR $T173771[ebp], -2 ; fffffffeH
  00016	8b 4d ec	 mov	 ecx, DWORD PTR _this$[ebp]
  00019	83 c1 60	 add	 ecx, 96			; 00000060H
  0001c	8b f4		 mov	 esi, esp
  0001e	ff 15 00 00 00
	00		 call	 DWORD PTR __imp_??1?$basic_ios@DU?$char_traits@D@std@@@std@@UAE@XZ
  00024	3b f4		 cmp	 esi, esp
  00026	e9 00 00 00 00	 jmp	 __RTC_CheckEsp
$LN6@basic_ofst:
  0002b	c3		 ret	 0
__unwindfunclet$??0?$basic_ofstream@DU?$char_traits@D@std@@@std@@QAE@PBDHH@Z$1:
  0002c	8b 4d ec	 mov	 ecx, DWORD PTR _this$[ebp]
  0002f	83 c1 08	 add	 ecx, 8
  00032	8b f4		 mov	 esi, esp
  00034	ff 15 00 00 00
	00		 call	 DWORD PTR __imp_??1?$basic_ostream@DU?$char_traits@D@std@@@std@@UAE@XZ
  0003a	3b f4		 cmp	 esi, esp
  0003c	e9 00 00 00 00	 jmp	 __RTC_CheckEsp
__unwindfunclet$??0?$basic_ofstream@DU?$char_traits@D@std@@@std@@QAE@PBDHH@Z$2:
  00041	8b 4d ec	 mov	 ecx, DWORD PTR _this$[ebp]
  00044	83 c1 04	 add	 ecx, 4
  00047	e9 00 00 00 00	 jmp	 ??1?$basic_filebuf@DU?$char_traits@D@std@@@std@@UAE@XZ ; std::basic_filebuf<char,std::char_traits<char> >::~basic_filebuf<char,std::char_traits<char> >
__ehhandler$??0?$basic_ofstream@DU?$char_traits@D@std@@@std@@QAE@PBDHH@Z:
  0004c	8b 54 24 08	 mov	 edx, DWORD PTR [esp+8]
  00050	8d 42 0c	 lea	 eax, DWORD PTR [edx+12]
  00053	8b 8a 18 ff ff
	ff		 mov	 ecx, DWORD PTR [edx-232]
  00059	33 c8		 xor	 ecx, eax
  0005b	e8 00 00 00 00	 call	 @__security_check_cookie@4
  00060	b8 00 00 00 00	 mov	 eax, OFFSET __ehfuncinfo$??0?$basic_ofstream@DU?$char_traits@D@std@@@std@@QAE@PBDHH@Z
  00065	e9 00 00 00 00	 jmp	 ___CxxFrameHandler3
text$x	ENDS
??0?$basic_ofstream@DU?$char_traits@D@std@@@std@@QAE@PBDHH@Z ENDP ; std::basic_ofstream<char,std::char_traits<char> >::basic_ofstream<char,std::char_traits<char> >
;	COMDAT xdata$x
xdata$x	SEGMENT
__unwindtable$??1?$basic_ofstream@DU?$char_traits@D@std@@@std@@UAE@XZ DD 0ffffffffH
	DD	FLAT:__unwindfunclet$??1?$basic_ofstream@DU?$char_traits@D@std@@@std@@UAE@XZ$0
__ehfuncinfo$??1?$basic_ofstream@DU?$char_traits@D@std@@@std@@UAE@XZ DD 019930522H
	DD	01H
	DD	FLAT:__unwindtable$??1?$basic_ofstream@DU?$char_traits@D@std@@@std@@UAE@XZ
	DD	2 DUP(00H)
	DD	2 DUP(00H)
	DD	00H
	DD	01H
; Function compile flags: /Odtp /RTCsu /ZI
xdata$x	ENDS
;	COMDAT ??1?$basic_ofstream@DU?$char_traits@D@std@@@std@@UAE@XZ
_TEXT	SEGMENT
_this$ = -20						; size = 4
__$EHRec$ = -12						; size = 12
??1?$basic_ofstream@DU?$char_traits@D@std@@@std@@UAE@XZ PROC ; std::basic_ofstream<char,std::char_traits<char> >::~basic_ofstream<char,std::char_traits<char> >, COMDAT
; _this$ = ecx

; 1071 : 		{	// destroy the object

  00000	55		 push	 ebp
  00001	8b ec		 mov	 ebp, esp
  00003	6a ff		 push	 -1
  00005	68 00 00 00 00	 push	 __ehhandler$??1?$basic_ofstream@DU?$char_traits@D@std@@@std@@UAE@XZ
  0000a	64 a1 00 00 00
	00		 mov	 eax, DWORD PTR fs:0
  00010	50		 push	 eax
  00011	81 ec cc 00 00
	00		 sub	 esp, 204		; 000000ccH
  00017	53		 push	 ebx
  00018	56		 push	 esi
  00019	57		 push	 edi
  0001a	51		 push	 ecx
  0001b	8d bd 28 ff ff
	ff		 lea	 edi, DWORD PTR [ebp-216]
  00021	b9 33 00 00 00	 mov	 ecx, 51			; 00000033H
  00026	b8 cc cc cc cc	 mov	 eax, -858993460		; ccccccccH
  0002b	f3 ab		 rep stosd
  0002d	59		 pop	 ecx
  0002e	a1 00 00 00 00	 mov	 eax, DWORD PTR ___security_cookie
  00033	33 c5		 xor	 eax, ebp
  00035	50		 push	 eax
  00036	8d 45 f4	 lea	 eax, DWORD PTR __$EHRec$[ebp]
  00039	64 a3 00 00 00
	00		 mov	 DWORD PTR fs:0, eax
  0003f	89 4d ec	 mov	 DWORD PTR _this$[ebp], ecx
  00042	8b 45 ec	 mov	 eax, DWORD PTR _this$[ebp]
  00045	8b 48 a0	 mov	 ecx, DWORD PTR [eax-96]
  00048	8b 51 04	 mov	 edx, DWORD PTR [ecx+4]
  0004b	8b 45 ec	 mov	 eax, DWORD PTR _this$[ebp]
  0004e	c7 44 10 a0 00
	00 00 00	 mov	 DWORD PTR [eax+edx-96], OFFSET ??_7?$basic_ofstream@DU?$char_traits@D@std@@@std@@6B@
  00056	c7 45 fc 00 00
	00 00		 mov	 DWORD PTR __$EHRec$[ebp+8], 0

; 1072 : 		}

  0005d	8b 4d ec	 mov	 ecx, DWORD PTR _this$[ebp]
  00060	83 e9 5c	 sub	 ecx, 92			; 0000005cH
  00063	e8 00 00 00 00	 call	 ??1?$basic_filebuf@DU?$char_traits@D@std@@@std@@UAE@XZ ; std::basic_filebuf<char,std::char_traits<char> >::~basic_filebuf<char,std::char_traits<char> >
  00068	c7 45 fc ff ff
	ff ff		 mov	 DWORD PTR __$EHRec$[ebp+8], -1
  0006f	8b 4d ec	 mov	 ecx, DWORD PTR _this$[ebp]
  00072	83 e9 58	 sub	 ecx, 88			; 00000058H
  00075	8b f4		 mov	 esi, esp
  00077	ff 15 00 00 00
	00		 call	 DWORD PTR __imp_??1?$basic_ostream@DU?$char_traits@D@std@@@std@@UAE@XZ
  0007d	3b f4		 cmp	 esi, esp
  0007f	e8 00 00 00 00	 call	 __RTC_CheckEsp
  00084	8b 4d f4	 mov	 ecx, DWORD PTR __$EHRec$[ebp]
  00087	64 89 0d 00 00
	00 00		 mov	 DWORD PTR fs:0, ecx
  0008e	59		 pop	 ecx
  0008f	5f		 pop	 edi
  00090	5e		 pop	 esi
  00091	5b		 pop	 ebx
  00092	81 c4 d8 00 00
	00		 add	 esp, 216		; 000000d8H
  00098	3b ec		 cmp	 ebp, esp
  0009a	e8 00 00 00 00	 call	 __RTC_CheckEsp
  0009f	8b e5		 mov	 esp, ebp
  000a1	5d		 pop	 ebp
  000a2	c3		 ret	 0
_TEXT	ENDS
;	COMDAT text$x
text$x	SEGMENT
__unwindfunclet$??1?$basic_ofstream@DU?$char_traits@D@std@@@std@@UAE@XZ$0:
  00000	8b 4d ec	 mov	 ecx, DWORD PTR _this$[ebp]
  00003	83 e9 58	 sub	 ecx, 88			; 00000058H
  00006	8b f4		 mov	 esi, esp
  00008	ff 15 00 00 00
	00		 call	 DWORD PTR __imp_??1?$basic_ostream@DU?$char_traits@D@std@@@std@@UAE@XZ
  0000e	3b f4		 cmp	 esi, esp
  00010	e9 00 00 00 00	 jmp	 __RTC_CheckEsp
__ehhandler$??1?$basic_ofstream@DU?$char_traits@D@std@@@std@@UAE@XZ:
  00015	8b 54 24 08	 mov	 edx, DWORD PTR [esp+8]
  00019	8d 42 0c	 lea	 eax, DWORD PTR [edx+12]
  0001c	8b 8a 24 ff ff
	ff		 mov	 ecx, DWORD PTR [edx-220]
  00022	33 c8		 xor	 ecx, eax
  00024	e8 00 00 00 00	 call	 @__security_check_cookie@4
  00029	b8 00 00 00 00	 mov	 eax, OFFSET __ehfuncinfo$??1?$basic_ofstream@DU?$char_traits@D@std@@@std@@UAE@XZ
  0002e	e9 00 00 00 00	 jmp	 ___CxxFrameHandler3
text$x	ENDS
??1?$basic_ofstream@DU?$char_traits@D@std@@@std@@UAE@XZ ENDP ; std::basic_ofstream<char,std::char_traits<char> >::~basic_ofstream<char,std::char_traits<char> >
PUBLIC	?close@?$basic_filebuf@DU?$char_traits@D@std@@@std@@QAEPAV12@XZ ; std::basic_filebuf<char,std::char_traits<char> >::close
; Function compile flags: /Odtp /RTCsu /ZI
;	COMDAT ?close@?$basic_ofstream@DU?$char_traits@D@std@@@std@@QAEXXZ
_TEXT	SEGMENT
_this$ = -8						; size = 4
?close@?$basic_ofstream@DU?$char_traits@D@std@@@std@@QAEXXZ PROC ; std::basic_ofstream<char,std::char_traits<char> >::close, COMDAT
; _this$ = ecx

; 1109 : 		{	// close the C stream

  00000	55		 push	 ebp
  00001	8b ec		 mov	 ebp, esp
  00003	81 ec cc 00 00
	00		 sub	 esp, 204		; 000000ccH
  00009	53		 push	 ebx
  0000a	56		 push	 esi
  0000b	57		 push	 edi
  0000c	51		 push	 ecx
  0000d	8d bd 34 ff ff
	ff		 lea	 edi, DWORD PTR [ebp-204]
  00013	b9 33 00 00 00	 mov	 ecx, 51			; 00000033H
  00018	b8 cc cc cc cc	 mov	 eax, -858993460		; ccccccccH
  0001d	f3 ab		 rep stosd
  0001f	59		 pop	 ecx
  00020	89 4d f8	 mov	 DWORD PTR _this$[ebp], ecx

; 1110 : 		if (_Filebuffer.close() == 0)

  00023	8b 4d f8	 mov	 ecx, DWORD PTR _this$[ebp]
  00026	83 c1 04	 add	 ecx, 4
  00029	e8 00 00 00 00	 call	 ?close@?$basic_filebuf@DU?$char_traits@D@std@@@std@@QAEPAV12@XZ ; std::basic_filebuf<char,std::char_traits<char> >::close
  0002e	85 c0		 test	 eax, eax
  00030	75 20		 jne	 SHORT $LN2@close

; 1111 : 			_Myios::setstate(ios_base::failbit);

  00032	8b f4		 mov	 esi, esp
  00034	6a 00		 push	 0
  00036	6a 02		 push	 2
  00038	8b 45 f8	 mov	 eax, DWORD PTR _this$[ebp]
  0003b	8b 08		 mov	 ecx, DWORD PTR [eax]
  0003d	8b 55 f8	 mov	 edx, DWORD PTR _this$[ebp]
  00040	03 51 04	 add	 edx, DWORD PTR [ecx+4]
  00043	8b ca		 mov	 ecx, edx
  00045	ff 15 00 00 00
	00		 call	 DWORD PTR __imp_?setstate@?$basic_ios@DU?$char_traits@D@std@@@std@@QAEXH_N@Z
  0004b	3b f4		 cmp	 esi, esp
  0004d	e8 00 00 00 00	 call	 __RTC_CheckEsp
$LN2@close:

; 1112 : 		}

  00052	5f		 pop	 edi
  00053	5e		 pop	 esi
  00054	5b		 pop	 ebx
  00055	81 c4 cc 00 00
	00		 add	 esp, 204		; 000000ccH
  0005b	3b ec		 cmp	 ebp, esp
  0005d	e8 00 00 00 00	 call	 __RTC_CheckEsp
  00062	8b e5		 mov	 esp, ebp
  00064	5d		 pop	 ebp
  00065	c3		 ret	 0
?close@?$basic_ofstream@DU?$char_traits@D@std@@@std@@QAEXXZ ENDP ; std::basic_ofstream<char,std::char_traits<char> >::close
_TEXT	ENDS
PUBLIC	?_Reset_back@?$basic_filebuf@DU?$char_traits@D@std@@@std@@AAEXXZ ; std::basic_filebuf<char,std::char_traits<char> >::_Reset_back
PUBLIC	??_7?$basic_filebuf@DU?$char_traits@D@std@@@std@@6B@ ; std::basic_filebuf<char,std::char_traits<char> >::`vftable'
PUBLIC	??_R4?$basic_filebuf@DU?$char_traits@D@std@@@std@@6B@ ; std::basic_filebuf<char,std::char_traits<char> >::`RTTI Complete Object Locator'
PUBLIC	??_R0?AV?$basic_filebuf@DU?$char_traits@D@std@@@std@@@8 ; std::basic_filebuf<char,std::char_traits<char> > `RTTI Type Descriptor'
PUBLIC	??_R3?$basic_filebuf@DU?$char_traits@D@std@@@std@@8 ; std::basic_filebuf<char,std::char_traits<char> >::`RTTI Class Hierarchy Descriptor'
PUBLIC	??_R2?$basic_filebuf@DU?$char_traits@D@std@@@std@@8 ; std::basic_filebuf<char,std::char_traits<char> >::`RTTI Base Class Array'
PUBLIC	??_R1A@?0A@EA@?$basic_filebuf@DU?$char_traits@D@std@@@std@@8 ; std::basic_filebuf<char,std::char_traits<char> >::`RTTI Base Class Descriptor at (0,-1,0,64)'
PUBLIC	??_R1A@?0A@EA@?$basic_streambuf@DU?$char_traits@D@std@@@std@@8 ; std::basic_streambuf<char,std::char_traits<char> >::`RTTI Base Class Descriptor at (0,-1,0,64)'
PUBLIC	??_R0?AV?$basic_streambuf@DU?$char_traits@D@std@@@std@@@8 ; std::basic_streambuf<char,std::char_traits<char> > `RTTI Type Descriptor'
PUBLIC	??_R3?$basic_streambuf@DU?$char_traits@D@std@@@std@@8 ; std::basic_streambuf<char,std::char_traits<char> >::`RTTI Class Hierarchy Descriptor'
PUBLIC	??_R2?$basic_streambuf@DU?$char_traits@D@std@@@std@@8 ; std::basic_streambuf<char,std::char_traits<char> >::`RTTI Base Class Array'
PUBLIC	?_Lock@?$basic_filebuf@DU?$char_traits@D@std@@@std@@UAEXXZ ; std::basic_filebuf<char,std::char_traits<char> >::_Lock
PUBLIC	?_Unlock@?$basic_filebuf@DU?$char_traits@D@std@@@std@@UAEXXZ ; std::basic_filebuf<char,std::char_traits<char> >::_Unlock
PUBLIC	?overflow@?$basic_filebuf@DU?$char_traits@D@std@@@std@@MAEHH@Z ; std::basic_filebuf<char,std::char_traits<char> >::overflow
PUBLIC	?pbackfail@?$basic_filebuf@DU?$char_traits@D@std@@@std@@MAEHH@Z ; std::basic_filebuf<char,std::char_traits<char> >::pbackfail
PUBLIC	?underflow@?$basic_filebuf@DU?$char_traits@D@std@@@std@@MAEHXZ ; std::basic_filebuf<char,std::char_traits<char> >::underflow
PUBLIC	?uflow@?$basic_filebuf@DU?$char_traits@D@std@@@std@@MAEHXZ ; std::basic_filebuf<char,std::char_traits<char> >::uflow
PUBLIC	?seekoff@?$basic_filebuf@DU?$char_traits@D@std@@@std@@MAE?AV?$fpos@H@2@_JHH@Z ; std::basic_filebuf<char,std::char_traits<char> >::seekoff
PUBLIC	?seekpos@?$basic_filebuf@DU?$char_traits@D@std@@@std@@MAE?AV?$fpos@H@2@V32@H@Z ; std::basic_filebuf<char,std::char_traits<char> >::seekpos
PUBLIC	?setbuf@?$basic_filebuf@DU?$char_traits@D@std@@@std@@MAEPAV?$basic_streambuf@DU?$char_traits@D@std@@@2@PAD_J@Z ; std::basic_filebuf<char,std::char_traits<char> >::setbuf
PUBLIC	?sync@?$basic_filebuf@DU?$char_traits@D@std@@@std@@MAEHXZ ; std::basic_filebuf<char,std::char_traits<char> >::sync
PUBLIC	?imbue@?$basic_filebuf@DU?$char_traits@D@std@@@std@@MAEXABVlocale@2@@Z ; std::basic_filebuf<char,std::char_traits<char> >::imbue
EXTRN	__imp_??1?$basic_streambuf@DU?$char_traits@D@std@@@std@@UAE@XZ:PROC
EXTRN	??_E?$basic_filebuf@DU?$char_traits@D@std@@@std@@UAEPAXI@Z:PROC ; std::basic_filebuf<char,std::char_traits<char> >::`vector deleting destructor'
EXTRN	?showmanyc@?$basic_streambuf@DU?$char_traits@D@std@@@std@@MAE_JXZ:PROC ; std::basic_streambuf<char,std::char_traits<char> >::showmanyc
EXTRN	?xsgetn@?$basic_streambuf@DU?$char_traits@D@std@@@std@@MAE_JPAD_J@Z:PROC ; std::basic_streambuf<char,std::char_traits<char> >::xsgetn
EXTRN	?xsputn@?$basic_streambuf@DU?$char_traits@D@std@@@std@@MAE_JPBD_J@Z:PROC ; std::basic_streambuf<char,std::char_traits<char> >::xsputn
;	COMDAT ??_R2?$basic_streambuf@DU?$char_traits@D@std@@@std@@8
rdata$r	SEGMENT
??_R2?$basic_streambuf@DU?$char_traits@D@std@@@std@@8 DD FLAT:??_R1A@?0A@EA@?$basic_streambuf@DU?$char_traits@D@std@@@std@@8 ; std::basic_streambuf<char,std::char_traits<char> >::`RTTI Base Class Array'
rdata$r	ENDS
;	COMDAT ??_R3?$basic_streambuf@DU?$char_traits@D@std@@@std@@8
rdata$r	SEGMENT
??_R3?$basic_streambuf@DU?$char_traits@D@std@@@std@@8 DD 00H ; std::basic_streambuf<char,std::char_traits<char> >::`RTTI Class Hierarchy Descriptor'
	DD	00H
	DD	01H
	DD	FLAT:??_R2?$basic_streambuf@DU?$char_traits@D@std@@@std@@8
rdata$r	ENDS
;	COMDAT ??_R0?AV?$basic_streambuf@DU?$char_traits@D@std@@@std@@@8
_DATA	SEGMENT
??_R0?AV?$basic_streambuf@DU?$char_traits@D@std@@@std@@@8 DD FLAT:??_7type_info@@6B@ ; std::basic_streambuf<char,std::char_traits<char> > `RTTI Type Descriptor'
	DD	00H
	DB	'.?AV?$basic_streambuf@DU?$char_traits@D@std@@@std@@', 00H
_DATA	ENDS
;	COMDAT ??_R1A@?0A@EA@?$basic_streambuf@DU?$char_traits@D@std@@@std@@8
rdata$r	SEGMENT
??_R1A@?0A@EA@?$basic_streambuf@DU?$char_traits@D@std@@@std@@8 DD FLAT:??_R0?AV?$basic_streambuf@DU?$char_traits@D@std@@@std@@@8 ; std::basic_streambuf<char,std::char_traits<char> >::`RTTI Base Class Descriptor at (0,-1,0,64)'
	DD	00H
	DD	00H
	DD	0ffffffffH
	DD	00H
	DD	040H
	DD	FLAT:??_R3?$basic_streambuf@DU?$char_traits@D@std@@@std@@8
rdata$r	ENDS
;	COMDAT ??_R1A@?0A@EA@?$basic_filebuf@DU?$char_traits@D@std@@@std@@8
rdata$r	SEGMENT
??_R1A@?0A@EA@?$basic_filebuf@DU?$char_traits@D@std@@@std@@8 DD FLAT:??_R0?AV?$basic_filebuf@DU?$char_traits@D@std@@@std@@@8 ; std::basic_filebuf<char,std::char_traits<char> >::`RTTI Base Class Descriptor at (0,-1,0,64)'
	DD	01H
	DD	00H
	DD	0ffffffffH
	DD	00H
	DD	040H
	DD	FLAT:??_R3?$basic_filebuf@DU?$char_traits@D@std@@@std@@8
rdata$r	ENDS
;	COMDAT ??_R2?$basic_filebuf@DU?$char_traits@D@std@@@std@@8
rdata$r	SEGMENT
??_R2?$basic_filebuf@DU?$char_traits@D@std@@@std@@8 DD FLAT:??_R1A@?0A@EA@?$basic_filebuf@DU?$char_traits@D@std@@@std@@8 ; std::basic_filebuf<char,std::char_traits<char> >::`RTTI Base Class Array'
	DD	FLAT:??_R1A@?0A@EA@?$basic_streambuf@DU?$char_traits@D@std@@@std@@8
rdata$r	ENDS
;	COMDAT ??_R3?$basic_filebuf@DU?$char_traits@D@std@@@std@@8
rdata$r	SEGMENT
??_R3?$basic_filebuf@DU?$char_traits@D@std@@@std@@8 DD 00H ; std::basic_filebuf<char,std::char_traits<char> >::`RTTI Class Hierarchy Descriptor'
	DD	00H
	DD	02H
	DD	FLAT:??_R2?$basic_filebuf@DU?$char_traits@D@std@@@std@@8
rdata$r	ENDS
;	COMDAT ??_R0?AV?$basic_filebuf@DU?$char_traits@D@std@@@std@@@8
_DATA	SEGMENT
??_R0?AV?$basic_filebuf@DU?$char_traits@D@std@@@std@@@8 DD FLAT:??_7type_info@@6B@ ; std::basic_filebuf<char,std::char_traits<char> > `RTTI Type Descriptor'
	DD	00H
	DB	'.?AV?$basic_filebuf@DU?$char_traits@D@std@@@std@@', 00H
_DATA	ENDS
;	COMDAT ??_R4?$basic_filebuf@DU?$char_traits@D@std@@@std@@6B@
rdata$r	SEGMENT
??_R4?$basic_filebuf@DU?$char_traits@D@std@@@std@@6B@ DD 00H ; std::basic_filebuf<char,std::char_traits<char> >::`RTTI Complete Object Locator'
	DD	00H
	DD	00H
	DD	FLAT:??_R0?AV?$basic_filebuf@DU?$char_traits@D@std@@@std@@@8
	DD	FLAT:??_R3?$basic_filebuf@DU?$char_traits@D@std@@@std@@8
rdata$r	ENDS
;	COMDAT ??_7?$basic_filebuf@DU?$char_traits@D@std@@@std@@6B@
CONST	SEGMENT
??_7?$basic_filebuf@DU?$char_traits@D@std@@@std@@6B@ DD FLAT:??_R4?$basic_filebuf@DU?$char_traits@D@std@@@std@@6B@ ; std::basic_filebuf<char,std::char_traits<char> >::`vftable'
	DD	FLAT:??_E?$basic_filebuf@DU?$char_traits@D@std@@@std@@UAEPAXI@Z
	DD	FLAT:?_Lock@?$basic_filebuf@DU?$char_traits@D@std@@@std@@UAEXXZ
	DD	FLAT:?_Unlock@?$basic_filebuf@DU?$char_traits@D@std@@@std@@UAEXXZ
	DD	FLAT:?overflow@?$basic_filebuf@DU?$char_traits@D@std@@@std@@MAEHH@Z
	DD	FLAT:?pbackfail@?$basic_filebuf@DU?$char_traits@D@std@@@std@@MAEHH@Z
	DD	FLAT:?showmanyc@?$basic_streambuf@DU?$char_traits@D@std@@@std@@MAE_JXZ
	DD	FLAT:?underflow@?$basic_filebuf@DU?$char_traits@D@std@@@std@@MAEHXZ
	DD	FLAT:?uflow@?$basic_filebuf@DU?$char_traits@D@std@@@std@@MAEHXZ
	DD	FLAT:?xsgetn@?$basic_streambuf@DU?$char_traits@D@std@@@std@@MAE_JPAD_J@Z
	DD	FLAT:?xsputn@?$basic_streambuf@DU?$char_traits@D@std@@@std@@MAE_JPBD_J@Z
	DD	FLAT:?seekoff@?$basic_filebuf@DU?$char_traits@D@std@@@std@@MAE?AV?$fpos@H@2@_JHH@Z
	DD	FLAT:?seekpos@?$basic_filebuf@DU?$char_traits@D@std@@@std@@MAE?AV?$fpos@H@2@V32@H@Z
	DD	FLAT:?setbuf@?$basic_filebuf@DU?$char_traits@D@std@@@std@@MAEPAV?$basic_streambuf@DU?$char_traits@D@std@@@2@PAD_J@Z
	DD	FLAT:?sync@?$basic_filebuf@DU?$char_traits@D@std@@@std@@MAEHXZ
	DD	FLAT:?imbue@?$basic_filebuf@DU?$char_traits@D@std@@@std@@MAEXABVlocale@2@@Z
CONST	ENDS
;	COMDAT xdata$x
xdata$x	SEGMENT
__unwindtable$??1?$basic_filebuf@DU?$char_traits@D@std@@@std@@UAE@XZ DD 0ffffffffH
	DD	FLAT:__unwindfunclet$??1?$basic_filebuf@DU?$char_traits@D@std@@@std@@UAE@XZ$0
__ehfuncinfo$??1?$basic_filebuf@DU?$char_traits@D@std@@@std@@UAE@XZ DD 019930522H
	DD	01H
	DD	FLAT:__unwindtable$??1?$basic_filebuf@DU?$char_traits@D@std@@@std@@UAE@XZ
	DD	2 DUP(00H)
	DD	2 DUP(00H)
	DD	00H
	DD	01H
; Function compile flags: /Odtp /RTCsu /ZI
xdata$x	ENDS
;	COMDAT ??1?$basic_filebuf@DU?$char_traits@D@std@@@std@@UAE@XZ
_TEXT	SEGMENT
_this$ = -20						; size = 4
__$EHRec$ = -12						; size = 12
??1?$basic_filebuf@DU?$char_traits@D@std@@@std@@UAE@XZ PROC ; std::basic_filebuf<char,std::char_traits<char> >::~basic_filebuf<char,std::char_traits<char> >, COMDAT
; _this$ = ecx

; 143  : 		{	// destroy the object

  00000	55		 push	 ebp
  00001	8b ec		 mov	 ebp, esp
  00003	6a ff		 push	 -1
  00005	68 00 00 00 00	 push	 __ehhandler$??1?$basic_filebuf@DU?$char_traits@D@std@@@std@@UAE@XZ
  0000a	64 a1 00 00 00
	00		 mov	 eax, DWORD PTR fs:0
  00010	50		 push	 eax
  00011	81 ec cc 00 00
	00		 sub	 esp, 204		; 000000ccH
  00017	53		 push	 ebx
  00018	56		 push	 esi
  00019	57		 push	 edi
  0001a	51		 push	 ecx
  0001b	8d bd 28 ff ff
	ff		 lea	 edi, DWORD PTR [ebp-216]
  00021	b9 33 00 00 00	 mov	 ecx, 51			; 00000033H
  00026	b8 cc cc cc cc	 mov	 eax, -858993460		; ccccccccH
  0002b	f3 ab		 rep stosd
  0002d	59		 pop	 ecx
  0002e	a1 00 00 00 00	 mov	 eax, DWORD PTR ___security_cookie
  00033	33 c5		 xor	 eax, ebp
  00035	50		 push	 eax
  00036	8d 45 f4	 lea	 eax, DWORD PTR __$EHRec$[ebp]
  00039	64 a3 00 00 00
	00		 mov	 DWORD PTR fs:0, eax
  0003f	89 4d ec	 mov	 DWORD PTR _this$[ebp], ecx
  00042	8b 45 ec	 mov	 eax, DWORD PTR _this$[ebp]
  00045	c7 00 00 00 00
	00		 mov	 DWORD PTR [eax], OFFSET ??_7?$basic_filebuf@DU?$char_traits@D@std@@@std@@6B@
  0004b	c7 45 fc 00 00
	00 00		 mov	 DWORD PTR __$EHRec$[ebp+8], 0

; 144  : 		if (_Myfile != 0)

  00052	8b 45 ec	 mov	 eax, DWORD PTR _this$[ebp]
  00055	83 78 54 00	 cmp	 DWORD PTR [eax+84], 0
  00059	74 08		 je	 SHORT $LN2@basic_file

; 145  : 			_Reset_back();	// revert from _Mychar buffer

  0005b	8b 4d ec	 mov	 ecx, DWORD PTR _this$[ebp]
  0005e	e8 00 00 00 00	 call	 ?_Reset_back@?$basic_filebuf@DU?$char_traits@D@std@@@std@@AAEXXZ ; std::basic_filebuf<char,std::char_traits<char> >::_Reset_back
$LN2@basic_file:

; 146  : 		if (_Closef)

  00063	8b 45 ec	 mov	 eax, DWORD PTR _this$[ebp]
  00066	0f b6 48 50	 movzx	 ecx, BYTE PTR [eax+80]
  0006a	85 c9		 test	 ecx, ecx
  0006c	74 08		 je	 SHORT $LN3@basic_file

; 147  : 			close();

  0006e	8b 4d ec	 mov	 ecx, DWORD PTR _this$[ebp]
  00071	e8 00 00 00 00	 call	 ?close@?$basic_filebuf@DU?$char_traits@D@std@@@std@@QAEPAV12@XZ ; std::basic_filebuf<char,std::char_traits<char> >::close
$LN3@basic_file:

; 148  : 		}

  00076	c7 45 fc ff ff
	ff ff		 mov	 DWORD PTR __$EHRec$[ebp+8], -1
  0007d	8b f4		 mov	 esi, esp
  0007f	8b 4d ec	 mov	 ecx, DWORD PTR _this$[ebp]
  00082	ff 15 00 00 00
	00		 call	 DWORD PTR __imp_??1?$basic_streambuf@DU?$char_traits@D@std@@@std@@UAE@XZ
  00088	3b f4		 cmp	 esi, esp
  0008a	e8 00 00 00 00	 call	 __RTC_CheckEsp
  0008f	8b 4d f4	 mov	 ecx, DWORD PTR __$EHRec$[ebp]
  00092	64 89 0d 00 00
	00 00		 mov	 DWORD PTR fs:0, ecx
  00099	59		 pop	 ecx
  0009a	5f		 pop	 edi
  0009b	5e		 pop	 esi
  0009c	5b		 pop	 ebx
  0009d	81 c4 d8 00 00
	00		 add	 esp, 216		; 000000d8H
  000a3	3b ec		 cmp	 ebp, esp
  000a5	e8 00 00 00 00	 call	 __RTC_CheckEsp
  000aa	8b e5		 mov	 esp, ebp
  000ac	5d		 pop	 ebp
  000ad	c3		 ret	 0
_TEXT	ENDS
;	COMDAT text$x
text$x	SEGMENT
__unwindfunclet$??1?$basic_filebuf@DU?$char_traits@D@std@@@std@@UAE@XZ$0:
  00000	8b f4		 mov	 esi, esp
  00002	8b 4d ec	 mov	 ecx, DWORD PTR _this$[ebp]
  00005	ff 15 00 00 00
	00		 call	 DWORD PTR __imp_??1?$basic_streambuf@DU?$char_traits@D@std@@@std@@UAE@XZ
  0000b	3b f4		 cmp	 esi, esp
  0000d	e9 00 00 00 00	 jmp	 __RTC_CheckEsp
__ehhandler$??1?$basic_filebuf@DU?$char_traits@D@std@@@std@@UAE@XZ:
  00012	8b 54 24 08	 mov	 edx, DWORD PTR [esp+8]
  00016	8d 42 0c	 lea	 eax, DWORD PTR [edx+12]
  00019	8b 8a 24 ff ff
	ff		 mov	 ecx, DWORD PTR [edx-220]
  0001f	33 c8		 xor	 ecx, eax
  00021	e8 00 00 00 00	 call	 @__security_check_cookie@4
  00026	b8 00 00 00 00	 mov	 eax, OFFSET __ehfuncinfo$??1?$basic_filebuf@DU?$char_traits@D@std@@@std@@UAE@XZ
  0002b	e9 00 00 00 00	 jmp	 ___CxxFrameHandler3
text$x	ENDS
??1?$basic_filebuf@DU?$char_traits@D@std@@@std@@UAE@XZ ENDP ; std::basic_filebuf<char,std::char_traits<char> >::~basic_filebuf<char,std::char_traits<char> >
EXTRN	__imp___lock_file:PROC
; Function compile flags: /Odtp /RTCsu /ZI
;	COMDAT ?_Lock@?$basic_filebuf@DU?$char_traits@D@std@@@std@@UAEXXZ
_TEXT	SEGMENT
_this$ = -8						; size = 4
?_Lock@?$basic_filebuf@DU?$char_traits@D@std@@@std@@UAEXXZ PROC ; std::basic_filebuf<char,std::char_traits<char> >::_Lock, COMDAT
; _this$ = ecx

; 308  : 		{	// lock file instead of stream buffer

  00000	55		 push	 ebp
  00001	8b ec		 mov	 ebp, esp
  00003	81 ec cc 00 00
	00		 sub	 esp, 204		; 000000ccH
  00009	53		 push	 ebx
  0000a	56		 push	 esi
  0000b	57		 push	 edi
  0000c	51		 push	 ecx
  0000d	8d bd 34 ff ff
	ff		 lea	 edi, DWORD PTR [ebp-204]
  00013	b9 33 00 00 00	 mov	 ecx, 51			; 00000033H
  00018	b8 cc cc cc cc	 mov	 eax, -858993460		; ccccccccH
  0001d	f3 ab		 rep stosd
  0001f	59		 pop	 ecx
  00020	89 4d f8	 mov	 DWORD PTR _this$[ebp], ecx

; 309  : 		if (_Myfile)

  00023	8b 45 f8	 mov	 eax, DWORD PTR _this$[ebp]
  00026	83 78 54 00	 cmp	 DWORD PTR [eax+84], 0
  0002a	74 19		 je	 SHORT $LN2@Lock

; 310  : 			_CSTD _lock_file(_Myfile);

  0002c	8b f4		 mov	 esi, esp
  0002e	8b 45 f8	 mov	 eax, DWORD PTR _this$[ebp]
  00031	8b 48 54	 mov	 ecx, DWORD PTR [eax+84]
  00034	51		 push	 ecx
  00035	ff 15 00 00 00
	00		 call	 DWORD PTR __imp___lock_file
  0003b	83 c4 04	 add	 esp, 4
  0003e	3b f4		 cmp	 esi, esp
  00040	e8 00 00 00 00	 call	 __RTC_CheckEsp
$LN2@Lock:

; 311  : 		}

  00045	5f		 pop	 edi
  00046	5e		 pop	 esi
  00047	5b		 pop	 ebx
  00048	81 c4 cc 00 00
	00		 add	 esp, 204		; 000000ccH
  0004e	3b ec		 cmp	 ebp, esp
  00050	e8 00 00 00 00	 call	 __RTC_CheckEsp
  00055	8b e5		 mov	 esp, ebp
  00057	5d		 pop	 ebp
  00058	c3		 ret	 0
?_Lock@?$basic_filebuf@DU?$char_traits@D@std@@@std@@UAEXXZ ENDP ; std::basic_filebuf<char,std::char_traits<char> >::_Lock
_TEXT	ENDS
EXTRN	__imp___unlock_file:PROC
; Function compile flags: /Odtp /RTCsu /ZI
;	COMDAT ?_Unlock@?$basic_filebuf@DU?$char_traits@D@std@@@std@@UAEXXZ
_TEXT	SEGMENT
_this$ = -8						; size = 4
?_Unlock@?$basic_filebuf@DU?$char_traits@D@std@@@std@@UAEXXZ PROC ; std::basic_filebuf<char,std::char_traits<char> >::_Unlock, COMDAT
; _this$ = ecx

; 314  : 		{	// unlock file instead of stream buffer

  00000	55		 push	 ebp
  00001	8b ec		 mov	 ebp, esp
  00003	81 ec cc 00 00
	00		 sub	 esp, 204		; 000000ccH
  00009	53		 push	 ebx
  0000a	56		 push	 esi
  0000b	57		 push	 edi
  0000c	51		 push	 ecx
  0000d	8d bd 34 ff ff
	ff		 lea	 edi, DWORD PTR [ebp-204]
  00013	b9 33 00 00 00	 mov	 ecx, 51			; 00000033H
  00018	b8 cc cc cc cc	 mov	 eax, -858993460		; ccccccccH
  0001d	f3 ab		 rep stosd
  0001f	59		 pop	 ecx
  00020	89 4d f8	 mov	 DWORD PTR _this$[ebp], ecx

; 315  : 		if (_Myfile)

  00023	8b 45 f8	 mov	 eax, DWORD PTR _this$[ebp]
  00026	83 78 54 00	 cmp	 DWORD PTR [eax+84], 0
  0002a	74 19		 je	 SHORT $LN2@Unlock

; 316  : 			_CSTD _unlock_file(_Myfile);

  0002c	8b f4		 mov	 esi, esp
  0002e	8b 45 f8	 mov	 eax, DWORD PTR _this$[ebp]
  00031	8b 48 54	 mov	 ecx, DWORD PTR [eax+84]
  00034	51		 push	 ecx
  00035	ff 15 00 00 00
	00		 call	 DWORD PTR __imp___unlock_file
  0003b	83 c4 04	 add	 esp, 4
  0003e	3b f4		 cmp	 esi, esp
  00040	e8 00 00 00 00	 call	 __RTC_CheckEsp
$LN2@Unlock:

; 317  : 		}

  00045	5f		 pop	 edi
  00046	5e		 pop	 esi
  00047	5b		 pop	 ebx
  00048	81 c4 cc 00 00
	00		 add	 esp, 204		; 000000ccH
  0004e	3b ec		 cmp	 ebp, esp
  00050	e8 00 00 00 00	 call	 __RTC_CheckEsp
  00055	8b e5		 mov	 esp, ebp
  00057	5d		 pop	 ebp
  00058	c3		 ret	 0
?_Unlock@?$basic_filebuf@DU?$char_traits@D@std@@@std@@UAEXXZ ENDP ; std::basic_filebuf<char,std::char_traits<char> >::_Unlock
_TEXT	ENDS
PUBLIC	?append@?$basic_string@DU?$char_traits@D@std@@V?$allocator@D@2@@std@@QAEAAV12@ID@Z ; std::basic_string<char,std::char_traits<char>,std::allocator<char> >::append
PUBLIC	??1?$basic_string@DU?$char_traits@D@std@@V?$allocator@D@2@@std@@QAE@XZ ; std::basic_string<char,std::char_traits<char>,std::allocator<char> >::~basic_string<char,std::char_traits<char>,std::allocator<char> >
PUBLIC	??1?$_String_iterator@DU?$char_traits@D@std@@V?$allocator@D@2@@std@@QAE@XZ ; std::_String_iterator<char,std::char_traits<char>,std::allocator<char> >::~_String_iterator<char,std::char_traits<char>,std::allocator<char> >
PUBLIC	?size@?$basic_string@DU?$char_traits@D@std@@V?$allocator@D@2@@std@@QBEIXZ ; std::basic_string<char,std::char_traits<char>,std::allocator<char> >::size
PUBLIC	??D?$_String_iterator@DU?$char_traits@D@std@@V?$allocator@D@2@@std@@QBEAADXZ ; std::_String_iterator<char,std::char_traits<char>,std::allocator<char> >::operator*
PUBLIC	?begin@?$basic_string@DU?$char_traits@D@std@@V?$allocator@D@2@@std@@QAE?AV?$_String_iterator@DU?$char_traits@D@std@@V?$allocator@D@2@@2@XZ ; std::basic_string<char,std::char_traits<char>,std::allocator<char> >::begin
PUBLIC	??0?$basic_string@DU?$char_traits@D@std@@V?$allocator@D@2@@std@@QAE@ID@Z ; std::basic_string<char,std::char_traits<char>,std::allocator<char> >::basic_string<char,std::char_traits<char>,std::allocator<char> >
PUBLIC	??$_Fputc@D@std@@YA_NDPAU_iobuf@@@Z		; std::_Fputc<char>
PUBLIC	?to_char_type@?$char_traits@D@std@@SADABH@Z	; std::char_traits<char>::to_char_type
PUBLIC	?not_eof@?$char_traits@D@std@@SAHABH@Z		; std::char_traits<char>::not_eof
PUBLIC	?eq_int_type@?$char_traits@D@std@@SA_NABH0@Z	; std::char_traits<char>::eq_int_type
PUBLIC	?eof@?$char_traits@D@std@@SAHXZ			; std::char_traits<char>::eof
PUBLIC	__$ArrayPad$
EXTRN	__imp__fwrite:PROC
EXTRN	__imp_?out@?$codecvt@DDH@std@@QBEHAAHPBD1AAPBDPAD3AAPAD@Z:PROC
EXTRN	__imp_?_Pninc@?$basic_streambuf@DU?$char_traits@D@std@@@std@@IAEPADXZ:PROC
EXTRN	__imp_?epptr@?$basic_streambuf@DU?$char_traits@D@std@@@std@@IBEPADXZ:PROC
EXTRN	__imp_?pptr@?$basic_streambuf@DU?$char_traits@D@std@@@std@@IBEPADXZ:PROC
;	COMDAT xdata$x
xdata$x	SEGMENT
__ehfuncinfo$?overflow@?$basic_filebuf@DU?$char_traits@D@std@@@std@@MAEHH@Z DD 019930522H
	DD	05H
	DD	FLAT:__unwindtable$?overflow@?$basic_filebuf@DU?$char_traits@D@std@@@std@@MAEHH@Z
	DD	2 DUP(00H)
	DD	2 DUP(00H)
	DD	00H
	DD	01H
__unwindtable$?overflow@?$basic_filebuf@DU?$char_traits@D@std@@@std@@MAEHH@Z DD 0ffffffffH
	DD	FLAT:__unwindfunclet$?overflow@?$basic_filebuf@DU?$char_traits@D@std@@@std@@MAEHH@Z$0
	DD	00H
	DD	FLAT:__unwindfunclet$?overflow@?$basic_filebuf@DU?$char_traits@D@std@@@std@@MAEHH@Z$1
	DD	01H
	DD	FLAT:__unwindfunclet$?overflow@?$basic_filebuf@DU?$char_traits@D@std@@@std@@MAEHH@Z$2
	DD	00H
	DD	FLAT:__unwindfunclet$?overflow@?$basic_filebuf@DU?$char_traits@D@std@@@std@@MAEHH@Z$3
	DD	00H
	DD	FLAT:__unwindfunclet$?overflow@?$basic_filebuf@DU?$char_traits@D@std@@@std@@MAEHH@Z$4
; Function compile flags: /Odtp /RTCsu /ZI
xdata$x	ENDS
;	COMDAT ?overflow@?$basic_filebuf@DU?$char_traits@D@std@@@std@@MAEHH@Z
_TEXT	SEGMENT
tv184 = -528						; size = 4
tv239 = -524						; size = 4
tv254 = -520						; size = 4
tv208 = -520						; size = 4
tv246 = -516						; size = 4
tv241 = -516						; size = 4
tv237 = -516						; size = 4
tv256 = -512						; size = 4
tv255 = -512						; size = 4
tv230 = -512						; size = 4
tv151 = -512						; size = 4
tv147 = -512						; size = 4
$T173810 = -504						; size = 4
$T173813 = -492						; size = 4
$T173814 = -480						; size = 12
$T173815 = -460						; size = 12
$T173816 = -440						; size = 12
$T173817 = -417						; size = 1
$T173818 = -408						; size = 12
$T173821 = -388						; size = 4
$T173822 = -376						; size = 4
$T173823 = -364						; size = 4
$T173824 = -352						; size = 4
$T173827 = -340						; size = 4
$T173832 = -328						; size = 4
__Count$160926 = -124					; size = 4
__Str$160914 = -112					; size = 32
__Dest$160913 = -72					; size = 4
__Src$160912 = -60					; size = 4
__Ch$160911 = -45					; size = 1
__STRING_INC$160910 = -36				; size = 4
_this$ = -24						; size = 4
__$ArrayPad$ = -16					; size = 4
__$EHRec$ = -12						; size = 12
__Meta$ = 8						; size = 4
?overflow@?$basic_filebuf@DU?$char_traits@D@std@@@std@@MAEHH@Z PROC ; std::basic_filebuf<char,std::char_traits<char> >::overflow, COMDAT
; _this$ = ecx

; 322  : 		{	// put an element to stream

  00000	55		 push	 ebp
  00001	8b ec		 mov	 ebp, esp
  00003	6a ff		 push	 -1
  00005	68 00 00 00 00	 push	 __ehhandler$?overflow@?$basic_filebuf@DU?$char_traits@D@std@@@std@@MAEHH@Z
  0000a	64 a1 00 00 00
	00		 mov	 eax, DWORD PTR fs:0
  00010	50		 push	 eax
  00011	81 ec 04 02 00
	00		 sub	 esp, 516		; 00000204H
  00017	53		 push	 ebx
  00018	56		 push	 esi
  00019	57		 push	 edi
  0001a	51		 push	 ecx
  0001b	8d bd f0 fd ff
	ff		 lea	 edi, DWORD PTR [ebp-528]
  00021	b9 81 00 00 00	 mov	 ecx, 129		; 00000081H
  00026	b8 cc cc cc cc	 mov	 eax, -858993460		; ccccccccH
  0002b	f3 ab		 rep stosd
  0002d	59		 pop	 ecx
  0002e	a1 00 00 00 00	 mov	 eax, DWORD PTR ___security_cookie
  00033	33 c5		 xor	 eax, ebp
  00035	89 45 f0	 mov	 DWORD PTR __$ArrayPad$[ebp], eax
  00038	50		 push	 eax
  00039	8d 45 f4	 lea	 eax, DWORD PTR __$EHRec$[ebp]
  0003c	64 a3 00 00 00
	00		 mov	 DWORD PTR fs:0, eax
  00042	89 4d e8	 mov	 DWORD PTR _this$[ebp], ecx
  00045	c7 85 b8 fe ff
	ff 00 00 00 00	 mov	 DWORD PTR $T173832[ebp], 0

; 323  : 		if (_Traits::eq_int_type(_Traits::eof(), _Meta))

  0004f	e8 00 00 00 00	 call	 ?eof@?$char_traits@D@std@@SAHXZ ; std::char_traits<char>::eof
  00054	89 85 08 fe ff
	ff		 mov	 DWORD PTR $T173810[ebp], eax
  0005a	8d 45 08	 lea	 eax, DWORD PTR __Meta$[ebp]
  0005d	50		 push	 eax
  0005e	8d 8d 08 fe ff
	ff		 lea	 ecx, DWORD PTR $T173810[ebp]
  00064	51		 push	 ecx
  00065	e8 00 00 00 00	 call	 ?eq_int_type@?$char_traits@D@std@@SA_NABH0@Z ; std::char_traits<char>::eq_int_type
  0006a	83 c4 08	 add	 esp, 8
  0006d	0f b6 d0	 movzx	 edx, al
  00070	85 d2		 test	 edx, edx
  00072	74 13		 je	 SHORT $LN20@overflow

; 324  : 			return (_Traits::not_eof(_Meta));	// EOF, return success code

  00074	8d 45 08	 lea	 eax, DWORD PTR __Meta$[ebp]
  00077	50		 push	 eax
  00078	e8 00 00 00 00	 call	 ?not_eof@?$char_traits@D@std@@SAHABH@Z ; std::char_traits<char>::not_eof
  0007d	83 c4 04	 add	 esp, 4
  00080	e9 28 04 00 00	 jmp	 $LN21@overflow

; 325  : 		else if (_Mysb::pptr() != 0

  00085	eb 7f		 jmp	 SHORT $LN19@overflow
$LN20@overflow:

; 326  : 			&& _Mysb::pptr() < _Mysb::epptr())

  00087	8b f4		 mov	 esi, esp
  00089	8b 4d e8	 mov	 ecx, DWORD PTR _this$[ebp]
  0008c	ff 15 00 00 00
	00		 call	 DWORD PTR __imp_?pptr@?$basic_streambuf@DU?$char_traits@D@std@@@std@@IBEPADXZ
  00092	3b f4		 cmp	 esi, esp
  00094	e8 00 00 00 00	 call	 __RTC_CheckEsp
  00099	85 c0		 test	 eax, eax
  0009b	74 56		 je	 SHORT $LN18@overflow
  0009d	8b f4		 mov	 esi, esp
  0009f	8b 4d e8	 mov	 ecx, DWORD PTR _this$[ebp]
  000a2	ff 15 00 00 00
	00		 call	 DWORD PTR __imp_?pptr@?$basic_streambuf@DU?$char_traits@D@std@@@std@@IBEPADXZ
  000a8	3b f4		 cmp	 esi, esp
  000aa	e8 00 00 00 00	 call	 __RTC_CheckEsp
  000af	8b f0		 mov	 esi, eax
  000b1	8b fc		 mov	 edi, esp
  000b3	8b 4d e8	 mov	 ecx, DWORD PTR _this$[ebp]
  000b6	ff 15 00 00 00
	00		 call	 DWORD PTR __imp_?epptr@?$basic_streambuf@DU?$char_traits@D@std@@@std@@IBEPADXZ
  000bc	3b fc		 cmp	 edi, esp
  000be	e8 00 00 00 00	 call	 __RTC_CheckEsp
  000c3	3b f0		 cmp	 esi, eax
  000c5	73 2c		 jae	 SHORT $LN18@overflow

; 327  : 			{	// room in buffer, store it
; 328  : 			*_Mysb::_Pninc() = _Traits::to_char_type(_Meta);

  000c7	8d 45 08	 lea	 eax, DWORD PTR __Meta$[ebp]
  000ca	50		 push	 eax
  000cb	e8 00 00 00 00	 call	 ?to_char_type@?$char_traits@D@std@@SADABH@Z ; std::char_traits<char>::to_char_type
  000d0	83 c4 04	 add	 esp, 4
  000d3	8a d8		 mov	 bl, al
  000d5	8b f4		 mov	 esi, esp
  000d7	8b 4d e8	 mov	 ecx, DWORD PTR _this$[ebp]
  000da	ff 15 00 00 00
	00		 call	 DWORD PTR __imp_?_Pninc@?$basic_streambuf@DU?$char_traits@D@std@@@std@@IAEPADXZ
  000e0	3b f4		 cmp	 esi, esp
  000e2	e8 00 00 00 00	 call	 __RTC_CheckEsp
  000e7	88 18		 mov	 BYTE PTR [eax], bl

; 329  : 			return (_Meta);

  000e9	8b 45 08	 mov	 eax, DWORD PTR __Meta$[ebp]
  000ec	e9 bc 03 00 00	 jmp	 $LN21@overflow
  000f1	eb 13		 jmp	 SHORT $LN19@overflow
$LN18@overflow:

; 330  : 			}
; 331  : 		else if (_Myfile == 0)

  000f3	8b 45 e8	 mov	 eax, DWORD PTR _this$[ebp]
  000f6	83 78 54 00	 cmp	 DWORD PTR [eax+84], 0
  000fa	75 0a		 jne	 SHORT $LN19@overflow

; 332  : 			return (_Traits::eof());	// no open C stream, fail

  000fc	e8 00 00 00 00	 call	 ?eof@?$char_traits@D@std@@SAHXZ ; std::char_traits<char>::eof
  00101	e9 a7 03 00 00	 jmp	 $LN21@overflow
$LN19@overflow:

; 333  : 		_Reset_back();	// revert from _Mychar buffer

  00106	8b 4d e8	 mov	 ecx, DWORD PTR _this$[ebp]
  00109	e8 00 00 00 00	 call	 ?_Reset_back@?$basic_filebuf@DU?$char_traits@D@std@@@std@@AAEXXZ ; std::basic_filebuf<char,std::char_traits<char> >::_Reset_back

; 334  : 		if (_Pcvt == 0)

  0010e	8b 45 e8	 mov	 eax, DWORD PTR _this$[ebp]
  00111	83 78 44 00	 cmp	 DWORD PTR [eax+68], 0
  00115	75 4c		 jne	 SHORT $LN15@overflow

; 335  : 			return (_Fputc(_Traits::to_char_type(_Meta), _Myfile)
; 336  : 				? _Meta : _Traits::eof());	// no codecvt facet, put as is

  00117	8b 45 e8	 mov	 eax, DWORD PTR _this$[ebp]
  0011a	8b 48 54	 mov	 ecx, DWORD PTR [eax+84]
  0011d	51		 push	 ecx
  0011e	8d 55 08	 lea	 edx, DWORD PTR __Meta$[ebp]
  00121	52		 push	 edx
  00122	e8 00 00 00 00	 call	 ?to_char_type@?$char_traits@D@std@@SADABH@Z ; std::char_traits<char>::to_char_type
  00127	83 c4 04	 add	 esp, 4
  0012a	0f b6 c0	 movzx	 eax, al
  0012d	50		 push	 eax
  0012e	e8 00 00 00 00	 call	 ??$_Fputc@D@std@@YA_NDPAU_iobuf@@@Z ; std::_Fputc<char>
  00133	83 c4 08	 add	 esp, 8
  00136	0f b6 c8	 movzx	 ecx, al
  00139	85 c9		 test	 ecx, ecx
  0013b	74 0b		 je	 SHORT $LN23@overflow
  0013d	8b 55 08	 mov	 edx, DWORD PTR __Meta$[ebp]
  00140	89 95 00 fe ff
	ff		 mov	 DWORD PTR tv147[ebp], edx
  00146	eb 0b		 jmp	 SHORT $LN24@overflow
$LN23@overflow:
  00148	e8 00 00 00 00	 call	 ?eof@?$char_traits@D@std@@SAHXZ ; std::char_traits<char>::eof
  0014d	89 85 00 fe ff
	ff		 mov	 DWORD PTR tv147[ebp], eax
$LN24@overflow:
  00153	8b 85 00 fe ff
	ff		 mov	 eax, DWORD PTR tv147[ebp]
  00159	e9 4f 03 00 00	 jmp	 $LN21@overflow

; 337  : 		else

  0015e	e9 4a 03 00 00	 jmp	 $LN21@overflow
$LN15@overflow:

; 338  : 			{	// put using codecvt facet
; 339  : 			const int _STRING_INC = 8;

  00163	c7 45 dc 08 00
	00 00		 mov	 DWORD PTR __STRING_INC$160910[ebp], 8

; 340  : 			const _Elem _Ch = _Traits::to_char_type(_Meta);

  0016a	8d 45 08	 lea	 eax, DWORD PTR __Meta$[ebp]
  0016d	50		 push	 eax
  0016e	e8 00 00 00 00	 call	 ?to_char_type@?$char_traits@D@std@@SADABH@Z ; std::char_traits<char>::to_char_type
  00173	83 c4 04	 add	 esp, 4
  00176	88 45 d3	 mov	 BYTE PTR __Ch$160911[ebp], al

; 341  : 			const _Elem *_Src;
; 342  : 			char *_Dest;
; 343  : 
; 344  : 			string _Str(_STRING_INC, '\0');

  00179	6a 00		 push	 0
  0017b	6a 08		 push	 8
  0017d	8d 4d 90	 lea	 ecx, DWORD PTR __Str$160914[ebp]
  00180	e8 00 00 00 00	 call	 ??0?$basic_string@DU?$char_traits@D@std@@V?$allocator@D@2@@std@@QAE@ID@Z ; std::basic_string<char,std::char_traits<char>,std::allocator<char> >::basic_string<char,std::char_traits<char>,std::allocator<char> >
  00185	c7 45 fc 00 00
	00 00		 mov	 DWORD PTR __$EHRec$[ebp+8], 0
$LN13@overflow:

; 345  : 			for (; ; )
; 346  : 				switch (_Pcvt->out(_State,
; 347  : 					&_Ch, &_Ch + 1, _Src,
; 348  : 					&*_Str.begin(), &*_Str.begin() + _Str.size(), _Dest))

  0018c	8b f4		 mov	 esi, esp
  0018e	8d 45 b8	 lea	 eax, DWORD PTR __Dest$160913[ebp]
  00191	50		 push	 eax
  00192	8d 8d 20 fe ff
	ff		 lea	 ecx, DWORD PTR $T173814[ebp]
  00198	51		 push	 ecx
  00199	8d 4d 90	 lea	 ecx, DWORD PTR __Str$160914[ebp]
  0019c	e8 00 00 00 00	 call	 ?begin@?$basic_string@DU?$char_traits@D@std@@V?$allocator@D@2@@std@@QAE?AV?$_String_iterator@DU?$char_traits@D@std@@V?$allocator@D@2@@2@XZ ; std::basic_string<char,std::char_traits<char>,std::allocator<char> >::begin
  001a1	89 85 00 fe ff
	ff		 mov	 DWORD PTR tv151[ebp], eax
  001a7	8b 95 00 fe ff
	ff		 mov	 edx, DWORD PTR tv151[ebp]
  001ad	89 95 fc fd ff
	ff		 mov	 DWORD PTR tv237[ebp], edx
  001b3	c6 45 fc 01	 mov	 BYTE PTR __$EHRec$[ebp+8], 1
  001b7	8b 8d fc fd ff
	ff		 mov	 ecx, DWORD PTR tv237[ebp]
  001bd	e8 00 00 00 00	 call	 ??D?$_String_iterator@DU?$char_traits@D@std@@V?$allocator@D@2@@std@@QBEAADXZ ; std::_String_iterator<char,std::char_traits<char>,std::allocator<char> >::operator*
  001c2	8b f8		 mov	 edi, eax
  001c4	8d 4d 90	 lea	 ecx, DWORD PTR __Str$160914[ebp]
  001c7	e8 00 00 00 00	 call	 ?size@?$basic_string@DU?$char_traits@D@std@@V?$allocator@D@2@@std@@QBEIXZ ; std::basic_string<char,std::char_traits<char>,std::allocator<char> >::size
  001cc	03 f8		 add	 edi, eax
  001ce	57		 push	 edi
  001cf	8d 85 34 fe ff
	ff		 lea	 eax, DWORD PTR $T173815[ebp]
  001d5	50		 push	 eax
  001d6	8d 4d 90	 lea	 ecx, DWORD PTR __Str$160914[ebp]
  001d9	e8 00 00 00 00	 call	 ?begin@?$basic_string@DU?$char_traits@D@std@@V?$allocator@D@2@@std@@QAE?AV?$_String_iterator@DU?$char_traits@D@std@@V?$allocator@D@2@@2@XZ ; std::basic_string<char,std::char_traits<char>,std::allocator<char> >::begin
  001de	89 85 f8 fd ff
	ff		 mov	 DWORD PTR tv254[ebp], eax
  001e4	8b 8d f8 fd ff
	ff		 mov	 ecx, DWORD PTR tv254[ebp]
  001ea	89 8d f4 fd ff
	ff		 mov	 DWORD PTR tv239[ebp], ecx
  001f0	c6 45 fc 02	 mov	 BYTE PTR __$EHRec$[ebp+8], 2
  001f4	8b 8d f4 fd ff
	ff		 mov	 ecx, DWORD PTR tv239[ebp]
  001fa	e8 00 00 00 00	 call	 ??D?$_String_iterator@DU?$char_traits@D@std@@V?$allocator@D@2@@std@@QBEAADXZ ; std::_String_iterator<char,std::char_traits<char>,std::allocator<char> >::operator*
  001ff	50		 push	 eax
  00200	8d 55 c4	 lea	 edx, DWORD PTR __Src$160912[ebp]
  00203	52		 push	 edx
  00204	8d 45 d4	 lea	 eax, DWORD PTR __Ch$160911[ebp+1]
  00207	50		 push	 eax
  00208	8d 4d d3	 lea	 ecx, DWORD PTR __Ch$160911[ebp]
  0020b	51		 push	 ecx
  0020c	8b 55 e8	 mov	 edx, DWORD PTR _this$[ebp]
  0020f	83 c2 4c	 add	 edx, 76			; 0000004cH
  00212	52		 push	 edx
  00213	8b 45 e8	 mov	 eax, DWORD PTR _this$[ebp]
  00216	8b 48 44	 mov	 ecx, DWORD PTR [eax+68]
  00219	ff 15 00 00 00
	00		 call	 DWORD PTR __imp_?out@?$codecvt@DDH@std@@QBEHAAHPBD1AAPBDPAD3AAPAD@Z
  0021f	3b f4		 cmp	 esi, esp
  00221	e8 00 00 00 00	 call	 __RTC_CheckEsp
  00226	89 85 14 fe ff
	ff		 mov	 DWORD PTR $T173813[ebp], eax
  0022c	c6 45 fc 01	 mov	 BYTE PTR __$EHRec$[ebp+8], 1
  00230	8d 8d 34 fe ff
	ff		 lea	 ecx, DWORD PTR $T173815[ebp]
  00236	e8 00 00 00 00	 call	 ??1?$_String_iterator@DU?$char_traits@D@std@@V?$allocator@D@2@@std@@QAE@XZ
  0023b	c6 45 fc 00	 mov	 BYTE PTR __$EHRec$[ebp+8], 0
  0023f	8d 8d 20 fe ff
	ff		 lea	 ecx, DWORD PTR $T173814[ebp]
  00245	e8 00 00 00 00	 call	 ??1?$_String_iterator@DU?$char_traits@D@std@@V?$allocator@D@2@@std@@QAE@XZ
  0024a	8b 8d 14 fe ff
	ff		 mov	 ecx, DWORD PTR $T173813[ebp]
  00250	89 8d f0 fd ff
	ff		 mov	 DWORD PTR tv184[ebp], ecx
  00256	83 bd f0 fd ff
	ff 00		 cmp	 DWORD PTR tv184[ebp], 0
  0025d	0f 8c 14 02 00
	00		 jl	 $LN1@overflow
  00263	83 bd f0 fd ff
	ff 01		 cmp	 DWORD PTR tv184[ebp], 1
  0026a	7e 12		 jle	 SHORT $LN9@overflow
  0026c	83 bd f0 fd ff
	ff 03		 cmp	 DWORD PTR tv184[ebp], 3
  00273	0f 84 aa 01 00
	00		 je	 $LN2@overflow
  00279	e9 f9 01 00 00	 jmp	 $LN1@overflow
$LN9@overflow:

; 349  : 				{	// test result of converting one element
; 350  : 				case codecvt_base::partial:
; 351  : 				case codecvt_base::ok:
; 352  : 					{	// converted something, try to put it out
; 353  : 					size_t _Count = _Dest - &*_Str.begin();

  0027e	8d 85 48 fe ff
	ff		 lea	 eax, DWORD PTR $T173816[ebp]
  00284	50		 push	 eax
  00285	8d 4d 90	 lea	 ecx, DWORD PTR __Str$160914[ebp]
  00288	e8 00 00 00 00	 call	 ?begin@?$basic_string@DU?$char_traits@D@std@@V?$allocator@D@2@@std@@QAE?AV?$_String_iterator@DU?$char_traits@D@std@@V?$allocator@D@2@@2@XZ ; std::basic_string<char,std::char_traits<char>,std::allocator<char> >::begin
  0028d	89 85 00 fe ff
	ff		 mov	 DWORD PTR tv255[ebp], eax
  00293	8b 8d 00 fe ff
	ff		 mov	 ecx, DWORD PTR tv255[ebp]
  00299	89 8d fc fd ff
	ff		 mov	 DWORD PTR tv241[ebp], ecx
  0029f	c6 45 fc 03	 mov	 BYTE PTR __$EHRec$[ebp+8], 3
  002a3	8b 8d fc fd ff
	ff		 mov	 ecx, DWORD PTR tv241[ebp]
  002a9	e8 00 00 00 00	 call	 ??D?$_String_iterator@DU?$char_traits@D@std@@V?$allocator@D@2@@std@@QBEAADXZ ; std::_String_iterator<char,std::char_traits<char>,std::allocator<char> >::operator*
  002ae	8b 55 b8	 mov	 edx, DWORD PTR __Dest$160913[ebp]
  002b1	2b d0		 sub	 edx, eax
  002b3	89 55 84	 mov	 DWORD PTR __Count$160926[ebp], edx
  002b6	c6 45 fc 00	 mov	 BYTE PTR __$EHRec$[ebp+8], 0
  002ba	8d 8d 48 fe ff
	ff		 lea	 ecx, DWORD PTR $T173816[ebp]
  002c0	e8 00 00 00 00	 call	 ??1?$_String_iterator@DU?$char_traits@D@std@@V?$allocator@D@2@@std@@QAE@XZ

; 354  : 					if (0 < _Count && _Count !=
; 355  : 						fwrite(&*_Str.begin(), 1, _Count, _Myfile))

  002c5	83 7d 84 00	 cmp	 DWORD PTR __Count$160926[ebp], 0
  002c9	76 70		 jbe	 SHORT $LN25@overflow
  002cb	8b f4		 mov	 esi, esp
  002cd	8b 45 e8	 mov	 eax, DWORD PTR _this$[ebp]
  002d0	8b 48 54	 mov	 ecx, DWORD PTR [eax+84]
  002d3	51		 push	 ecx
  002d4	8b 55 84	 mov	 edx, DWORD PTR __Count$160926[ebp]
  002d7	52		 push	 edx
  002d8	6a 01		 push	 1
  002da	8d 85 68 fe ff
	ff		 lea	 eax, DWORD PTR $T173818[ebp]
  002e0	50		 push	 eax
  002e1	8d 4d 90	 lea	 ecx, DWORD PTR __Str$160914[ebp]
  002e4	e8 00 00 00 00	 call	 ?begin@?$basic_string@DU?$char_traits@D@std@@V?$allocator@D@2@@std@@QAE?AV?$_String_iterator@DU?$char_traits@D@std@@V?$allocator@D@2@@2@XZ ; std::basic_string<char,std::char_traits<char>,std::allocator<char> >::begin
  002e9	89 85 00 fe ff
	ff		 mov	 DWORD PTR tv256[ebp], eax
  002ef	8b 8d 00 fe ff
	ff		 mov	 ecx, DWORD PTR tv256[ebp]
  002f5	89 8d fc fd ff
	ff		 mov	 DWORD PTR tv246[ebp], ecx
  002fb	c6 45 fc 04	 mov	 BYTE PTR __$EHRec$[ebp+8], 4
  002ff	8b 95 b8 fe ff
	ff		 mov	 edx, DWORD PTR $T173832[ebp]
  00305	83 ca 01	 or	 edx, 1
  00308	89 95 b8 fe ff
	ff		 mov	 DWORD PTR $T173832[ebp], edx
  0030e	8b 8d fc fd ff
	ff		 mov	 ecx, DWORD PTR tv246[ebp]
  00314	e8 00 00 00 00	 call	 ??D?$_String_iterator@DU?$char_traits@D@std@@V?$allocator@D@2@@std@@QBEAADXZ ; std::_String_iterator<char,std::char_traits<char>,std::allocator<char> >::operator*
  00319	50		 push	 eax
  0031a	ff 15 00 00 00
	00		 call	 DWORD PTR __imp__fwrite
  00320	83 c4 10	 add	 esp, 16			; 00000010H
  00323	3b f4		 cmp	 esi, esp
  00325	e8 00 00 00 00	 call	 __RTC_CheckEsp
  0032a	39 45 84	 cmp	 DWORD PTR __Count$160926[ebp], eax
  0032d	74 0c		 je	 SHORT $LN25@overflow
  0032f	c7 85 f8 fd ff
	ff 01 00 00 00	 mov	 DWORD PTR tv208[ebp], 1
  00339	eb 0a		 jmp	 SHORT $LN26@overflow
$LN25@overflow:
  0033b	c7 85 f8 fd ff
	ff 00 00 00 00	 mov	 DWORD PTR tv208[ebp], 0
$LN26@overflow:
  00345	8a 85 f8 fd ff
	ff		 mov	 al, BYTE PTR tv208[ebp]
  0034b	88 85 5f fe ff
	ff		 mov	 BYTE PTR $T173817[ebp], al
  00351	c7 45 fc 00 00
	00 00		 mov	 DWORD PTR __$EHRec$[ebp+8], 0
  00358	8b 8d b8 fe ff
	ff		 mov	 ecx, DWORD PTR $T173832[ebp]
  0035e	83 e1 01	 and	 ecx, 1
  00361	74 12		 je	 SHORT $LN35@overflow
  00363	83 a5 b8 fe ff
	ff fe		 and	 DWORD PTR $T173832[ebp], -2 ; fffffffeH
  0036a	8d 8d 68 fe ff
	ff		 lea	 ecx, DWORD PTR $T173818[ebp]
  00370	e8 00 00 00 00	 call	 ??1?$_String_iterator@DU?$char_traits@D@std@@V?$allocator@D@2@@std@@QAE@XZ
$LN35@overflow:
  00375	0f b6 95 5f fe
	ff ff		 movzx	 edx, BYTE PTR $T173817[ebp]
  0037c	85 d2		 test	 edx, edx
  0037e	74 25		 je	 SHORT $LN8@overflow

; 356  : 						return (_Traits::eof());	// write failed

  00380	e8 00 00 00 00	 call	 ?eof@?$char_traits@D@std@@SAHXZ ; std::char_traits<char>::eof
  00385	89 85 7c fe ff
	ff		 mov	 DWORD PTR $T173821[ebp], eax
  0038b	c7 45 fc ff ff
	ff ff		 mov	 DWORD PTR __$EHRec$[ebp+8], -1
  00392	8d 4d 90	 lea	 ecx, DWORD PTR __Str$160914[ebp]
  00395	e8 00 00 00 00	 call	 ??1?$basic_string@DU?$char_traits@D@std@@V?$allocator@D@2@@std@@QAE@XZ ; std::basic_string<char,std::char_traits<char>,std::allocator<char> >::~basic_string<char,std::char_traits<char>,std::allocator<char> >
  0039a	8b 85 7c fe ff
	ff		 mov	 eax, DWORD PTR $T173821[ebp]
  003a0	e9 08 01 00 00	 jmp	 $LN21@overflow
$LN8@overflow:

; 357  : 
; 358  : 					_Wrotesome = true;	// write succeeded

  003a5	8b 45 e8	 mov	 eax, DWORD PTR _this$[ebp]
  003a8	c6 40 49 01	 mov	 BYTE PTR [eax+73], 1

; 359  : 					if (_Src != &_Ch)

  003ac	8b 45 c4	 mov	 eax, DWORD PTR __Src$160912[ebp]
  003af	8d 4d d3	 lea	 ecx, DWORD PTR __Ch$160911[ebp]
  003b2	3b c1		 cmp	 eax, ecx
  003b4	74 23		 je	 SHORT $LN7@overflow

; 360  : 						return (_Meta);	// converted whole element

  003b6	8b 45 08	 mov	 eax, DWORD PTR __Meta$[ebp]
  003b9	89 85 88 fe ff
	ff		 mov	 DWORD PTR $T173822[ebp], eax
  003bf	c7 45 fc ff ff
	ff ff		 mov	 DWORD PTR __$EHRec$[ebp+8], -1
  003c6	8d 4d 90	 lea	 ecx, DWORD PTR __Str$160914[ebp]
  003c9	e8 00 00 00 00	 call	 ??1?$basic_string@DU?$char_traits@D@std@@V?$allocator@D@2@@std@@QAE@XZ ; std::basic_string<char,std::char_traits<char>,std::allocator<char> >::~basic_string<char,std::char_traits<char>,std::allocator<char> >
  003ce	8b 85 88 fe ff
	ff		 mov	 eax, DWORD PTR $T173822[ebp]
  003d4	e9 d4 00 00 00	 jmp	 $LN21@overflow
$LN7@overflow:

; 361  : 
; 362  : 					if (0 < _Count)

  003d9	83 7d 84 00	 cmp	 DWORD PTR __Count$160926[ebp], 0
  003dd	76 02		 jbe	 SHORT $LN6@overflow
  003df	eb 40		 jmp	 SHORT $LN5@overflow
$LN6@overflow:

; 363  : 						;
; 364  : 					else if (_Str.size() < 4 * _STRING_INC)

  003e1	8d 4d 90	 lea	 ecx, DWORD PTR __Str$160914[ebp]
  003e4	e8 00 00 00 00	 call	 ?size@?$basic_string@DU?$char_traits@D@std@@V?$allocator@D@2@@std@@QBEIXZ ; std::basic_string<char,std::char_traits<char>,std::allocator<char> >::size
  003e9	83 f8 20	 cmp	 eax, 32			; 00000020H
  003ec	73 0e		 jae	 SHORT $LN4@overflow

; 365  : 						_Str.append(_STRING_INC, '\0');	// try with more space

  003ee	6a 00		 push	 0
  003f0	6a 08		 push	 8
  003f2	8d 4d 90	 lea	 ecx, DWORD PTR __Str$160914[ebp]
  003f5	e8 00 00 00 00	 call	 ?append@?$basic_string@DU?$char_traits@D@std@@V?$allocator@D@2@@std@@QAEAAV12@ID@Z ; std::basic_string<char,std::char_traits<char>,std::allocator<char> >::append

; 366  : 					else

  003fa	eb 25		 jmp	 SHORT $LN5@overflow
$LN4@overflow:

; 367  : 						return (_Traits::eof());	// conversion failed

  003fc	e8 00 00 00 00	 call	 ?eof@?$char_traits@D@std@@SAHXZ ; std::char_traits<char>::eof
  00401	89 85 94 fe ff
	ff		 mov	 DWORD PTR $T173823[ebp], eax
  00407	c7 45 fc ff ff
	ff ff		 mov	 DWORD PTR __$EHRec$[ebp+8], -1
  0040e	8d 4d 90	 lea	 ecx, DWORD PTR __Str$160914[ebp]
  00411	e8 00 00 00 00	 call	 ??1?$basic_string@DU?$char_traits@D@std@@V?$allocator@D@2@@std@@QAE@XZ ; std::basic_string<char,std::char_traits<char>,std::allocator<char> >::~basic_string<char,std::char_traits<char>,std::allocator<char> >
  00416	8b 85 94 fe ff
	ff		 mov	 eax, DWORD PTR $T173823[ebp]
  0041c	e9 8c 00 00 00	 jmp	 $LN21@overflow
$LN5@overflow:

; 368  : 					break;

  00421	eb 76		 jmp	 SHORT $LN10@overflow
$LN2@overflow:

; 369  : 					}
; 370  : 
; 371  : 				case codecvt_base::noconv:
; 372  : 					return (_Fputc(_Ch, _Myfile) ? _Meta
; 373  : 						: _Traits::eof());	// no conversion, put as is

  00423	8b 45 e8	 mov	 eax, DWORD PTR _this$[ebp]
  00426	8b 48 54	 mov	 ecx, DWORD PTR [eax+84]
  00429	51		 push	 ecx
  0042a	0f b6 55 d3	 movzx	 edx, BYTE PTR __Ch$160911[ebp]
  0042e	52		 push	 edx
  0042f	e8 00 00 00 00	 call	 ??$_Fputc@D@std@@YA_NDPAU_iobuf@@@Z ; std::_Fputc<char>
  00434	83 c4 08	 add	 esp, 8
  00437	0f b6 c0	 movzx	 eax, al
  0043a	85 c0		 test	 eax, eax
  0043c	74 0b		 je	 SHORT $LN27@overflow
  0043e	8b 4d 08	 mov	 ecx, DWORD PTR __Meta$[ebp]
  00441	89 8d 00 fe ff
	ff		 mov	 DWORD PTR tv230[ebp], ecx
  00447	eb 0b		 jmp	 SHORT $LN28@overflow
$LN27@overflow:
  00449	e8 00 00 00 00	 call	 ?eof@?$char_traits@D@std@@SAHXZ ; std::char_traits<char>::eof
  0044e	89 85 00 fe ff
	ff		 mov	 DWORD PTR tv230[ebp], eax
$LN28@overflow:
  00454	8b 95 00 fe ff
	ff		 mov	 edx, DWORD PTR tv230[ebp]
  0045a	89 95 a0 fe ff
	ff		 mov	 DWORD PTR $T173824[ebp], edx
  00460	c7 45 fc ff ff
	ff ff		 mov	 DWORD PTR __$EHRec$[ebp+8], -1
  00467	8d 4d 90	 lea	 ecx, DWORD PTR __Str$160914[ebp]
  0046a	e8 00 00 00 00	 call	 ??1?$basic_string@DU?$char_traits@D@std@@V?$allocator@D@2@@std@@QAE@XZ ; std::basic_string<char,std::char_traits<char>,std::allocator<char> >::~basic_string<char,std::char_traits<char>,std::allocator<char> >
  0046f	8b 85 a0 fe ff
	ff		 mov	 eax, DWORD PTR $T173824[ebp]
  00475	eb 36		 jmp	 SHORT $LN21@overflow
$LN1@overflow:

; 374  : 
; 375  : 				default:
; 376  : 					return (_Traits::eof());	// conversion failed

  00477	e8 00 00 00 00	 call	 ?eof@?$char_traits@D@std@@SAHXZ ; std::char_traits<char>::eof
  0047c	89 85 ac fe ff
	ff		 mov	 DWORD PTR $T173827[ebp], eax
  00482	c7 45 fc ff ff
	ff ff		 mov	 DWORD PTR __$EHRec$[ebp+8], -1
  00489	8d 4d 90	 lea	 ecx, DWORD PTR __Str$160914[ebp]
  0048c	e8 00 00 00 00	 call	 ??1?$basic_string@DU?$char_traits@D@std@@V?$allocator@D@2@@std@@QAE@XZ ; std::basic_string<char,std::char_traits<char>,std::allocator<char> >::~basic_string<char,std::char_traits<char>,std::allocator<char> >
  00491	8b 85 ac fe ff
	ff		 mov	 eax, DWORD PTR $T173827[ebp]
  00497	eb 14		 jmp	 SHORT $LN21@overflow
$LN10@overflow:

; 377  : 				}

  00499	e9 ee fc ff ff	 jmp	 $LN13@overflow

; 378  : 			}

  0049e	c7 45 fc ff ff
	ff ff		 mov	 DWORD PTR __$EHRec$[ebp+8], -1
  004a5	8d 4d 90	 lea	 ecx, DWORD PTR __Str$160914[ebp]
  004a8	e8 00 00 00 00	 call	 ??1?$basic_string@DU?$char_traits@D@std@@V?$allocator@D@2@@std@@QAE@XZ ; std::basic_string<char,std::char_traits<char>,std::allocator<char> >::~basic_string<char,std::char_traits<char>,std::allocator<char> >
$LN21@overflow:

; 379  : 		}

  004ad	52		 push	 edx
  004ae	8b cd		 mov	 ecx, ebp
  004b0	50		 push	 eax
  004b1	8d 15 00 00 00
	00		 lea	 edx, DWORD PTR $LN42@overflow
  004b7	e8 00 00 00 00	 call	 @_RTC_CheckStackVars@8
  004bc	58		 pop	 eax
  004bd	5a		 pop	 edx
  004be	8b 4d f4	 mov	 ecx, DWORD PTR __$EHRec$[ebp]
  004c1	64 89 0d 00 00
	00 00		 mov	 DWORD PTR fs:0, ecx
  004c8	59		 pop	 ecx
  004c9	5f		 pop	 edi
  004ca	5e		 pop	 esi
  004cb	5b		 pop	 ebx
  004cc	8b 4d f0	 mov	 ecx, DWORD PTR __$ArrayPad$[ebp]
  004cf	33 cd		 xor	 ecx, ebp
  004d1	e8 00 00 00 00	 call	 @__security_check_cookie@4
  004d6	81 c4 10 02 00
	00		 add	 esp, 528		; 00000210H
  004dc	3b ec		 cmp	 ebp, esp
  004de	e8 00 00 00 00	 call	 __RTC_CheckEsp
  004e3	8b e5		 mov	 esp, ebp
  004e5	5d		 pop	 ebp
  004e6	c2 04 00	 ret	 4
  004e9	8d 49 00	 npad	 3
$LN42@overflow:
  004ec	04 00 00 00	 DD	 4
  004f0	00 00 00 00	 DD	 $LN41@overflow
$LN41@overflow:
  004f4	d3 ff ff ff	 DD	 -45			; ffffffd3H
  004f8	01 00 00 00	 DD	 1
  004fc	00 00 00 00	 DD	 $LN36@overflow
  00500	c4 ff ff ff	 DD	 -60			; ffffffc4H
  00504	04 00 00 00	 DD	 4
  00508	00 00 00 00	 DD	 $LN37@overflow
  0050c	b8 ff ff ff	 DD	 -72			; ffffffb8H
  00510	04 00 00 00	 DD	 4
  00514	00 00 00 00	 DD	 $LN38@overflow
  00518	90 ff ff ff	 DD	 -112			; ffffff90H
  0051c	20 00 00 00	 DD	 32			; 00000020H
  00520	00 00 00 00	 DD	 $LN39@overflow
$LN39@overflow:
  00524	5f		 DB	 95			; 0000005fH
  00525	53		 DB	 83			; 00000053H
  00526	74		 DB	 116			; 00000074H
  00527	72		 DB	 114			; 00000072H
  00528	00		 DB	 0
$LN38@overflow:
  00529	5f		 DB	 95			; 0000005fH
  0052a	44		 DB	 68			; 00000044H
  0052b	65		 DB	 101			; 00000065H
  0052c	73		 DB	 115			; 00000073H
  0052d	74		 DB	 116			; 00000074H
  0052e	00		 DB	 0
$LN37@overflow:
  0052f	5f		 DB	 95			; 0000005fH
  00530	53		 DB	 83			; 00000053H
  00531	72		 DB	 114			; 00000072H
  00532	63		 DB	 99			; 00000063H
  00533	00		 DB	 0
$LN36@overflow:
  00534	5f		 DB	 95			; 0000005fH
  00535	43		 DB	 67			; 00000043H
  00536	68		 DB	 104			; 00000068H
  00537	00		 DB	 0
_TEXT	ENDS
;	COMDAT text$x
text$x	SEGMENT
__unwindfunclet$?overflow@?$basic_filebuf@DU?$char_traits@D@std@@@std@@MAEHH@Z$0:
  00000	8d 4d 90	 lea	 ecx, DWORD PTR __Str$160914[ebp]
  00003	e9 00 00 00 00	 jmp	 ??1?$basic_string@DU?$char_traits@D@std@@V?$allocator@D@2@@std@@QAE@XZ ; std::basic_string<char,std::char_traits<char>,std::allocator<char> >::~basic_string<char,std::char_traits<char>,std::allocator<char> >
__unwindfunclet$?overflow@?$basic_filebuf@DU?$char_traits@D@std@@@std@@MAEHH@Z$1:
  00008	8d 8d 20 fe ff
	ff		 lea	 ecx, DWORD PTR $T173814[ebp]
  0000e	e9 00 00 00 00	 jmp	 ??1?$_String_iterator@DU?$char_traits@D@std@@V?$allocator@D@2@@std@@QAE@XZ
__unwindfunclet$?overflow@?$basic_filebuf@DU?$char_traits@D@std@@@std@@MAEHH@Z$2:
  00013	8d 8d 34 fe ff
	ff		 lea	 ecx, DWORD PTR $T173815[ebp]
  00019	e9 00 00 00 00	 jmp	 ??1?$_String_iterator@DU?$char_traits@D@std@@V?$allocator@D@2@@std@@QAE@XZ
__unwindfunclet$?overflow@?$basic_filebuf@DU?$char_traits@D@std@@@std@@MAEHH@Z$3:
  0001e	8d 8d 48 fe ff
	ff		 lea	 ecx, DWORD PTR $T173816[ebp]
  00024	e9 00 00 00 00	 jmp	 ??1?$_String_iterator@DU?$char_traits@D@std@@V?$allocator@D@2@@std@@QAE@XZ
__unwindfunclet$?overflow@?$basic_filebuf@DU?$char_traits@D@std@@@std@@MAEHH@Z$4:
  00029	8b 85 b8 fe ff
	ff		 mov	 eax, DWORD PTR $T173832[ebp]
  0002f	83 e0 01	 and	 eax, 1
  00032	0f 84 12 00 00
	00		 je	 $LN34@overflow
  00038	83 a5 b8 fe ff
	ff fe		 and	 DWORD PTR $T173832[ebp], -2 ; fffffffeH
  0003f	8d 8d 68 fe ff
	ff		 lea	 ecx, DWORD PTR $T173818[ebp]
  00045	e9 00 00 00 00	 jmp	 ??1?$_String_iterator@DU?$char_traits@D@std@@V?$allocator@D@2@@std@@QAE@XZ
$LN34@overflow:
  0004a	c3		 ret	 0
__ehhandler$?overflow@?$basic_filebuf@DU?$char_traits@D@std@@@std@@MAEHH@Z:
  0004b	8b 54 24 08	 mov	 edx, DWORD PTR [esp+8]
  0004f	8d 42 0c	 lea	 eax, DWORD PTR [edx+12]
  00052	8b 8a ec fd ff
	ff		 mov	 ecx, DWORD PTR [edx-532]
  00058	33 c8		 xor	 ecx, eax
  0005a	e8 00 00 00 00	 call	 @__security_check_cookie@4
  0005f	8b 4a fc	 mov	 ecx, DWORD PTR [edx-4]
  00062	33 c8		 xor	 ecx, eax
  00064	e8 00 00 00 00	 call	 @__security_check_cookie@4
  00069	b8 00 00 00 00	 mov	 eax, OFFSET __ehfuncinfo$?overflow@?$basic_filebuf@DU?$char_traits@D@std@@@std@@MAEHH@Z
  0006e	e9 00 00 00 00	 jmp	 ___CxxFrameHandler3
text$x	ENDS
?overflow@?$basic_filebuf@DU?$char_traits@D@std@@@std@@MAEHH@Z ENDP ; std::basic_filebuf<char,std::char_traits<char> >::overflow
; Function compile flags: /Odtp /RTCsu /ZI
; File c:\program files (x86)\microsoft visual studio 10.0\vc\include\iosfwd
;	COMDAT ?to_char_type@?$char_traits@D@std@@SADABH@Z
_TEXT	SEGMENT
__Meta$ = 8						; size = 4
?to_char_type@?$char_traits@D@std@@SADABH@Z PROC	; std::char_traits<char>::to_char_type, COMDAT

; 541  : 		{	// convert metacharacter to character

  00000	55		 push	 ebp
  00001	8b ec		 mov	 ebp, esp
  00003	81 ec c0 00 00
	00		 sub	 esp, 192		; 000000c0H
  00009	53		 push	 ebx
  0000a	56		 push	 esi
  0000b	57		 push	 edi
  0000c	8d bd 40 ff ff
	ff		 lea	 edi, DWORD PTR [ebp-192]
  00012	b9 30 00 00 00	 mov	 ecx, 48			; 00000030H
  00017	b8 cc cc cc cc	 mov	 eax, -858993460		; ccccccccH
  0001c	f3 ab		 rep stosd

; 542  : 		return ((_Elem)_Meta);

  0001e	8b 45 08	 mov	 eax, DWORD PTR __Meta$[ebp]
  00021	8a 00		 mov	 al, BYTE PTR [eax]

; 543  : 		}

  00023	5f		 pop	 edi
  00024	5e		 pop	 esi
  00025	5b		 pop	 ebx
  00026	8b e5		 mov	 esp, ebp
  00028	5d		 pop	 ebp
  00029	c3		 ret	 0
?to_char_type@?$char_traits@D@std@@SADABH@Z ENDP	; std::char_traits<char>::to_char_type
; Function compile flags: /Odtp /RTCsu /ZI
_TEXT	ENDS
;	COMDAT ?eq_int_type@?$char_traits@D@std@@SA_NABH0@Z
_TEXT	SEGMENT
__Left$ = 8						; size = 4
__Right$ = 12						; size = 4
?eq_int_type@?$char_traits@D@std@@SA_NABH0@Z PROC	; std::char_traits<char>::eq_int_type, COMDAT

; 552  : 		{	// test for metacharacter equality

  00000	55		 push	 ebp
  00001	8b ec		 mov	 ebp, esp
  00003	81 ec c0 00 00
	00		 sub	 esp, 192		; 000000c0H
  00009	53		 push	 ebx
  0000a	56		 push	 esi
  0000b	57		 push	 edi
  0000c	8d bd 40 ff ff
	ff		 lea	 edi, DWORD PTR [ebp-192]
  00012	b9 30 00 00 00	 mov	 ecx, 48			; 00000030H
  00017	b8 cc cc cc cc	 mov	 eax, -858993460		; ccccccccH
  0001c	f3 ab		 rep stosd

; 553  : 		return (_Left == _Right);

  0001e	8b 45 08	 mov	 eax, DWORD PTR __Left$[ebp]
  00021	8b 4d 0c	 mov	 ecx, DWORD PTR __Right$[ebp]
  00024	8b 10		 mov	 edx, DWORD PTR [eax]
  00026	33 c0		 xor	 eax, eax
  00028	3b 11		 cmp	 edx, DWORD PTR [ecx]
  0002a	0f 94 c0	 sete	 al

; 554  : 		}

  0002d	5f		 pop	 edi
  0002e	5e		 pop	 esi
  0002f	5b		 pop	 ebx
  00030	8b e5		 mov	 esp, ebp
  00032	5d		 pop	 ebp
  00033	c3		 ret	 0
?eq_int_type@?$char_traits@D@std@@SA_NABH0@Z ENDP	; std::char_traits<char>::eq_int_type
; Function compile flags: /Odtp /RTCsu /ZI
_TEXT	ENDS
;	COMDAT ?not_eof@?$char_traits@D@std@@SAHABH@Z
_TEXT	SEGMENT
tv69 = -196						; size = 4
__Meta$ = 8						; size = 4
?not_eof@?$char_traits@D@std@@SAHABH@Z PROC		; std::char_traits<char>::not_eof, COMDAT

; 557  : 		{	// return anything but EOF

  00000	55		 push	 ebp
  00001	8b ec		 mov	 ebp, esp
  00003	81 ec c4 00 00
	00		 sub	 esp, 196		; 000000c4H
  00009	53		 push	 ebx
  0000a	56		 push	 esi
  0000b	57		 push	 edi
  0000c	8d bd 3c ff ff
	ff		 lea	 edi, DWORD PTR [ebp-196]
  00012	b9 31 00 00 00	 mov	 ecx, 49			; 00000031H
  00017	b8 cc cc cc cc	 mov	 eax, -858993460		; ccccccccH
  0001c	f3 ab		 rep stosd

; 558  : 		return (_Meta != eof() ? _Meta : !eof());

  0001e	e8 00 00 00 00	 call	 ?eof@?$char_traits@D@std@@SAHXZ ; std::char_traits<char>::eof
  00023	8b 4d 08	 mov	 ecx, DWORD PTR __Meta$[ebp]
  00026	39 01		 cmp	 DWORD PTR [ecx], eax
  00028	74 0d		 je	 SHORT $LN3@not_eof
  0002a	8b 55 08	 mov	 edx, DWORD PTR __Meta$[ebp]
  0002d	8b 02		 mov	 eax, DWORD PTR [edx]
  0002f	89 85 3c ff ff
	ff		 mov	 DWORD PTR tv69[ebp], eax
  00035	eb 12		 jmp	 SHORT $LN4@not_eof
$LN3@not_eof:
  00037	e8 00 00 00 00	 call	 ?eof@?$char_traits@D@std@@SAHXZ ; std::char_traits<char>::eof
  0003c	f7 d8		 neg	 eax
  0003e	1b c0		 sbb	 eax, eax
  00040	83 c0 01	 add	 eax, 1
  00043	89 85 3c ff ff
	ff		 mov	 DWORD PTR tv69[ebp], eax
$LN4@not_eof:
  00049	8b 85 3c ff ff
	ff		 mov	 eax, DWORD PTR tv69[ebp]

; 559  : 		}

  0004f	5f		 pop	 edi
  00050	5e		 pop	 esi
  00051	5b		 pop	 ebx
  00052	81 c4 c4 00 00
	00		 add	 esp, 196		; 000000c4H
  00058	3b ec		 cmp	 ebp, esp
  0005a	e8 00 00 00 00	 call	 __RTC_CheckEsp
  0005f	8b e5		 mov	 esp, ebp
  00061	5d		 pop	 ebp
  00062	c3		 ret	 0
?not_eof@?$char_traits@D@std@@SAHABH@Z ENDP		; std::char_traits<char>::not_eof
; Function compile flags: /Odtp /RTCsu /ZI
_TEXT	ENDS
;	COMDAT ?eof@?$char_traits@D@std@@SAHXZ
_TEXT	SEGMENT
?eof@?$char_traits@D@std@@SAHXZ PROC			; std::char_traits<char>::eof, COMDAT

; 562  : 		{	// return end-of-file metacharacter

  00000	55		 push	 ebp
  00001	8b ec		 mov	 ebp, esp
  00003	81 ec c0 00 00
	00		 sub	 esp, 192		; 000000c0H
  00009	53		 push	 ebx
  0000a	56		 push	 esi
  0000b	57		 push	 edi
  0000c	8d bd 40 ff ff
	ff		 lea	 edi, DWORD PTR [ebp-192]
  00012	b9 30 00 00 00	 mov	 ecx, 48			; 00000030H
  00017	b8 cc cc cc cc	 mov	 eax, -858993460		; ccccccccH
  0001c	f3 ab		 rep stosd

; 563  : 		return (EOF);

  0001e	83 c8 ff	 or	 eax, -1

; 564  : 		}

  00021	5f		 pop	 edi
  00022	5e		 pop	 esi
  00023	5b		 pop	 ebx
  00024	8b e5		 mov	 esp, ebp
  00026	5d		 pop	 ebp
  00027	c3		 ret	 0
?eof@?$char_traits@D@std@@SAHXZ ENDP			; std::char_traits<char>::eof
_TEXT	ENDS
EXTRN	__imp__fputc:PROC
; Function compile flags: /Odtp /RTCsu /ZI
; File c:\program files (x86)\microsoft visual studio 10.0\vc\include\fstream
;	COMDAT ??$_Fputc@D@std@@YA_NDPAU_iobuf@@@Z
_TEXT	SEGMENT
__Byte$ = 8						; size = 1
__File$ = 12						; size = 4
??$_Fputc@D@std@@YA_NDPAU_iobuf@@@Z PROC		; std::_Fputc<char>, COMDAT

; 80   : 	{	// put a char element to a C stream

  00000	55		 push	 ebp
  00001	8b ec		 mov	 ebp, esp
  00003	81 ec c0 00 00
	00		 sub	 esp, 192		; 000000c0H
  00009	53		 push	 ebx
  0000a	56		 push	 esi
  0000b	57		 push	 edi
  0000c	8d bd 40 ff ff
	ff		 lea	 edi, DWORD PTR [ebp-192]
  00012	b9 30 00 00 00	 mov	 ecx, 48			; 00000030H
  00017	b8 cc cc cc cc	 mov	 eax, -858993460		; ccccccccH
  0001c	f3 ab		 rep stosd

; 81   : 	return (fputc(_Byte, _File) != EOF);

  0001e	8b f4		 mov	 esi, esp
  00020	8b 45 0c	 mov	 eax, DWORD PTR __File$[ebp]
  00023	50		 push	 eax
  00024	0f be 4d 08	 movsx	 ecx, BYTE PTR __Byte$[ebp]
  00028	51		 push	 ecx
  00029	ff 15 00 00 00
	00		 call	 DWORD PTR __imp__fputc
  0002f	83 c4 08	 add	 esp, 8
  00032	3b f4		 cmp	 esi, esp
  00034	e8 00 00 00 00	 call	 __RTC_CheckEsp
  00039	33 d2		 xor	 edx, edx
  0003b	83 f8 ff	 cmp	 eax, -1
  0003e	0f 95 c2	 setne	 dl
  00041	8a c2		 mov	 al, dl

; 82   : 	}

  00043	5f		 pop	 edi
  00044	5e		 pop	 esi
  00045	5b		 pop	 ebx
  00046	81 c4 c0 00 00
	00		 add	 esp, 192		; 000000c0H
  0004c	3b ec		 cmp	 ebp, esp
  0004e	e8 00 00 00 00	 call	 __RTC_CheckEsp
  00053	8b e5		 mov	 esp, ebp
  00055	5d		 pop	 ebp
  00056	c3		 ret	 0
??$_Fputc@D@std@@YA_NDPAU_iobuf@@@Z ENDP		; std::_Fputc<char>
_TEXT	ENDS
PUBLIC	??1?$_String_val@DV?$allocator@D@std@@@std@@QAE@XZ ; std::_String_val<char,std::allocator<char> >::~_String_val<char,std::allocator<char> >
PUBLIC	?_Tidy@?$basic_string@DU?$char_traits@D@std@@V?$allocator@D@2@@std@@QAEX_NI@Z ; std::basic_string<char,std::char_traits<char>,std::allocator<char> >::_Tidy
;	COMDAT xdata$x
; File c:\program files (x86)\microsoft visual studio 10.0\vc\include\xstring
xdata$x	SEGMENT
__unwindtable$??1?$basic_string@DU?$char_traits@D@std@@V?$allocator@D@2@@std@@QAE@XZ DD 0ffffffffH
	DD	FLAT:__unwindfunclet$??1?$basic_string@DU?$char_traits@D@std@@V?$allocator@D@2@@std@@QAE@XZ$0
__ehfuncinfo$??1?$basic_string@DU?$char_traits@D@std@@V?$allocator@D@2@@std@@QAE@XZ DD 019930522H
	DD	01H
	DD	FLAT:__unwindtable$??1?$basic_string@DU?$char_traits@D@std@@V?$allocator@D@2@@std@@QAE@XZ
	DD	2 DUP(00H)
	DD	2 DUP(00H)
	DD	00H
	DD	01H
; Function compile flags: /Odtp /RTCsu /ZI
xdata$x	ENDS
;	COMDAT ??1?$basic_string@DU?$char_traits@D@std@@V?$allocator@D@2@@std@@QAE@XZ
_TEXT	SEGMENT
_this$ = -20						; size = 4
__$EHRec$ = -12						; size = 12
??1?$basic_string@DU?$char_traits@D@std@@V?$allocator@D@2@@std@@QAE@XZ PROC ; std::basic_string<char,std::char_traits<char>,std::allocator<char> >::~basic_string<char,std::char_traits<char>,std::allocator<char> >, COMDAT
; _this$ = ecx

; 752  : 		{	// destroy the string

  00000	55		 push	 ebp
  00001	8b ec		 mov	 ebp, esp
  00003	6a ff		 push	 -1
  00005	68 00 00 00 00	 push	 __ehhandler$??1?$basic_string@DU?$char_traits@D@std@@V?$allocator@D@2@@std@@QAE@XZ
  0000a	64 a1 00 00 00
	00		 mov	 eax, DWORD PTR fs:0
  00010	50		 push	 eax
  00011	81 ec cc 00 00
	00		 sub	 esp, 204		; 000000ccH
  00017	53		 push	 ebx
  00018	56		 push	 esi
  00019	57		 push	 edi
  0001a	51		 push	 ecx
  0001b	8d bd 28 ff ff
	ff		 lea	 edi, DWORD PTR [ebp-216]
  00021	b9 33 00 00 00	 mov	 ecx, 51			; 00000033H
  00026	b8 cc cc cc cc	 mov	 eax, -858993460		; ccccccccH
  0002b	f3 ab		 rep stosd
  0002d	59		 pop	 ecx
  0002e	a1 00 00 00 00	 mov	 eax, DWORD PTR ___security_cookie
  00033	33 c5		 xor	 eax, ebp
  00035	50		 push	 eax
  00036	8d 45 f4	 lea	 eax, DWORD PTR __$EHRec$[ebp]
  00039	64 a3 00 00 00
	00		 mov	 DWORD PTR fs:0, eax
  0003f	89 4d ec	 mov	 DWORD PTR _this$[ebp], ecx
  00042	c7 45 fc 00 00
	00 00		 mov	 DWORD PTR __$EHRec$[ebp+8], 0

; 753  : 		_Tidy(true);

  00049	6a 00		 push	 0
  0004b	6a 01		 push	 1
  0004d	8b 4d ec	 mov	 ecx, DWORD PTR _this$[ebp]
  00050	e8 00 00 00 00	 call	 ?_Tidy@?$basic_string@DU?$char_traits@D@std@@V?$allocator@D@2@@std@@QAEX_NI@Z ; std::basic_string<char,std::char_traits<char>,std::allocator<char> >::_Tidy

; 754  : 		}

  00055	c7 45 fc ff ff
	ff ff		 mov	 DWORD PTR __$EHRec$[ebp+8], -1
  0005c	8b 4d ec	 mov	 ecx, DWORD PTR _this$[ebp]
  0005f	e8 00 00 00 00	 call	 ??1?$_String_val@DV?$allocator@D@std@@@std@@QAE@XZ ; std::_String_val<char,std::allocator<char> >::~_String_val<char,std::allocator<char> >
  00064	8b 4d f4	 mov	 ecx, DWORD PTR __$EHRec$[ebp]
  00067	64 89 0d 00 00
	00 00		 mov	 DWORD PTR fs:0, ecx
  0006e	59		 pop	 ecx
  0006f	5f		 pop	 edi
  00070	5e		 pop	 esi
  00071	5b		 pop	 ebx
  00072	81 c4 d8 00 00
	00		 add	 esp, 216		; 000000d8H
  00078	3b ec		 cmp	 ebp, esp
  0007a	e8 00 00 00 00	 call	 __RTC_CheckEsp
  0007f	8b e5		 mov	 esp, ebp
  00081	5d		 pop	 ebp
  00082	c3		 ret	 0
_TEXT	ENDS
;	COMDAT text$x
text$x	SEGMENT
__unwindfunclet$??1?$basic_string@DU?$char_traits@D@std@@V?$allocator@D@2@@std@@QAE@XZ$0:
  00000	8b 4d ec	 mov	 ecx, DWORD PTR _this$[ebp]
  00003	e9 00 00 00 00	 jmp	 ??1?$_String_val@DV?$allocator@D@std@@@std@@QAE@XZ ; std::_String_val<char,std::allocator<char> >::~_String_val<char,std::allocator<char> >
__ehhandler$??1?$basic_string@DU?$char_traits@D@std@@V?$allocator@D@2@@std@@QAE@XZ:
  00008	8b 54 24 08	 mov	 edx, DWORD PTR [esp+8]
  0000c	8d 42 0c	 lea	 eax, DWORD PTR [edx+12]
  0000f	8b 8a 24 ff ff
	ff		 mov	 ecx, DWORD PTR [edx-220]
  00015	33 c8		 xor	 ecx, eax
  00017	e8 00 00 00 00	 call	 @__security_check_cookie@4
  0001c	b8 00 00 00 00	 mov	 eax, OFFSET __ehfuncinfo$??1?$basic_string@DU?$char_traits@D@std@@V?$allocator@D@2@@std@@QAE@XZ
  00021	e9 00 00 00 00	 jmp	 ___CxxFrameHandler3
text$x	ENDS
??1?$basic_string@DU?$char_traits@D@std@@V?$allocator@D@2@@std@@QAE@XZ ENDP ; std::basic_string<char,std::char_traits<char>,std::allocator<char> >::~basic_string<char,std::char_traits<char>,std::allocator<char> >
; Function compile flags: /Odtp /RTCsu /ZI
;	COMDAT ?size@?$basic_string@DU?$char_traits@D@std@@V?$allocator@D@2@@std@@QBEIXZ
_TEXT	SEGMENT
_this$ = -8						; size = 4
?size@?$basic_string@DU?$char_traits@D@std@@V?$allocator@D@2@@std@@QBEIXZ PROC ; std::basic_string<char,std::char_traits<char>,std::allocator<char> >::size, COMDAT
; _this$ = ecx

; 1510 : 		{	// return length of sequence

  00000	55		 push	 ebp
  00001	8b ec		 mov	 ebp, esp
  00003	81 ec cc 00 00
	00		 sub	 esp, 204		; 000000ccH
  00009	53		 push	 ebx
  0000a	56		 push	 esi
  0000b	57		 push	 edi
  0000c	51		 push	 ecx
  0000d	8d bd 34 ff ff
	ff		 lea	 edi, DWORD PTR [ebp-204]
  00013	b9 33 00 00 00	 mov	 ecx, 51			; 00000033H
  00018	b8 cc cc cc cc	 mov	 eax, -858993460		; ccccccccH
  0001d	f3 ab		 rep stosd
  0001f	59		 pop	 ecx
  00020	89 4d f8	 mov	 DWORD PTR _this$[ebp], ecx

; 1511 : 		return (this->_Mysize);

  00023	8b 45 f8	 mov	 eax, DWORD PTR _this$[ebp]
  00026	8b 40 14	 mov	 eax, DWORD PTR [eax+20]

; 1512 : 		}

  00029	5f		 pop	 edi
  0002a	5e		 pop	 esi
  0002b	5b		 pop	 ebx
  0002c	8b e5		 mov	 esp, ebp
  0002e	5d		 pop	 ebp
  0002f	c3		 ret	 0
?size@?$basic_string@DU?$char_traits@D@std@@V?$allocator@D@2@@std@@QBEIXZ ENDP ; std::basic_string<char,std::char_traits<char>,std::allocator<char> >::size
_TEXT	ENDS
PUBLIC	?_Set_back@?$basic_filebuf@DU?$char_traits@D@std@@@std@@AAEXXZ ; std::basic_filebuf<char,std::char_traits<char> >::_Set_back
PUBLIC	??$_Ungetc@D@std@@YA_NABDPAU_iobuf@@@Z		; std::_Ungetc<char>
PUBLIC	?to_int_type@?$char_traits@D@std@@SAHABD@Z	; std::char_traits<char>::to_int_type
EXTRN	__imp_?_Gndec@?$basic_streambuf@DU?$char_traits@D@std@@@std@@IAEPADXZ:PROC
EXTRN	__imp_?eback@?$basic_streambuf@DU?$char_traits@D@std@@@std@@IBEPADXZ:PROC
EXTRN	__imp_?gptr@?$basic_streambuf@DU?$char_traits@D@std@@@std@@IBEPADXZ:PROC
; Function compile flags: /Odtp /RTCsu /ZI
; File c:\program files (x86)\microsoft visual studio 10.0\vc\include\fstream
;	COMDAT ?pbackfail@?$basic_filebuf@DU?$char_traits@D@std@@@std@@MAEHH@Z
_TEXT	SEGMENT
$T173873 = -248						; size = 4
$T173874 = -236						; size = 4
$T173875 = -224						; size = 4
$T173876 = -209						; size = 1
_this$ = -8						; size = 4
__Meta$ = 8						; size = 4
?pbackfail@?$basic_filebuf@DU?$char_traits@D@std@@@std@@MAEHH@Z PROC ; std::basic_filebuf<char,std::char_traits<char> >::pbackfail, COMDAT
; _this$ = ecx

; 383  : 		{	// put an element back to stream

  00000	55		 push	 ebp
  00001	8b ec		 mov	 ebp, esp
  00003	81 ec fc 00 00
	00		 sub	 esp, 252		; 000000fcH
  00009	53		 push	 ebx
  0000a	56		 push	 esi
  0000b	57		 push	 edi
  0000c	51		 push	 ecx
  0000d	8d bd 04 ff ff
	ff		 lea	 edi, DWORD PTR [ebp-252]
  00013	b9 3f 00 00 00	 mov	 ecx, 63			; 0000003fH
  00018	b8 cc cc cc cc	 mov	 eax, -858993460		; ccccccccH
  0001d	f3 ab		 rep stosd
  0001f	59		 pop	 ecx
  00020	89 4d f8	 mov	 DWORD PTR _this$[ebp], ecx

; 384  : 		if (_Mysb::gptr() != 0
; 385  : 			&& _Mysb::eback() < _Mysb::gptr()
; 386  : 			&& (_Traits::eq_int_type(_Traits::eof(), _Meta)
; 387  : 			|| _Traits::eq_int_type(_Traits::to_int_type(_Mysb::gptr()[-1]),
; 388  : 				_Meta)))

  00023	8b f4		 mov	 esi, esp
  00025	8b 4d f8	 mov	 ecx, DWORD PTR _this$[ebp]
  00028	ff 15 00 00 00
	00		 call	 DWORD PTR __imp_?gptr@?$basic_streambuf@DU?$char_traits@D@std@@@std@@IBEPADXZ
  0002e	3b f4		 cmp	 esi, esp
  00030	e8 00 00 00 00	 call	 __RTC_CheckEsp
  00035	85 c0		 test	 eax, eax
  00037	0f 84 b9 00 00
	00		 je	 $LN10@pbackfail
  0003d	8b f4		 mov	 esi, esp
  0003f	8b 4d f8	 mov	 ecx, DWORD PTR _this$[ebp]
  00042	ff 15 00 00 00
	00		 call	 DWORD PTR __imp_?eback@?$basic_streambuf@DU?$char_traits@D@std@@@std@@IBEPADXZ
  00048	3b f4		 cmp	 esi, esp
  0004a	e8 00 00 00 00	 call	 __RTC_CheckEsp
  0004f	8b f0		 mov	 esi, eax
  00051	8b fc		 mov	 edi, esp
  00053	8b 4d f8	 mov	 ecx, DWORD PTR _this$[ebp]
  00056	ff 15 00 00 00
	00		 call	 DWORD PTR __imp_?gptr@?$basic_streambuf@DU?$char_traits@D@std@@@std@@IBEPADXZ
  0005c	3b fc		 cmp	 edi, esp
  0005e	e8 00 00 00 00	 call	 __RTC_CheckEsp
  00063	3b f0		 cmp	 esi, eax
  00065	0f 83 8b 00 00
	00		 jae	 $LN10@pbackfail
  0006b	e8 00 00 00 00	 call	 ?eof@?$char_traits@D@std@@SAHXZ ; std::char_traits<char>::eof
  00070	89 85 08 ff ff
	ff		 mov	 DWORD PTR $T173873[ebp], eax
  00076	8d 45 08	 lea	 eax, DWORD PTR __Meta$[ebp]
  00079	50		 push	 eax
  0007a	8d 8d 08 ff ff
	ff		 lea	 ecx, DWORD PTR $T173873[ebp]
  00080	51		 push	 ecx
  00081	e8 00 00 00 00	 call	 ?eq_int_type@?$char_traits@D@std@@SA_NABH0@Z ; std::char_traits<char>::eq_int_type
  00086	83 c4 08	 add	 esp, 8
  00089	0f b6 d0	 movzx	 edx, al
  0008c	85 d2		 test	 edx, edx
  0008e	75 3e		 jne	 SHORT $LN9@pbackfail
  00090	8b f4		 mov	 esi, esp
  00092	8b 4d f8	 mov	 ecx, DWORD PTR _this$[ebp]
  00095	ff 15 00 00 00
	00		 call	 DWORD PTR __imp_?gptr@?$basic_streambuf@DU?$char_traits@D@std@@@std@@IBEPADXZ
  0009b	3b f4		 cmp	 esi, esp
  0009d	e8 00 00 00 00	 call	 __RTC_CheckEsp
  000a2	83 e8 01	 sub	 eax, 1
  000a5	50		 push	 eax
  000a6	e8 00 00 00 00	 call	 ?to_int_type@?$char_traits@D@std@@SAHABD@Z ; std::char_traits<char>::to_int_type
  000ab	83 c4 04	 add	 esp, 4
  000ae	89 85 14 ff ff
	ff		 mov	 DWORD PTR $T173874[ebp], eax
  000b4	8d 45 08	 lea	 eax, DWORD PTR __Meta$[ebp]
  000b7	50		 push	 eax
  000b8	8d 8d 14 ff ff
	ff		 lea	 ecx, DWORD PTR $T173874[ebp]
  000be	51		 push	 ecx
  000bf	e8 00 00 00 00	 call	 ?eq_int_type@?$char_traits@D@std@@SA_NABH0@Z ; std::char_traits<char>::eq_int_type
  000c4	83 c4 08	 add	 esp, 8
  000c7	0f b6 d0	 movzx	 edx, al
  000ca	85 d2		 test	 edx, edx
  000cc	74 28		 je	 SHORT $LN10@pbackfail
$LN9@pbackfail:

; 389  : 			{	// just back up position
; 390  : 			_Mysb::_Gndec();

  000ce	8b f4		 mov	 esi, esp
  000d0	8b 4d f8	 mov	 ecx, DWORD PTR _this$[ebp]
  000d3	ff 15 00 00 00
	00		 call	 DWORD PTR __imp_?_Gndec@?$basic_streambuf@DU?$char_traits@D@std@@@std@@IAEPADXZ
  000d9	3b f4		 cmp	 esi, esp
  000db	e8 00 00 00 00	 call	 __RTC_CheckEsp

; 391  : 			return (_Traits::not_eof(_Meta));

  000e0	8d 45 08	 lea	 eax, DWORD PTR __Meta$[ebp]
  000e3	50		 push	 eax
  000e4	e8 00 00 00 00	 call	 ?not_eof@?$char_traits@D@std@@SAHABH@Z ; std::char_traits<char>::not_eof
  000e9	83 c4 04	 add	 esp, 4
  000ec	e9 c3 00 00 00	 jmp	 $LN11@pbackfail
  000f1	e9 be 00 00 00	 jmp	 $LN11@pbackfail
$LN10@pbackfail:

; 392  : 			}
; 393  : 		else if (_Myfile == 0 || _Traits::eq_int_type(_Traits::eof(), _Meta))

  000f6	8b 45 f8	 mov	 eax, DWORD PTR _this$[ebp]
  000f9	83 78 54 00	 cmp	 DWORD PTR [eax+84], 0
  000fd	74 25		 je	 SHORT $LN6@pbackfail
  000ff	e8 00 00 00 00	 call	 ?eof@?$char_traits@D@std@@SAHXZ ; std::char_traits<char>::eof
  00104	89 85 20 ff ff
	ff		 mov	 DWORD PTR $T173875[ebp], eax
  0010a	8d 45 08	 lea	 eax, DWORD PTR __Meta$[ebp]
  0010d	50		 push	 eax
  0010e	8d 8d 20 ff ff
	ff		 lea	 ecx, DWORD PTR $T173875[ebp]
  00114	51		 push	 ecx
  00115	e8 00 00 00 00	 call	 ?eq_int_type@?$char_traits@D@std@@SA_NABH0@Z ; std::char_traits<char>::eq_int_type
  0011a	83 c4 08	 add	 esp, 8
  0011d	0f b6 d0	 movzx	 edx, al
  00120	85 d2		 test	 edx, edx
  00122	74 0f		 je	 SHORT $LN7@pbackfail
$LN6@pbackfail:

; 394  : 			return (_Traits::eof());	// no open C stream or EOF, fail

  00124	e8 00 00 00 00	 call	 ?eof@?$char_traits@D@std@@SAHXZ ; std::char_traits<char>::eof
  00129	e9 86 00 00 00	 jmp	 $LN11@pbackfail
  0012e	e9 81 00 00 00	 jmp	 $LN11@pbackfail
$LN7@pbackfail:

; 395  : 		else if (_Pcvt == 0 && _Ungetc(_Traits::to_char_type(_Meta), _Myfile))

  00133	8b 45 f8	 mov	 eax, DWORD PTR _this$[ebp]
  00136	83 78 44 00	 cmp	 DWORD PTR [eax+68], 0
  0013a	75 36		 jne	 SHORT $LN4@pbackfail
  0013c	8d 45 08	 lea	 eax, DWORD PTR __Meta$[ebp]
  0013f	50		 push	 eax
  00140	e8 00 00 00 00	 call	 ?to_char_type@?$char_traits@D@std@@SADABH@Z ; std::char_traits<char>::to_char_type
  00145	83 c4 04	 add	 esp, 4
  00148	88 85 2f ff ff
	ff		 mov	 BYTE PTR $T173876[ebp], al
  0014e	8b 4d f8	 mov	 ecx, DWORD PTR _this$[ebp]
  00151	8b 51 54	 mov	 edx, DWORD PTR [ecx+84]
  00154	52		 push	 edx
  00155	8d 85 2f ff ff
	ff		 lea	 eax, DWORD PTR $T173876[ebp]
  0015b	50		 push	 eax
  0015c	e8 00 00 00 00	 call	 ??$_Ungetc@D@std@@YA_NABDPAU_iobuf@@@Z ; std::_Ungetc<char>
  00161	83 c4 08	 add	 esp, 8
  00164	0f b6 c8	 movzx	 ecx, al
  00167	85 c9		 test	 ecx, ecx
  00169	74 07		 je	 SHORT $LN4@pbackfail

; 396  : 			return (_Meta);	// no facet and unget succeeded, return

  0016b	8b 45 08	 mov	 eax, DWORD PTR __Meta$[ebp]
  0016e	eb 44		 jmp	 SHORT $LN11@pbackfail
  00170	eb 42		 jmp	 SHORT $LN11@pbackfail
$LN4@pbackfail:

; 397  : 		else if (_Mysb::gptr() != &_Mychar)

  00172	8b f4		 mov	 esi, esp
  00174	8b 4d f8	 mov	 ecx, DWORD PTR _this$[ebp]
  00177	ff 15 00 00 00
	00		 call	 DWORD PTR __imp_?gptr@?$basic_streambuf@DU?$char_traits@D@std@@@std@@IBEPADXZ
  0017d	3b f4		 cmp	 esi, esp
  0017f	e8 00 00 00 00	 call	 __RTC_CheckEsp
  00184	8b 4d f8	 mov	 ecx, DWORD PTR _this$[ebp]
  00187	83 c1 48	 add	 ecx, 72			; 00000048H
  0018a	3b c1		 cmp	 eax, ecx
  0018c	74 21		 je	 SHORT $LN2@pbackfail

; 398  : 			{	// putback to _Mychar
; 399  : 			_Mychar = _Traits::to_char_type(_Meta);

  0018e	8d 45 08	 lea	 eax, DWORD PTR __Meta$[ebp]
  00191	50		 push	 eax
  00192	e8 00 00 00 00	 call	 ?to_char_type@?$char_traits@D@std@@SADABH@Z ; std::char_traits<char>::to_char_type
  00197	83 c4 04	 add	 esp, 4
  0019a	8b 4d f8	 mov	 ecx, DWORD PTR _this$[ebp]
  0019d	88 41 48	 mov	 BYTE PTR [ecx+72], al

; 400  : 			_Set_back();	// switch to _Mychar buffer

  001a0	8b 4d f8	 mov	 ecx, DWORD PTR _this$[ebp]
  001a3	e8 00 00 00 00	 call	 ?_Set_back@?$basic_filebuf@DU?$char_traits@D@std@@@std@@AAEXXZ ; std::basic_filebuf<char,std::char_traits<char> >::_Set_back

; 401  : 			return (_Meta);

  001a8	8b 45 08	 mov	 eax, DWORD PTR __Meta$[ebp]
  001ab	eb 07		 jmp	 SHORT $LN11@pbackfail

; 402  : 			}
; 403  : 		else

  001ad	eb 05		 jmp	 SHORT $LN11@pbackfail
$LN2@pbackfail:

; 404  : 			return (_Traits::eof());	// nowhere to put back

  001af	e8 00 00 00 00	 call	 ?eof@?$char_traits@D@std@@SAHXZ ; std::char_traits<char>::eof
$LN11@pbackfail:

; 405  : 		}

  001b4	5f		 pop	 edi
  001b5	5e		 pop	 esi
  001b6	5b		 pop	 ebx
  001b7	81 c4 fc 00 00
	00		 add	 esp, 252		; 000000fcH
  001bd	3b ec		 cmp	 ebp, esp
  001bf	e8 00 00 00 00	 call	 __RTC_CheckEsp
  001c4	8b e5		 mov	 esp, ebp
  001c6	5d		 pop	 ebp
  001c7	c2 04 00	 ret	 4
?pbackfail@?$basic_filebuf@DU?$char_traits@D@std@@@std@@MAEHH@Z ENDP ; std::basic_filebuf<char,std::char_traits<char> >::pbackfail
; Function compile flags: /Odtp /RTCsu /ZI
; File c:\program files (x86)\microsoft visual studio 10.0\vc\include\iosfwd
_TEXT	ENDS
;	COMDAT ?to_int_type@?$char_traits@D@std@@SAHABD@Z
_TEXT	SEGMENT
__Ch$ = 8						; size = 4
?to_int_type@?$char_traits@D@std@@SAHABD@Z PROC		; std::char_traits<char>::to_int_type, COMDAT

; 546  : 		{	// convert character to metacharacter

  00000	55		 push	 ebp
  00001	8b ec		 mov	 ebp, esp
  00003	81 ec c0 00 00
	00		 sub	 esp, 192		; 000000c0H
  00009	53		 push	 ebx
  0000a	56		 push	 esi
  0000b	57		 push	 edi
  0000c	8d bd 40 ff ff
	ff		 lea	 edi, DWORD PTR [ebp-192]
  00012	b9 30 00 00 00	 mov	 ecx, 48			; 00000030H
  00017	b8 cc cc cc cc	 mov	 eax, -858993460		; ccccccccH
  0001c	f3 ab		 rep stosd

; 547  : 		return ((unsigned char)_Ch);

  0001e	8b 45 08	 mov	 eax, DWORD PTR __Ch$[ebp]
  00021	0f b6 00	 movzx	 eax, BYTE PTR [eax]

; 548  : 		}

  00024	5f		 pop	 edi
  00025	5e		 pop	 esi
  00026	5b		 pop	 ebx
  00027	8b e5		 mov	 esp, ebp
  00029	5d		 pop	 ebp
  0002a	c3		 ret	 0
?to_int_type@?$char_traits@D@std@@SAHABD@Z ENDP		; std::char_traits<char>::to_int_type
_TEXT	ENDS
EXTRN	__imp__ungetc:PROC
; Function compile flags: /Odtp /RTCsu /ZI
; File c:\program files (x86)\microsoft visual studio 10.0\vc\include\fstream
;	COMDAT ??$_Ungetc@D@std@@YA_NABDPAU_iobuf@@@Z
_TEXT	SEGMENT
__Byte$ = 8						; size = 4
__File$ = 12						; size = 4
??$_Ungetc@D@std@@YA_NABDPAU_iobuf@@@Z PROC		; std::_Ungetc<char>, COMDAT

; 104  : 	{	// put back a char element to a C stream

  00000	55		 push	 ebp
  00001	8b ec		 mov	 ebp, esp
  00003	81 ec c0 00 00
	00		 sub	 esp, 192		; 000000c0H
  00009	53		 push	 ebx
  0000a	56		 push	 esi
  0000b	57		 push	 edi
  0000c	8d bd 40 ff ff
	ff		 lea	 edi, DWORD PTR [ebp-192]
  00012	b9 30 00 00 00	 mov	 ecx, 48			; 00000030H
  00017	b8 cc cc cc cc	 mov	 eax, -858993460		; ccccccccH
  0001c	f3 ab		 rep stosd

; 105  : 	return (ungetc((unsigned char)_Byte, _File) != EOF);

  0001e	8b f4		 mov	 esi, esp
  00020	8b 45 0c	 mov	 eax, DWORD PTR __File$[ebp]
  00023	50		 push	 eax
  00024	8b 4d 08	 mov	 ecx, DWORD PTR __Byte$[ebp]
  00027	0f b6 11	 movzx	 edx, BYTE PTR [ecx]
  0002a	52		 push	 edx
  0002b	ff 15 00 00 00
	00		 call	 DWORD PTR __imp__ungetc
  00031	83 c4 08	 add	 esp, 8
  00034	3b f4		 cmp	 esi, esp
  00036	e8 00 00 00 00	 call	 __RTC_CheckEsp
  0003b	33 c9		 xor	 ecx, ecx
  0003d	83 f8 ff	 cmp	 eax, -1
  00040	0f 95 c1	 setne	 cl
  00043	8a c1		 mov	 al, cl

; 106  : 	}

  00045	5f		 pop	 edi
  00046	5e		 pop	 esi
  00047	5b		 pop	 ebx
  00048	81 c4 c0 00 00
	00		 add	 esp, 192		; 000000c0H
  0004e	3b ec		 cmp	 ebp, esp
  00050	e8 00 00 00 00	 call	 __RTC_CheckEsp
  00055	8b e5		 mov	 esp, ebp
  00057	5d		 pop	 ebp
  00058	c3		 ret	 0
??$_Ungetc@D@std@@YA_NABDPAU_iobuf@@@Z ENDP		; std::_Ungetc<char>
_TEXT	ENDS
EXTRN	__imp_?egptr@?$basic_streambuf@DU?$char_traits@D@std@@@std@@IBEPADXZ:PROC
; Function compile flags: /Odtp /RTCsu /ZI
;	COMDAT ?underflow@?$basic_filebuf@DU?$char_traits@D@std@@@std@@MAEHXZ
_TEXT	SEGMENT
$T173883 = -224						; size = 4
__Meta$ = -20						; size = 4
_this$ = -8						; size = 4
?underflow@?$basic_filebuf@DU?$char_traits@D@std@@@std@@MAEHXZ PROC ; std::basic_filebuf<char,std::char_traits<char> >::underflow, COMDAT
; _this$ = ecx

; 408  : 		{	// get an element from stream, but don't point past it

  00000	55		 push	 ebp
  00001	8b ec		 mov	 ebp, esp
  00003	81 ec e4 00 00
	00		 sub	 esp, 228		; 000000e4H
  00009	53		 push	 ebx
  0000a	56		 push	 esi
  0000b	57		 push	 edi
  0000c	51		 push	 ecx
  0000d	8d bd 1c ff ff
	ff		 lea	 edi, DWORD PTR [ebp-228]
  00013	b9 39 00 00 00	 mov	 ecx, 57			; 00000039H
  00018	b8 cc cc cc cc	 mov	 eax, -858993460		; ccccccccH
  0001d	f3 ab		 rep stosd
  0001f	59		 pop	 ecx
  00020	89 4d f8	 mov	 DWORD PTR _this$[ebp], ecx

; 409  : 		int_type _Meta;
; 410  : 		if (_Mysb::gptr() != 0
; 411  : 			&& _Mysb::gptr() < _Mysb::egptr())

  00023	8b f4		 mov	 esi, esp
  00025	8b 4d f8	 mov	 ecx, DWORD PTR _this$[ebp]
  00028	ff 15 00 00 00
	00		 call	 DWORD PTR __imp_?gptr@?$basic_streambuf@DU?$char_traits@D@std@@@std@@IBEPADXZ
  0002e	3b f4		 cmp	 esi, esp
  00030	e8 00 00 00 00	 call	 __RTC_CheckEsp
  00035	85 c0		 test	 eax, eax
  00037	74 49		 je	 SHORT $LN4@underflow
  00039	8b f4		 mov	 esi, esp
  0003b	8b 4d f8	 mov	 ecx, DWORD PTR _this$[ebp]
  0003e	ff 15 00 00 00
	00		 call	 DWORD PTR __imp_?gptr@?$basic_streambuf@DU?$char_traits@D@std@@@std@@IBEPADXZ
  00044	3b f4		 cmp	 esi, esp
  00046	e8 00 00 00 00	 call	 __RTC_CheckEsp
  0004b	8b f0		 mov	 esi, eax
  0004d	8b fc		 mov	 edi, esp
  0004f	8b 4d f8	 mov	 ecx, DWORD PTR _this$[ebp]
  00052	ff 15 00 00 00
	00		 call	 DWORD PTR __imp_?egptr@?$basic_streambuf@DU?$char_traits@D@std@@@std@@IBEPADXZ
  00058	3b fc		 cmp	 edi, esp
  0005a	e8 00 00 00 00	 call	 __RTC_CheckEsp
  0005f	3b f0		 cmp	 esi, eax
  00061	73 1f		 jae	 SHORT $LN4@underflow

; 412  : 			return (_Traits::to_int_type(*_Mysb::gptr()));	// return buffered

  00063	8b f4		 mov	 esi, esp
  00065	8b 4d f8	 mov	 ecx, DWORD PTR _this$[ebp]
  00068	ff 15 00 00 00
	00		 call	 DWORD PTR __imp_?gptr@?$basic_streambuf@DU?$char_traits@D@std@@@std@@IBEPADXZ
  0006e	3b f4		 cmp	 esi, esp
  00070	e8 00 00 00 00	 call	 __RTC_CheckEsp
  00075	50		 push	 eax
  00076	e8 00 00 00 00	 call	 ?to_int_type@?$char_traits@D@std@@SAHABD@Z ; std::char_traits<char>::to_int_type
  0007b	83 c4 04	 add	 esp, 4
  0007e	eb 64		 jmp	 SHORT $LN5@underflow
  00080	eb 62		 jmp	 SHORT $LN5@underflow
$LN4@underflow:

; 413  : 		else if (_Traits::eq_int_type(_Traits::eof(), _Meta = uflow()))

  00082	8b 45 f8	 mov	 eax, DWORD PTR _this$[ebp]
  00085	8b 10		 mov	 edx, DWORD PTR [eax]
  00087	8b f4		 mov	 esi, esp
  00089	8b 4d f8	 mov	 ecx, DWORD PTR _this$[ebp]
  0008c	8b 42 1c	 mov	 eax, DWORD PTR [edx+28]
  0008f	ff d0		 call	 eax
  00091	3b f4		 cmp	 esi, esp
  00093	e8 00 00 00 00	 call	 __RTC_CheckEsp
  00098	89 45 ec	 mov	 DWORD PTR __Meta$[ebp], eax
  0009b	e8 00 00 00 00	 call	 ?eof@?$char_traits@D@std@@SAHXZ ; std::char_traits<char>::eof
  000a0	89 85 20 ff ff
	ff		 mov	 DWORD PTR $T173883[ebp], eax
  000a6	8d 4d ec	 lea	 ecx, DWORD PTR __Meta$[ebp]
  000a9	51		 push	 ecx
  000aa	8d 95 20 ff ff
	ff		 lea	 edx, DWORD PTR $T173883[ebp]
  000b0	52		 push	 edx
  000b1	e8 00 00 00 00	 call	 ?eq_int_type@?$char_traits@D@std@@SA_NABH0@Z ; std::char_traits<char>::eq_int_type
  000b6	83 c4 08	 add	 esp, 8
  000b9	0f b6 c0	 movzx	 eax, al
  000bc	85 c0		 test	 eax, eax
  000be	74 07		 je	 SHORT $LN2@underflow

; 414  : 			return (_Meta);	// uflow failed, return EOF

  000c0	8b 45 ec	 mov	 eax, DWORD PTR __Meta$[ebp]
  000c3	eb 1f		 jmp	 SHORT $LN5@underflow

; 415  : 		else

  000c5	eb 1d		 jmp	 SHORT $LN5@underflow
$LN2@underflow:

; 416  : 			{	// get a char, don't point past it
; 417  : 			pbackfail(_Meta);

  000c7	8b f4		 mov	 esi, esp
  000c9	8b 45 ec	 mov	 eax, DWORD PTR __Meta$[ebp]
  000cc	50		 push	 eax
  000cd	8b 4d f8	 mov	 ecx, DWORD PTR _this$[ebp]
  000d0	8b 11		 mov	 edx, DWORD PTR [ecx]
  000d2	8b 4d f8	 mov	 ecx, DWORD PTR _this$[ebp]
  000d5	8b 42 10	 mov	 eax, DWORD PTR [edx+16]
  000d8	ff d0		 call	 eax
  000da	3b f4		 cmp	 esi, esp
  000dc	e8 00 00 00 00	 call	 __RTC_CheckEsp

; 418  : 			return (_Meta);

  000e1	8b 45 ec	 mov	 eax, DWORD PTR __Meta$[ebp]
$LN5@underflow:

; 419  : 			}
; 420  : 		}

  000e4	52		 push	 edx
  000e5	8b cd		 mov	 ecx, ebp
  000e7	50		 push	 eax
  000e8	8d 15 00 00 00
	00		 lea	 edx, DWORD PTR $LN9@underflow
  000ee	e8 00 00 00 00	 call	 @_RTC_CheckStackVars@8
  000f3	58		 pop	 eax
  000f4	5a		 pop	 edx
  000f5	5f		 pop	 edi
  000f6	5e		 pop	 esi
  000f7	5b		 pop	 ebx
  000f8	81 c4 e4 00 00
	00		 add	 esp, 228		; 000000e4H
  000fe	3b ec		 cmp	 ebp, esp
  00100	e8 00 00 00 00	 call	 __RTC_CheckEsp
  00105	8b e5		 mov	 esp, ebp
  00107	5d		 pop	 ebp
  00108	c3		 ret	 0
  00109	8d 49 00	 npad	 3
$LN9@underflow:
  0010c	01 00 00 00	 DD	 1
  00110	00 00 00 00	 DD	 $LN8@underflow
$LN8@underflow:
  00114	ec ff ff ff	 DD	 -20			; ffffffecH
  00118	04 00 00 00	 DD	 4
  0011c	00 00 00 00	 DD	 $LN7@underflow
$LN7@underflow:
  00120	5f		 DB	 95			; 0000005fH
  00121	4d		 DB	 77			; 0000004dH
  00122	65		 DB	 101			; 00000065H
  00123	74		 DB	 116			; 00000074H
  00124	61		 DB	 97			; 00000061H
  00125	00		 DB	 0
?underflow@?$basic_filebuf@DU?$char_traits@D@std@@@std@@MAEHXZ ENDP ; std::basic_filebuf<char,std::char_traits<char> >::underflow
_TEXT	ENDS
PUBLIC	?erase@?$basic_string@DU?$char_traits@D@std@@V?$allocator@D@2@@std@@QAEAAV12@II@Z ; std::basic_string<char,std::char_traits<char>,std::allocator<char> >::erase
PUBLIC	??0?$basic_string@DU?$char_traits@D@std@@V?$allocator@D@2@@std@@QAE@XZ ; std::basic_string<char,std::char_traits<char>,std::allocator<char> >::basic_string<char,std::char_traits<char>,std::allocator<char> >
PUBLIC	??$_Fgetc@D@std@@YA_NAADPAU_iobuf@@@Z		; std::_Fgetc<char>
PUBLIC	__$ArrayPad$
EXTRN	__imp__memcpy_s:PROC
EXTRN	__imp_?in@?$codecvt@DDH@std@@QBEHAAHPBD1AAPBDPAD3AAPAD@Z:PROC
EXTRN	__imp__fgetc:PROC
EXTRN	__imp_?_Gninc@?$basic_streambuf@DU?$char_traits@D@std@@@std@@IAEPADXZ:PROC
;	COMDAT xdata$x
xdata$x	SEGMENT
__ehfuncinfo$?uflow@?$basic_filebuf@DU?$char_traits@D@std@@@std@@MAEHXZ DD 019930522H
	DD	06H
	DD	FLAT:__unwindtable$?uflow@?$basic_filebuf@DU?$char_traits@D@std@@@std@@MAEHXZ
	DD	2 DUP(00H)
	DD	2 DUP(00H)
	DD	00H
	DD	01H
__unwindtable$?uflow@?$basic_filebuf@DU?$char_traits@D@std@@@std@@MAEHXZ DD 0ffffffffH
	DD	FLAT:__unwindfunclet$?uflow@?$basic_filebuf@DU?$char_traits@D@std@@@std@@MAEHXZ$0
	DD	00H
	DD	FLAT:__unwindfunclet$?uflow@?$basic_filebuf@DU?$char_traits@D@std@@@std@@MAEHXZ$1
	DD	01H
	DD	FLAT:__unwindfunclet$?uflow@?$basic_filebuf@DU?$char_traits@D@std@@@std@@MAEHXZ$2
	DD	00H
	DD	FLAT:__unwindfunclet$?uflow@?$basic_filebuf@DU?$char_traits@D@std@@@std@@MAEHXZ$3
	DD	00H
	DD	FLAT:__unwindfunclet$?uflow@?$basic_filebuf@DU?$char_traits@D@std@@@std@@MAEHXZ$4
	DD	00H
	DD	FLAT:__unwindfunclet$?uflow@?$basic_filebuf@DU?$char_traits@D@std@@@std@@MAEHXZ$5
; Function compile flags: /Odtp /RTCsu /ZI
xdata$x	ENDS
;	COMDAT ?uflow@?$basic_filebuf@DU?$char_traits@D@std@@@std@@MAEHXZ
_TEXT	SEGMENT
tv180 = -512						; size = 4
tv238 = -508						; size = 4
tv248 = -504						; size = 4
tv245 = -500						; size = 4
tv243 = -500						; size = 4
tv240 = -500						; size = 4
tv236 = -500						; size = 4
tv251 = -496						; size = 4
tv250 = -496						; size = 4
tv249 = -496						; size = 4
tv141 = -496						; size = 4
tv139 = -496						; size = 4
$T173892 = -488						; size = 4
$T173893 = -476						; size = 4
$T173894 = -464						; size = 12
$T173895 = -444						; size = 12
$T173896 = -424						; size = 12
$T173897 = -404						; size = 4
$T173898 = -392						; size = 12
$T173899 = -372						; size = 12
$T173900 = -352						; size = 4
$T173901 = -340						; size = 4
__Meta$160983 = -136					; size = 4
__Nleft$160982 = -124					; size = 4
__Src$160981 = -112					; size = 4
__Dest$160980 = -100					; size = 4
__Ch$160979 = -85					; size = 1
__Str$160975 = -76					; size = 32
__Ch$160973 = -33					; size = 1
_this$ = -24						; size = 4
__$ArrayPad$ = -16					; size = 4
__$EHRec$ = -12						; size = 12
?uflow@?$basic_filebuf@DU?$char_traits@D@std@@@std@@MAEHXZ PROC ; std::basic_filebuf<char,std::char_traits<char> >::uflow, COMDAT
; _this$ = ecx

; 423  : 		{	// get an element from stream, point past it

  00000	55		 push	 ebp
  00001	8b ec		 mov	 ebp, esp
  00003	6a ff		 push	 -1
  00005	68 00 00 00 00	 push	 __ehhandler$?uflow@?$basic_filebuf@DU?$char_traits@D@std@@@std@@MAEHXZ
  0000a	64 a1 00 00 00
	00		 mov	 eax, DWORD PTR fs:0
  00010	50		 push	 eax
  00011	81 ec f4 01 00
	00		 sub	 esp, 500		; 000001f4H
  00017	53		 push	 ebx
  00018	56		 push	 esi
  00019	57		 push	 edi
  0001a	51		 push	 ecx
  0001b	8d bd 00 fe ff
	ff		 lea	 edi, DWORD PTR [ebp-512]
  00021	b9 7d 00 00 00	 mov	 ecx, 125		; 0000007dH
  00026	b8 cc cc cc cc	 mov	 eax, -858993460		; ccccccccH
  0002b	f3 ab		 rep stosd
  0002d	59		 pop	 ecx
  0002e	a1 00 00 00 00	 mov	 eax, DWORD PTR ___security_cookie
  00033	33 c5		 xor	 eax, ebp
  00035	89 45 f0	 mov	 DWORD PTR __$ArrayPad$[ebp], eax
  00038	50		 push	 eax
  00039	8d 45 f4	 lea	 eax, DWORD PTR __$EHRec$[ebp]
  0003c	64 a3 00 00 00
	00		 mov	 DWORD PTR fs:0, eax
  00042	89 4d e8	 mov	 DWORD PTR _this$[ebp], ecx

; 424  : 		if (_Mysb::gptr() != 0
; 425  : 			&& _Mysb::gptr() < _Mysb::egptr())

  00045	8b f4		 mov	 esi, esp
  00047	8b 4d e8	 mov	 ecx, DWORD PTR _this$[ebp]
  0004a	ff 15 00 00 00
	00		 call	 DWORD PTR __imp_?gptr@?$basic_streambuf@DU?$char_traits@D@std@@@std@@IBEPADXZ
  00050	3b f4		 cmp	 esi, esp
  00052	e8 00 00 00 00	 call	 __RTC_CheckEsp
  00057	85 c0		 test	 eax, eax
  00059	74 4c		 je	 SHORT $LN18@uflow
  0005b	8b f4		 mov	 esi, esp
  0005d	8b 4d e8	 mov	 ecx, DWORD PTR _this$[ebp]
  00060	ff 15 00 00 00
	00		 call	 DWORD PTR __imp_?gptr@?$basic_streambuf@DU?$char_traits@D@std@@@std@@IBEPADXZ
  00066	3b f4		 cmp	 esi, esp
  00068	e8 00 00 00 00	 call	 __RTC_CheckEsp
  0006d	8b f0		 mov	 esi, eax
  0006f	8b fc		 mov	 edi, esp
  00071	8b 4d e8	 mov	 ecx, DWORD PTR _this$[ebp]
  00074	ff 15 00 00 00
	00		 call	 DWORD PTR __imp_?egptr@?$basic_streambuf@DU?$char_traits@D@std@@@std@@IBEPADXZ
  0007a	3b fc		 cmp	 edi, esp
  0007c	e8 00 00 00 00	 call	 __RTC_CheckEsp
  00081	3b f0		 cmp	 esi, eax
  00083	73 22		 jae	 SHORT $LN18@uflow

; 426  : 			return (_Traits::to_int_type(
; 427  : 				*_Mysb::_Gninc()));	// return buffered

  00085	8b f4		 mov	 esi, esp
  00087	8b 4d e8	 mov	 ecx, DWORD PTR _this$[ebp]
  0008a	ff 15 00 00 00
	00		 call	 DWORD PTR __imp_?_Gninc@?$basic_streambuf@DU?$char_traits@D@std@@@std@@IAEPADXZ
  00090	3b f4		 cmp	 esi, esp
  00092	e8 00 00 00 00	 call	 __RTC_CheckEsp
  00097	50		 push	 eax
  00098	e8 00 00 00 00	 call	 ?to_int_type@?$char_traits@D@std@@SAHABD@Z ; std::char_traits<char>::to_int_type
  0009d	83 c4 04	 add	 esp, 4
  000a0	e9 b3 03 00 00	 jmp	 $LN19@uflow
  000a5	eb 13		 jmp	 SHORT $LN17@uflow
$LN18@uflow:

; 428  : 		else if (_Myfile == 0)

  000a7	8b 45 e8	 mov	 eax, DWORD PTR _this$[ebp]
  000aa	83 78 54 00	 cmp	 DWORD PTR [eax+84], 0
  000ae	75 0a		 jne	 SHORT $LN17@uflow

; 429  : 			return (_Traits::eof());	// no open C stream, fail

  000b0	e8 00 00 00 00	 call	 ?eof@?$char_traits@D@std@@SAHXZ ; std::char_traits<char>::eof
  000b5	e9 9e 03 00 00	 jmp	 $LN19@uflow
$LN17@uflow:

; 430  : 		_Reset_back();	// revert from _Mychar buffer

  000ba	8b 4d e8	 mov	 ecx, DWORD PTR _this$[ebp]
  000bd	e8 00 00 00 00	 call	 ?_Reset_back@?$basic_filebuf@DU?$char_traits@D@std@@@std@@AAEXXZ ; std::basic_filebuf<char,std::char_traits<char> >::_Reset_back

; 431  : 		if (_Pcvt == 0)

  000c2	8b 45 e8	 mov	 eax, DWORD PTR _this$[ebp]
  000c5	83 78 44 00	 cmp	 DWORD PTR [eax+68], 0
  000c9	75 4d		 jne	 SHORT $LN15@uflow

; 432  : 			{	// no codecvt facet, just get it
; 433  : 			_Elem _Ch = 0;

  000cb	c6 45 df 00	 mov	 BYTE PTR __Ch$160973[ebp], 0

; 434  : 			return (_Fgetc(_Ch, _Myfile) ? _Traits::to_int_type(_Ch)
; 435  : 				: _Traits::eof());

  000cf	8b 45 e8	 mov	 eax, DWORD PTR _this$[ebp]
  000d2	8b 48 54	 mov	 ecx, DWORD PTR [eax+84]
  000d5	51		 push	 ecx
  000d6	8d 55 df	 lea	 edx, DWORD PTR __Ch$160973[ebp]
  000d9	52		 push	 edx
  000da	e8 00 00 00 00	 call	 ??$_Fgetc@D@std@@YA_NAADPAU_iobuf@@@Z ; std::_Fgetc<char>
  000df	83 c4 08	 add	 esp, 8
  000e2	0f b6 c0	 movzx	 eax, al
  000e5	85 c0		 test	 eax, eax
  000e7	74 14		 je	 SHORT $LN21@uflow
  000e9	8d 4d df	 lea	 ecx, DWORD PTR __Ch$160973[ebp]
  000ec	51		 push	 ecx
  000ed	e8 00 00 00 00	 call	 ?to_int_type@?$char_traits@D@std@@SAHABD@Z ; std::char_traits<char>::to_int_type
  000f2	83 c4 04	 add	 esp, 4
  000f5	89 85 10 fe ff
	ff		 mov	 DWORD PTR tv139[ebp], eax
  000fb	eb 0b		 jmp	 SHORT $LN22@uflow
$LN21@uflow:
  000fd	e8 00 00 00 00	 call	 ?eof@?$char_traits@D@std@@SAHXZ ; std::char_traits<char>::eof
  00102	89 85 10 fe ff
	ff		 mov	 DWORD PTR tv139[ebp], eax
$LN22@uflow:
  00108	8b 85 10 fe ff
	ff		 mov	 eax, DWORD PTR tv139[ebp]
  0010e	e9 45 03 00 00	 jmp	 $LN19@uflow

; 436  : 			}
; 437  : 		else

  00113	e9 40 03 00 00	 jmp	 $LN19@uflow
$LN15@uflow:

; 438  : 			{	// build string until codecvt succeeds
; 439  : 			string _Str;

  00118	8d 4d b4	 lea	 ecx, DWORD PTR __Str$160975[ebp]
  0011b	e8 00 00 00 00	 call	 ??0?$basic_string@DU?$char_traits@D@std@@V?$allocator@D@2@@std@@QAE@XZ ; std::basic_string<char,std::char_traits<char>,std::allocator<char> >::basic_string<char,std::char_traits<char>,std::allocator<char> >
  00120	c7 45 fc 00 00
	00 00		 mov	 DWORD PTR __$EHRec$[ebp+8], 0
$LN13@uflow:

; 440  : 
; 441  : 			for (; ; )
; 442  : 				{	// get using codecvt facet
; 443  : 				_Elem _Ch, *_Dest;
; 444  : 				const char *_Src;
; 445  : 				int _Nleft;
; 446  : 				int _Meta = fgetc(_Myfile);

  00127	8b f4		 mov	 esi, esp
  00129	8b 45 e8	 mov	 eax, DWORD PTR _this$[ebp]
  0012c	8b 48 54	 mov	 ecx, DWORD PTR [eax+84]
  0012f	51		 push	 ecx
  00130	ff 15 00 00 00
	00		 call	 DWORD PTR __imp__fgetc
  00136	83 c4 04	 add	 esp, 4
  00139	3b f4		 cmp	 esi, esp
  0013b	e8 00 00 00 00	 call	 __RTC_CheckEsp
  00140	89 85 78 ff ff
	ff		 mov	 DWORD PTR __Meta$160983[ebp], eax

; 447  : 
; 448  : 				if (_Meta == EOF)

  00146	83 bd 78 ff ff
	ff ff		 cmp	 DWORD PTR __Meta$160983[ebp], -1
  0014d	75 25		 jne	 SHORT $LN11@uflow

; 449  : 					return (_Traits::eof());	// partial char?

  0014f	e8 00 00 00 00	 call	 ?eof@?$char_traits@D@std@@SAHXZ ; std::char_traits<char>::eof
  00154	89 85 18 fe ff
	ff		 mov	 DWORD PTR $T173892[ebp], eax
  0015a	c7 45 fc ff ff
	ff ff		 mov	 DWORD PTR __$EHRec$[ebp+8], -1
  00161	8d 4d b4	 lea	 ecx, DWORD PTR __Str$160975[ebp]
  00164	e8 00 00 00 00	 call	 ??1?$basic_string@DU?$char_traits@D@std@@V?$allocator@D@2@@std@@QAE@XZ ; std::basic_string<char,std::char_traits<char>,std::allocator<char> >::~basic_string<char,std::char_traits<char>,std::allocator<char> >
  00169	8b 85 18 fe ff
	ff		 mov	 eax, DWORD PTR $T173892[ebp]
  0016f	e9 e4 02 00 00	 jmp	 $LN19@uflow
$LN11@uflow:

; 450  : 
; 451  : 				_Str.append(1, (char)_Meta);	// append byte and convert

  00174	0f b6 85 78 ff
	ff ff		 movzx	 eax, BYTE PTR __Meta$160983[ebp]
  0017b	50		 push	 eax
  0017c	6a 01		 push	 1
  0017e	8d 4d b4	 lea	 ecx, DWORD PTR __Str$160975[ebp]
  00181	e8 00 00 00 00	 call	 ?append@?$basic_string@DU?$char_traits@D@std@@V?$allocator@D@2@@std@@QAEAAV12@ID@Z ; std::basic_string<char,std::char_traits<char>,std::allocator<char> >::append

; 452  : 				switch (_Pcvt->in(_State,
; 453  : 					&*_Str.begin(), &*_Str.begin() + _Str.size(), _Src,
; 454  : 					&_Ch, &_Ch + 1, _Dest))

  00186	8b f4		 mov	 esi, esp
  00188	8d 45 9c	 lea	 eax, DWORD PTR __Dest$160980[ebp]
  0018b	50		 push	 eax
  0018c	8d 4d ac	 lea	 ecx, DWORD PTR __Ch$160979[ebp+1]
  0018f	51		 push	 ecx
  00190	8d 55 ab	 lea	 edx, DWORD PTR __Ch$160979[ebp]
  00193	52		 push	 edx
  00194	8d 45 90	 lea	 eax, DWORD PTR __Src$160981[ebp]
  00197	50		 push	 eax
  00198	8d 8d 30 fe ff
	ff		 lea	 ecx, DWORD PTR $T173894[ebp]
  0019e	51		 push	 ecx
  0019f	8d 4d b4	 lea	 ecx, DWORD PTR __Str$160975[ebp]
  001a2	e8 00 00 00 00	 call	 ?begin@?$basic_string@DU?$char_traits@D@std@@V?$allocator@D@2@@std@@QAE?AV?$_String_iterator@DU?$char_traits@D@std@@V?$allocator@D@2@@2@XZ ; std::basic_string<char,std::char_traits<char>,std::allocator<char> >::begin
  001a7	89 85 10 fe ff
	ff		 mov	 DWORD PTR tv141[ebp], eax
  001ad	8b 95 10 fe ff
	ff		 mov	 edx, DWORD PTR tv141[ebp]
  001b3	89 95 0c fe ff
	ff		 mov	 DWORD PTR tv236[ebp], edx
  001b9	c6 45 fc 01	 mov	 BYTE PTR __$EHRec$[ebp+8], 1
  001bd	8b 8d 0c fe ff
	ff		 mov	 ecx, DWORD PTR tv236[ebp]
  001c3	e8 00 00 00 00	 call	 ??D?$_String_iterator@DU?$char_traits@D@std@@V?$allocator@D@2@@std@@QBEAADXZ ; std::_String_iterator<char,std::char_traits<char>,std::allocator<char> >::operator*
  001c8	8b f8		 mov	 edi, eax
  001ca	8d 4d b4	 lea	 ecx, DWORD PTR __Str$160975[ebp]
  001cd	e8 00 00 00 00	 call	 ?size@?$basic_string@DU?$char_traits@D@std@@V?$allocator@D@2@@std@@QBEIXZ ; std::basic_string<char,std::char_traits<char>,std::allocator<char> >::size
  001d2	03 f8		 add	 edi, eax
  001d4	57		 push	 edi
  001d5	8d 85 44 fe ff
	ff		 lea	 eax, DWORD PTR $T173895[ebp]
  001db	50		 push	 eax
  001dc	8d 4d b4	 lea	 ecx, DWORD PTR __Str$160975[ebp]
  001df	e8 00 00 00 00	 call	 ?begin@?$basic_string@DU?$char_traits@D@std@@V?$allocator@D@2@@std@@QAE?AV?$_String_iterator@DU?$char_traits@D@std@@V?$allocator@D@2@@2@XZ ; std::basic_string<char,std::char_traits<char>,std::allocator<char> >::begin
  001e4	89 85 08 fe ff
	ff		 mov	 DWORD PTR tv248[ebp], eax
  001ea	8b 8d 08 fe ff
	ff		 mov	 ecx, DWORD PTR tv248[ebp]
  001f0	89 8d 04 fe ff
	ff		 mov	 DWORD PTR tv238[ebp], ecx
  001f6	c6 45 fc 02	 mov	 BYTE PTR __$EHRec$[ebp+8], 2
  001fa	8b 8d 04 fe ff
	ff		 mov	 ecx, DWORD PTR tv238[ebp]
  00200	e8 00 00 00 00	 call	 ??D?$_String_iterator@DU?$char_traits@D@std@@V?$allocator@D@2@@std@@QBEAADXZ ; std::_String_iterator<char,std::char_traits<char>,std::allocator<char> >::operator*
  00205	50		 push	 eax
  00206	8b 55 e8	 mov	 edx, DWORD PTR _this$[ebp]
  00209	83 c2 4c	 add	 edx, 76			; 0000004cH
  0020c	52		 push	 edx
  0020d	8b 45 e8	 mov	 eax, DWORD PTR _this$[ebp]
  00210	8b 48 44	 mov	 ecx, DWORD PTR [eax+68]
  00213	ff 15 00 00 00
	00		 call	 DWORD PTR __imp_?in@?$codecvt@DDH@std@@QBEHAAHPBD1AAPBDPAD3AAPAD@Z
  00219	3b f4		 cmp	 esi, esp
  0021b	e8 00 00 00 00	 call	 __RTC_CheckEsp
  00220	89 85 24 fe ff
	ff		 mov	 DWORD PTR $T173893[ebp], eax
  00226	c6 45 fc 01	 mov	 BYTE PTR __$EHRec$[ebp+8], 1
  0022a	8d 8d 44 fe ff
	ff		 lea	 ecx, DWORD PTR $T173895[ebp]
  00230	e8 00 00 00 00	 call	 ??1?$_String_iterator@DU?$char_traits@D@std@@V?$allocator@D@2@@std@@QAE@XZ
  00235	c6 45 fc 00	 mov	 BYTE PTR __$EHRec$[ebp+8], 0
  00239	8d 8d 30 fe ff
	ff		 lea	 ecx, DWORD PTR $T173894[ebp]
  0023f	e8 00 00 00 00	 call	 ??1?$_String_iterator@DU?$char_traits@D@std@@V?$allocator@D@2@@std@@QAE@XZ
  00244	8b 8d 24 fe ff
	ff		 mov	 ecx, DWORD PTR $T173893[ebp]
  0024a	89 8d 00 fe ff
	ff		 mov	 DWORD PTR tv180[ebp], ecx
  00250	83 bd 00 fe ff
	ff 00		 cmp	 DWORD PTR tv180[ebp], 0
  00257	0f 8c c5 01 00
	00		 jl	 $LN1@uflow
  0025d	83 bd 00 fe ff
	ff 01		 cmp	 DWORD PTR tv180[ebp], 1
  00264	7e 12		 jle	 SHORT $LN8@uflow
  00266	83 bd 00 fe ff
	ff 03		 cmp	 DWORD PTR tv180[ebp], 3
  0026d	0f 84 1a 01 00
	00		 je	 $LN3@uflow
  00273	e9 aa 01 00 00	 jmp	 $LN1@uflow
$LN8@uflow:

; 455  : 					{	// test result of converting one element
; 456  : 				case codecvt_base::partial:
; 457  : 				case codecvt_base::ok:
; 458  : 					if (_Dest != &_Ch)

  00278	8b 45 9c	 mov	 eax, DWORD PTR __Dest$160980[ebp]
  0027b	8d 4d ab	 lea	 ecx, DWORD PTR __Ch$160979[ebp]
  0027e	3b c1		 cmp	 eax, ecx
  00280	0f 84 b3 00 00
	00		 je	 $LN7@uflow

; 459  : 						{	// got an element, put back excess and deliver it
; 460  : 						_Nleft = (int)(&*_Str.begin() + _Str.size() - _Src);

  00286	8d 85 58 fe ff
	ff		 lea	 eax, DWORD PTR $T173896[ebp]
  0028c	50		 push	 eax
  0028d	8d 4d b4	 lea	 ecx, DWORD PTR __Str$160975[ebp]
  00290	e8 00 00 00 00	 call	 ?begin@?$basic_string@DU?$char_traits@D@std@@V?$allocator@D@2@@std@@QAE?AV?$_String_iterator@DU?$char_traits@D@std@@V?$allocator@D@2@@2@XZ ; std::basic_string<char,std::char_traits<char>,std::allocator<char> >::begin
  00295	89 85 10 fe ff
	ff		 mov	 DWORD PTR tv249[ebp], eax
  0029b	8b 8d 10 fe ff
	ff		 mov	 ecx, DWORD PTR tv249[ebp]
  002a1	89 8d 0c fe ff
	ff		 mov	 DWORD PTR tv240[ebp], ecx
  002a7	c6 45 fc 03	 mov	 BYTE PTR __$EHRec$[ebp+8], 3
  002ab	8b 8d 0c fe ff
	ff		 mov	 ecx, DWORD PTR tv240[ebp]
  002b1	e8 00 00 00 00	 call	 ??D?$_String_iterator@DU?$char_traits@D@std@@V?$allocator@D@2@@std@@QBEAADXZ ; std::_String_iterator<char,std::char_traits<char>,std::allocator<char> >::operator*
  002b6	8b f0		 mov	 esi, eax
  002b8	8d 4d b4	 lea	 ecx, DWORD PTR __Str$160975[ebp]
  002bb	e8 00 00 00 00	 call	 ?size@?$basic_string@DU?$char_traits@D@std@@V?$allocator@D@2@@std@@QBEIXZ ; std::basic_string<char,std::char_traits<char>,std::allocator<char> >::size
  002c0	03 f0		 add	 esi, eax
  002c2	2b 75 90	 sub	 esi, DWORD PTR __Src$160981[ebp]
  002c5	89 75 84	 mov	 DWORD PTR __Nleft$160982[ebp], esi
  002c8	c6 45 fc 00	 mov	 BYTE PTR __$EHRec$[ebp+8], 0
  002cc	8d 8d 58 fe ff
	ff		 lea	 ecx, DWORD PTR $T173896[ebp]
  002d2	e8 00 00 00 00	 call	 ??1?$_String_iterator@DU?$char_traits@D@std@@V?$allocator@D@2@@std@@QAE@XZ
$LN6@uflow:

; 461  : 						for (; 0 < _Nleft; )

  002d7	83 7d 84 00	 cmp	 DWORD PTR __Nleft$160982[ebp], 0
  002db	7e 2e		 jle	 SHORT $LN5@uflow

; 462  : 							ungetc(_Src[--_Nleft], _Myfile);

  002dd	8b 45 84	 mov	 eax, DWORD PTR __Nleft$160982[ebp]
  002e0	83 e8 01	 sub	 eax, 1
  002e3	89 45 84	 mov	 DWORD PTR __Nleft$160982[ebp], eax
  002e6	8b f4		 mov	 esi, esp
  002e8	8b 4d e8	 mov	 ecx, DWORD PTR _this$[ebp]
  002eb	8b 51 54	 mov	 edx, DWORD PTR [ecx+84]
  002ee	52		 push	 edx
  002ef	8b 45 90	 mov	 eax, DWORD PTR __Src$160981[ebp]
  002f2	03 45 84	 add	 eax, DWORD PTR __Nleft$160982[ebp]
  002f5	0f be 08	 movsx	 ecx, BYTE PTR [eax]
  002f8	51		 push	 ecx
  002f9	ff 15 00 00 00
	00		 call	 DWORD PTR __imp__ungetc
  002ff	83 c4 08	 add	 esp, 8
  00302	3b f4		 cmp	 esi, esp
  00304	e8 00 00 00 00	 call	 __RTC_CheckEsp
  00309	eb cc		 jmp	 SHORT $LN6@uflow
$LN5@uflow:

; 463  : 						return (_Traits::to_int_type(_Ch));

  0030b	8d 45 ab	 lea	 eax, DWORD PTR __Ch$160979[ebp]
  0030e	50		 push	 eax
  0030f	e8 00 00 00 00	 call	 ?to_int_type@?$char_traits@D@std@@SAHABD@Z ; std::char_traits<char>::to_int_type
  00314	83 c4 04	 add	 esp, 4
  00317	89 85 6c fe ff
	ff		 mov	 DWORD PTR $T173897[ebp], eax
  0031d	c7 45 fc ff ff
	ff ff		 mov	 DWORD PTR __$EHRec$[ebp+8], -1
  00324	8d 4d b4	 lea	 ecx, DWORD PTR __Str$160975[ebp]
  00327	e8 00 00 00 00	 call	 ??1?$basic_string@DU?$char_traits@D@std@@V?$allocator@D@2@@std@@QAE@XZ ; std::basic_string<char,std::char_traits<char>,std::allocator<char> >::~basic_string<char,std::char_traits<char>,std::allocator<char> >
  0032c	8b 85 6c fe ff
	ff		 mov	 eax, DWORD PTR $T173897[ebp]
  00332	e9 21 01 00 00	 jmp	 $LN19@uflow

; 464  : 						}
; 465  : 					else

  00337	eb 4f		 jmp	 SHORT $LN4@uflow
$LN7@uflow:

; 466  : 						_Str.erase((size_t)0,	// partial, discard used input
; 467  : 							(size_t)(_Src - &*_Str.begin()));

  00339	8d 85 78 fe ff
	ff		 lea	 eax, DWORD PTR $T173898[ebp]
  0033f	50		 push	 eax
  00340	8d 4d b4	 lea	 ecx, DWORD PTR __Str$160975[ebp]
  00343	e8 00 00 00 00	 call	 ?begin@?$basic_string@DU?$char_traits@D@std@@V?$allocator@D@2@@std@@QAE?AV?$_String_iterator@DU?$char_traits@D@std@@V?$allocator@D@2@@2@XZ ; std::basic_string<char,std::char_traits<char>,std::allocator<char> >::begin
  00348	89 85 10 fe ff
	ff		 mov	 DWORD PTR tv250[ebp], eax
  0034e	8b 8d 10 fe ff
	ff		 mov	 ecx, DWORD PTR tv250[ebp]
  00354	89 8d 0c fe ff
	ff		 mov	 DWORD PTR tv243[ebp], ecx
  0035a	c6 45 fc 04	 mov	 BYTE PTR __$EHRec$[ebp+8], 4
  0035e	8b 8d 0c fe ff
	ff		 mov	 ecx, DWORD PTR tv243[ebp]
  00364	e8 00 00 00 00	 call	 ??D?$_String_iterator@DU?$char_traits@D@std@@V?$allocator@D@2@@std@@QBEAADXZ ; std::_String_iterator<char,std::char_traits<char>,std::allocator<char> >::operator*
  00369	8b 55 90	 mov	 edx, DWORD PTR __Src$160981[ebp]
  0036c	2b d0		 sub	 edx, eax
  0036e	52		 push	 edx
  0036f	6a 00		 push	 0
  00371	8d 4d b4	 lea	 ecx, DWORD PTR __Str$160975[ebp]
  00374	e8 00 00 00 00	 call	 ?erase@?$basic_string@DU?$char_traits@D@std@@V?$allocator@D@2@@std@@QAEAAV12@II@Z ; std::basic_string<char,std::char_traits<char>,std::allocator<char> >::erase
  00379	c6 45 fc 00	 mov	 BYTE PTR __$EHRec$[ebp+8], 0
  0037d	8d 8d 78 fe ff
	ff		 lea	 ecx, DWORD PTR $T173898[ebp]
  00383	e8 00 00 00 00	 call	 ??1?$_String_iterator@DU?$char_traits@D@std@@V?$allocator@D@2@@std@@QAE@XZ
$LN4@uflow:

; 468  : 					break;

  00388	e9 b7 00 00 00	 jmp	 $LN9@uflow
$LN3@uflow:

; 469  : 
; 470  : 				case codecvt_base::noconv:
; 471  : 					if (_Str.size() < sizeof (_Elem))

  0038d	8d 4d b4	 lea	 ecx, DWORD PTR __Str$160975[ebp]
  00390	e8 00 00 00 00	 call	 ?size@?$basic_string@DU?$char_traits@D@std@@V?$allocator@D@2@@std@@QBEIXZ ; std::basic_string<char,std::char_traits<char>,std::allocator<char> >::size
  00395	83 f8 01	 cmp	 eax, 1
  00398	73 05		 jae	 SHORT $LN2@uflow

; 472  : 						break;	// no conversion, but need more chars

  0039a	e9 a5 00 00 00	 jmp	 $LN9@uflow
$LN2@uflow:

; 473  : 
; 474  : 					_CRT_SECURE_MEMCPY(&_Ch, sizeof (_Elem), &*_Str.begin(),

  0039f	8b f4		 mov	 esi, esp
  003a1	6a 01		 push	 1
  003a3	8d 85 8c fe ff
	ff		 lea	 eax, DWORD PTR $T173899[ebp]
  003a9	50		 push	 eax
  003aa	8d 4d b4	 lea	 ecx, DWORD PTR __Str$160975[ebp]
  003ad	e8 00 00 00 00	 call	 ?begin@?$basic_string@DU?$char_traits@D@std@@V?$allocator@D@2@@std@@QAE?AV?$_String_iterator@DU?$char_traits@D@std@@V?$allocator@D@2@@2@XZ ; std::basic_string<char,std::char_traits<char>,std::allocator<char> >::begin
  003b2	89 85 10 fe ff
	ff		 mov	 DWORD PTR tv251[ebp], eax
  003b8	8b 8d 10 fe ff
	ff		 mov	 ecx, DWORD PTR tv251[ebp]
  003be	89 8d 0c fe ff
	ff		 mov	 DWORD PTR tv245[ebp], ecx
  003c4	c6 45 fc 05	 mov	 BYTE PTR __$EHRec$[ebp+8], 5
  003c8	8b 8d 0c fe ff
	ff		 mov	 ecx, DWORD PTR tv245[ebp]
  003ce	e8 00 00 00 00	 call	 ??D?$_String_iterator@DU?$char_traits@D@std@@V?$allocator@D@2@@std@@QBEAADXZ ; std::_String_iterator<char,std::char_traits<char>,std::allocator<char> >::operator*
  003d3	50		 push	 eax
  003d4	6a 01		 push	 1
  003d6	8d 55 ab	 lea	 edx, DWORD PTR __Ch$160979[ebp]
  003d9	52		 push	 edx
  003da	ff 15 00 00 00
	00		 call	 DWORD PTR __imp__memcpy_s
  003e0	83 c4 10	 add	 esp, 16			; 00000010H
  003e3	3b f4		 cmp	 esi, esp
  003e5	e8 00 00 00 00	 call	 __RTC_CheckEsp
  003ea	c6 45 fc 00	 mov	 BYTE PTR __$EHRec$[ebp+8], 0
  003ee	8d 8d 8c fe ff
	ff		 lea	 ecx, DWORD PTR $T173899[ebp]
  003f4	e8 00 00 00 00	 call	 ??1?$_String_iterator@DU?$char_traits@D@std@@V?$allocator@D@2@@std@@QAE@XZ

; 475  : 						sizeof (_Elem));	// copy raw bytes to element
; 476  : 
; 477  : 					return (_Traits::to_int_type(_Ch));	// return result

  003f9	8d 45 ab	 lea	 eax, DWORD PTR __Ch$160979[ebp]
  003fc	50		 push	 eax
  003fd	e8 00 00 00 00	 call	 ?to_int_type@?$char_traits@D@std@@SAHABD@Z ; std::char_traits<char>::to_int_type
  00402	83 c4 04	 add	 esp, 4
  00405	89 85 a0 fe ff
	ff		 mov	 DWORD PTR $T173900[ebp], eax
  0040b	c7 45 fc ff ff
	ff ff		 mov	 DWORD PTR __$EHRec$[ebp+8], -1
  00412	8d 4d b4	 lea	 ecx, DWORD PTR __Str$160975[ebp]
  00415	e8 00 00 00 00	 call	 ??1?$basic_string@DU?$char_traits@D@std@@V?$allocator@D@2@@std@@QAE@XZ ; std::basic_string<char,std::char_traits<char>,std::allocator<char> >::~basic_string<char,std::char_traits<char>,std::allocator<char> >
  0041a	8b 85 a0 fe ff
	ff		 mov	 eax, DWORD PTR $T173900[ebp]
  00420	eb 36		 jmp	 SHORT $LN19@uflow
$LN1@uflow:

; 478  : 
; 479  : 				default:
; 480  : 					return (_Traits::eof());	// conversion failed

  00422	e8 00 00 00 00	 call	 ?eof@?$char_traits@D@std@@SAHXZ ; std::char_traits<char>::eof
  00427	89 85 ac fe ff
	ff		 mov	 DWORD PTR $T173901[ebp], eax
  0042d	c7 45 fc ff ff
	ff ff		 mov	 DWORD PTR __$EHRec$[ebp+8], -1
  00434	8d 4d b4	 lea	 ecx, DWORD PTR __Str$160975[ebp]
  00437	e8 00 00 00 00	 call	 ??1?$basic_string@DU?$char_traits@D@std@@V?$allocator@D@2@@std@@QAE@XZ ; std::basic_string<char,std::char_traits<char>,std::allocator<char> >::~basic_string<char,std::char_traits<char>,std::allocator<char> >
  0043c	8b 85 ac fe ff
	ff		 mov	 eax, DWORD PTR $T173901[ebp]
  00442	eb 14		 jmp	 SHORT $LN19@uflow
$LN9@uflow:

; 481  : 					}
; 482  : 				}

  00444	e9 de fc ff ff	 jmp	 $LN13@uflow

; 483  : 			}

  00449	c7 45 fc ff ff
	ff ff		 mov	 DWORD PTR __$EHRec$[ebp+8], -1
  00450	8d 4d b4	 lea	 ecx, DWORD PTR __Str$160975[ebp]
  00453	e8 00 00 00 00	 call	 ??1?$basic_string@DU?$char_traits@D@std@@V?$allocator@D@2@@std@@QAE@XZ ; std::basic_string<char,std::char_traits<char>,std::allocator<char> >::~basic_string<char,std::char_traits<char>,std::allocator<char> >
$LN19@uflow:

; 484  : 		}

  00458	52		 push	 edx
  00459	8b cd		 mov	 ecx, ebp
  0045b	50		 push	 eax
  0045c	8d 15 00 00 00
	00		 lea	 edx, DWORD PTR $LN36@uflow
  00462	e8 00 00 00 00	 call	 @_RTC_CheckStackVars@8
  00467	58		 pop	 eax
  00468	5a		 pop	 edx
  00469	8b 4d f4	 mov	 ecx, DWORD PTR __$EHRec$[ebp]
  0046c	64 89 0d 00 00
	00 00		 mov	 DWORD PTR fs:0, ecx
  00473	59		 pop	 ecx
  00474	5f		 pop	 edi
  00475	5e		 pop	 esi
  00476	5b		 pop	 ebx
  00477	8b 4d f0	 mov	 ecx, DWORD PTR __$ArrayPad$[ebp]
  0047a	33 cd		 xor	 ecx, ebp
  0047c	e8 00 00 00 00	 call	 @__security_check_cookie@4
  00481	81 c4 00 02 00
	00		 add	 esp, 512		; 00000200H
  00487	3b ec		 cmp	 ebp, esp
  00489	e8 00 00 00 00	 call	 __RTC_CheckEsp
  0048e	8b e5		 mov	 esp, ebp
  00490	5d		 pop	 ebp
  00491	c3		 ret	 0
  00492	8b ff		 npad	 2
$LN36@uflow:
  00494	05 00 00 00	 DD	 5
  00498	00 00 00 00	 DD	 $LN35@uflow
$LN35@uflow:
  0049c	df ff ff ff	 DD	 -33			; ffffffdfH
  004a0	01 00 00 00	 DD	 1
  004a4	00 00 00 00	 DD	 $LN29@uflow
  004a8	b4 ff ff ff	 DD	 -76			; ffffffb4H
  004ac	20 00 00 00	 DD	 32			; 00000020H
  004b0	00 00 00 00	 DD	 $LN30@uflow
  004b4	ab ff ff ff	 DD	 -85			; ffffffabH
  004b8	01 00 00 00	 DD	 1
  004bc	00 00 00 00	 DD	 $LN31@uflow
  004c0	9c ff ff ff	 DD	 -100			; ffffff9cH
  004c4	04 00 00 00	 DD	 4
  004c8	00 00 00 00	 DD	 $LN32@uflow
  004cc	90 ff ff ff	 DD	 -112			; ffffff90H
  004d0	04 00 00 00	 DD	 4
  004d4	00 00 00 00	 DD	 $LN33@uflow
$LN33@uflow:
  004d8	5f		 DB	 95			; 0000005fH
  004d9	53		 DB	 83			; 00000053H
  004da	72		 DB	 114			; 00000072H
  004db	63		 DB	 99			; 00000063H
  004dc	00		 DB	 0
$LN32@uflow:
  004dd	5f		 DB	 95			; 0000005fH
  004de	44		 DB	 68			; 00000044H
  004df	65		 DB	 101			; 00000065H
  004e0	73		 DB	 115			; 00000073H
  004e1	74		 DB	 116			; 00000074H
  004e2	00		 DB	 0
$LN31@uflow:
  004e3	5f		 DB	 95			; 0000005fH
  004e4	43		 DB	 67			; 00000043H
  004e5	68		 DB	 104			; 00000068H
  004e6	00		 DB	 0
$LN30@uflow:
  004e7	5f		 DB	 95			; 0000005fH
  004e8	53		 DB	 83			; 00000053H
  004e9	74		 DB	 116			; 00000074H
  004ea	72		 DB	 114			; 00000072H
  004eb	00		 DB	 0
$LN29@uflow:
  004ec	5f		 DB	 95			; 0000005fH
  004ed	43		 DB	 67			; 00000043H
  004ee	68		 DB	 104			; 00000068H
  004ef	00		 DB	 0
_TEXT	ENDS
;	COMDAT text$x
text$x	SEGMENT
__unwindfunclet$?uflow@?$basic_filebuf@DU?$char_traits@D@std@@@std@@MAEHXZ$0:
  00000	8d 4d b4	 lea	 ecx, DWORD PTR __Str$160975[ebp]
  00003	e9 00 00 00 00	 jmp	 ??1?$basic_string@DU?$char_traits@D@std@@V?$allocator@D@2@@std@@QAE@XZ ; std::basic_string<char,std::char_traits<char>,std::allocator<char> >::~basic_string<char,std::char_traits<char>,std::allocator<char> >
__unwindfunclet$?uflow@?$basic_filebuf@DU?$char_traits@D@std@@@std@@MAEHXZ$1:
  00008	8d 8d 30 fe ff
	ff		 lea	 ecx, DWORD PTR $T173894[ebp]
  0000e	e9 00 00 00 00	 jmp	 ??1?$_String_iterator@DU?$char_traits@D@std@@V?$allocator@D@2@@std@@QAE@XZ
__unwindfunclet$?uflow@?$basic_filebuf@DU?$char_traits@D@std@@@std@@MAEHXZ$2:
  00013	8d 8d 44 fe ff
	ff		 lea	 ecx, DWORD PTR $T173895[ebp]
  00019	e9 00 00 00 00	 jmp	 ??1?$_String_iterator@DU?$char_traits@D@std@@V?$allocator@D@2@@std@@QAE@XZ
__unwindfunclet$?uflow@?$basic_filebuf@DU?$char_traits@D@std@@@std@@MAEHXZ$3:
  0001e	8d 8d 58 fe ff
	ff		 lea	 ecx, DWORD PTR $T173896[ebp]
  00024	e9 00 00 00 00	 jmp	 ??1?$_String_iterator@DU?$char_traits@D@std@@V?$allocator@D@2@@std@@QAE@XZ
__unwindfunclet$?uflow@?$basic_filebuf@DU?$char_traits@D@std@@@std@@MAEHXZ$4:
  00029	8d 8d 78 fe ff
	ff		 lea	 ecx, DWORD PTR $T173898[ebp]
  0002f	e9 00 00 00 00	 jmp	 ??1?$_String_iterator@DU?$char_traits@D@std@@V?$allocator@D@2@@std@@QAE@XZ
__unwindfunclet$?uflow@?$basic_filebuf@DU?$char_traits@D@std@@@std@@MAEHXZ$5:
  00034	8d 8d 8c fe ff
	ff		 lea	 ecx, DWORD PTR $T173899[ebp]
  0003a	e9 00 00 00 00	 jmp	 ??1?$_String_iterator@DU?$char_traits@D@std@@V?$allocator@D@2@@std@@QAE@XZ
__ehhandler$?uflow@?$basic_filebuf@DU?$char_traits@D@std@@@std@@MAEHXZ:
  0003f	8b 54 24 08	 mov	 edx, DWORD PTR [esp+8]
  00043	8d 42 0c	 lea	 eax, DWORD PTR [edx+12]
  00046	8b 8a fc fd ff
	ff		 mov	 ecx, DWORD PTR [edx-516]
  0004c	33 c8		 xor	 ecx, eax
  0004e	e8 00 00 00 00	 call	 @__security_check_cookie@4
  00053	8b 4a fc	 mov	 ecx, DWORD PTR [edx-4]
  00056	33 c8		 xor	 ecx, eax
  00058	e8 00 00 00 00	 call	 @__security_check_cookie@4
  0005d	b8 00 00 00 00	 mov	 eax, OFFSET __ehfuncinfo$?uflow@?$basic_filebuf@DU?$char_traits@D@std@@@std@@MAEHXZ
  00062	e9 00 00 00 00	 jmp	 ___CxxFrameHandler3
text$x	ENDS
?uflow@?$basic_filebuf@DU?$char_traits@D@std@@@std@@MAEHXZ ENDP ; std::basic_filebuf<char,std::char_traits<char> >::uflow
; Function compile flags: /Odtp /RTCsu /ZI
;	COMDAT ??$_Fgetc@D@std@@YA_NAADPAU_iobuf@@@Z
_TEXT	SEGMENT
__Meta$ = -8						; size = 4
__Byte$ = 8						; size = 4
__File$ = 12						; size = 4
??$_Fgetc@D@std@@YA_NAADPAU_iobuf@@@Z PROC		; std::_Fgetc<char>, COMDAT

; 35   : 	{	// get a char element from a C stream

  00000	55		 push	 ebp
  00001	8b ec		 mov	 ebp, esp
  00003	81 ec cc 00 00
	00		 sub	 esp, 204		; 000000ccH
  00009	53		 push	 ebx
  0000a	56		 push	 esi
  0000b	57		 push	 edi
  0000c	8d bd 34 ff ff
	ff		 lea	 edi, DWORD PTR [ebp-204]
  00012	b9 33 00 00 00	 mov	 ecx, 51			; 00000033H
  00017	b8 cc cc cc cc	 mov	 eax, -858993460		; ccccccccH
  0001c	f3 ab		 rep stosd

; 36   : 	int _Meta;
; 37   : 	if ((_Meta = fgetc(_File)) == EOF)

  0001e	8b f4		 mov	 esi, esp
  00020	8b 45 0c	 mov	 eax, DWORD PTR __File$[ebp]
  00023	50		 push	 eax
  00024	ff 15 00 00 00
	00		 call	 DWORD PTR __imp__fgetc
  0002a	83 c4 04	 add	 esp, 4
  0002d	3b f4		 cmp	 esi, esp
  0002f	e8 00 00 00 00	 call	 __RTC_CheckEsp
  00034	89 45 f8	 mov	 DWORD PTR __Meta$[ebp], eax
  00037	83 7d f8 ff	 cmp	 DWORD PTR __Meta$[ebp], -1
  0003b	75 06		 jne	 SHORT $LN2@Fgetc

; 38   : 		return (false);

  0003d	32 c0		 xor	 al, al
  0003f	eb 0c		 jmp	 SHORT $LN3@Fgetc

; 39   : 	else

  00041	eb 0a		 jmp	 SHORT $LN3@Fgetc
$LN2@Fgetc:

; 40   : 		{	// got one, convert to char
; 41   : 		_Byte = (char)_Meta;

  00043	8b 45 08	 mov	 eax, DWORD PTR __Byte$[ebp]
  00046	8a 4d f8	 mov	 cl, BYTE PTR __Meta$[ebp]
  00049	88 08		 mov	 BYTE PTR [eax], cl

; 42   : 		return (true);

  0004b	b0 01		 mov	 al, 1
$LN3@Fgetc:

; 43   : 		}
; 44   : 	}

  0004d	5f		 pop	 edi
  0004e	5e		 pop	 esi
  0004f	5b		 pop	 ebx
  00050	81 c4 cc 00 00
	00		 add	 esp, 204		; 000000ccH
  00056	3b ec		 cmp	 ebp, esp
  00058	e8 00 00 00 00	 call	 __RTC_CheckEsp
  0005d	8b e5		 mov	 esp, ebp
  0005f	5d		 pop	 ebp
  00060	c3		 ret	 0
??$_Fgetc@D@std@@YA_NAADPAU_iobuf@@@Z ENDP		; std::_Fgetc<char>
_TEXT	ENDS
PUBLIC	??0?$_String_val@DV?$allocator@D@std@@@std@@QAE@V?$allocator@D@1@@Z ; std::_String_val<char,std::allocator<char> >::_String_val<char,std::allocator<char> >
PUBLIC	??0?$allocator@D@std@@QAE@XZ			; std::allocator<char>::allocator<char>
;	COMDAT xdata$x
; File c:\program files (x86)\microsoft visual studio 10.0\vc\include\xstring
xdata$x	SEGMENT
__unwindtable$??0?$basic_string@DU?$char_traits@D@std@@V?$allocator@D@2@@std@@QAE@XZ DD 0ffffffffH
	DD	FLAT:__unwindfunclet$??0?$basic_string@DU?$char_traits@D@std@@V?$allocator@D@2@@std@@QAE@XZ$0
__ehfuncinfo$??0?$basic_string@DU?$char_traits@D@std@@V?$allocator@D@2@@std@@QAE@XZ DD 019930522H
	DD	01H
	DD	FLAT:__unwindtable$??0?$basic_string@DU?$char_traits@D@std@@V?$allocator@D@2@@std@@QAE@XZ
	DD	2 DUP(00H)
	DD	2 DUP(00H)
	DD	00H
	DD	01H
; Function compile flags: /Odtp /RTCsu /ZI
xdata$x	ENDS
;	COMDAT ??0?$basic_string@DU?$char_traits@D@std@@V?$allocator@D@2@@std@@QAE@XZ
_TEXT	SEGMENT
$T173925 = -224						; size = 4
_this$ = -20						; size = 4
__$EHRec$ = -12						; size = 12
??0?$basic_string@DU?$char_traits@D@std@@V?$allocator@D@2@@std@@QAE@XZ PROC ; std::basic_string<char,std::char_traits<char>,std::allocator<char> >::basic_string<char,std::char_traits<char>,std::allocator<char> >, COMDAT
; _this$ = ecx

; 550  : 		{	// construct empty string

  00000	55		 push	 ebp
  00001	8b ec		 mov	 ebp, esp
  00003	6a ff		 push	 -1
  00005	68 00 00 00 00	 push	 __ehhandler$??0?$basic_string@DU?$char_traits@D@std@@V?$allocator@D@2@@std@@QAE@XZ
  0000a	64 a1 00 00 00
	00		 mov	 eax, DWORD PTR fs:0
  00010	50		 push	 eax
  00011	81 ec d8 00 00
	00		 sub	 esp, 216		; 000000d8H
  00017	53		 push	 ebx
  00018	56		 push	 esi
  00019	57		 push	 edi
  0001a	51		 push	 ecx
  0001b	8d bd 1c ff ff
	ff		 lea	 edi, DWORD PTR [ebp-228]
  00021	b9 36 00 00 00	 mov	 ecx, 54			; 00000036H
  00026	b8 cc cc cc cc	 mov	 eax, -858993460		; ccccccccH
  0002b	f3 ab		 rep stosd
  0002d	59		 pop	 ecx
  0002e	a1 00 00 00 00	 mov	 eax, DWORD PTR ___security_cookie
  00033	33 c5		 xor	 eax, ebp
  00035	50		 push	 eax
  00036	8d 45 f4	 lea	 eax, DWORD PTR __$EHRec$[ebp]
  00039	64 a3 00 00 00
	00		 mov	 DWORD PTR fs:0, eax
  0003f	89 4d ec	 mov	 DWORD PTR _this$[ebp], ecx
  00042	51		 push	 ecx
  00043	8b cc		 mov	 ecx, esp
  00045	89 a5 20 ff ff
	ff		 mov	 DWORD PTR $T173925[ebp], esp
  0004b	e8 00 00 00 00	 call	 ??0?$allocator@D@std@@QAE@XZ ; std::allocator<char>::allocator<char>
  00050	8b 4d ec	 mov	 ecx, DWORD PTR _this$[ebp]
  00053	e8 00 00 00 00	 call	 ??0?$_String_val@DV?$allocator@D@std@@@std@@QAE@V?$allocator@D@1@@Z ; std::_String_val<char,std::allocator<char> >::_String_val<char,std::allocator<char> >
  00058	c7 45 fc 00 00
	00 00		 mov	 DWORD PTR __$EHRec$[ebp+8], 0

; 551  : 		_Tidy();

  0005f	6a 00		 push	 0
  00061	6a 00		 push	 0
  00063	8b 4d ec	 mov	 ecx, DWORD PTR _this$[ebp]
  00066	e8 00 00 00 00	 call	 ?_Tidy@?$basic_string@DU?$char_traits@D@std@@V?$allocator@D@2@@std@@QAEX_NI@Z ; std::basic_string<char,std::char_traits<char>,std::allocator<char> >::_Tidy

; 552  : 		}

  0006b	c7 45 fc ff ff
	ff ff		 mov	 DWORD PTR __$EHRec$[ebp+8], -1
  00072	8b 45 ec	 mov	 eax, DWORD PTR _this$[ebp]
  00075	8b 4d f4	 mov	 ecx, DWORD PTR __$EHRec$[ebp]
  00078	64 89 0d 00 00
	00 00		 mov	 DWORD PTR fs:0, ecx
  0007f	59		 pop	 ecx
  00080	5f		 pop	 edi
  00081	5e		 pop	 esi
  00082	5b		 pop	 ebx
  00083	81 c4 e4 00 00
	00		 add	 esp, 228		; 000000e4H
  00089	3b ec		 cmp	 ebp, esp
  0008b	e8 00 00 00 00	 call	 __RTC_CheckEsp
  00090	8b e5		 mov	 esp, ebp
  00092	5d		 pop	 ebp
  00093	c3		 ret	 0
_TEXT	ENDS
;	COMDAT text$x
text$x	SEGMENT
__unwindfunclet$??0?$basic_string@DU?$char_traits@D@std@@V?$allocator@D@2@@std@@QAE@XZ$0:
  00000	8b 4d ec	 mov	 ecx, DWORD PTR _this$[ebp]
  00003	e9 00 00 00 00	 jmp	 ??1?$_String_val@DV?$allocator@D@std@@@std@@QAE@XZ ; std::_String_val<char,std::allocator<char> >::~_String_val<char,std::allocator<char> >
__ehhandler$??0?$basic_string@DU?$char_traits@D@std@@V?$allocator@D@2@@std@@QAE@XZ:
  00008	8b 54 24 08	 mov	 edx, DWORD PTR [esp+8]
  0000c	8d 42 0c	 lea	 eax, DWORD PTR [edx+12]
  0000f	8b 8a 18 ff ff
	ff		 mov	 ecx, DWORD PTR [edx-232]
  00015	33 c8		 xor	 ecx, eax
  00017	e8 00 00 00 00	 call	 @__security_check_cookie@4
  0001c	b8 00 00 00 00	 mov	 eax, OFFSET __ehfuncinfo$??0?$basic_string@DU?$char_traits@D@std@@V?$allocator@D@2@@std@@QAE@XZ
  00021	e9 00 00 00 00	 jmp	 ___CxxFrameHandler3
text$x	ENDS
??0?$basic_string@DU?$char_traits@D@std@@V?$allocator@D@2@@std@@QAE@XZ ENDP ; std::basic_string<char,std::char_traits<char>,std::allocator<char> >::basic_string<char,std::char_traits<char>,std::allocator<char> >
PUBLIC	??0?$fpos@H@std@@QAE@H_J@Z			; std::fpos<int>::fpos<int>
PUBLIC	??0?$fpos@H@std@@QAE@_J@Z			; std::fpos<int>::fpos<int>
PUBLIC	?_Endwrite@?$basic_filebuf@DU?$char_traits@D@std@@@std@@IAE_NXZ ; std::basic_filebuf<char,std::char_traits<char> >::_Endwrite
EXTRN	__imp_?_BADOFF@std@@3_JB:QWORD
EXTRN	__imp__fgetpos:PROC
EXTRN	__imp___fseeki64:PROC
; Function compile flags: /Odtp /RTCsu /ZI
; File c:\program files (x86)\microsoft visual studio 10.0\vc\include\fstream
;	COMDAT ?seekoff@?$basic_filebuf@DU?$char_traits@D@std@@@std@@MAE?AV?$fpos@H@2@_JHH@Z
_TEXT	SEGMENT
__Fileposition$ = -24					; size = 8
_this$ = -8						; size = 4
___$ReturnUdt$ = 8					; size = 4
__Off$ = 12						; size = 8
__Way$ = 20						; size = 4
___formal$ = 24						; size = 4
?seekoff@?$basic_filebuf@DU?$char_traits@D@std@@@std@@MAE?AV?$fpos@H@2@_JHH@Z PROC ; std::basic_filebuf<char,std::char_traits<char> >::seekoff, COMDAT
; _this$ = ecx

; 490  : 		{	// change position by _Off

  00000	55		 push	 ebp
  00001	8b ec		 mov	 ebp, esp
  00003	81 ec dc 00 00
	00		 sub	 esp, 220		; 000000dcH
  00009	53		 push	 ebx
  0000a	56		 push	 esi
  0000b	57		 push	 edi
  0000c	51		 push	 ecx
  0000d	8d bd 24 ff ff
	ff		 lea	 edi, DWORD PTR [ebp-220]
  00013	b9 37 00 00 00	 mov	 ecx, 55			; 00000037H
  00018	b8 cc cc cc cc	 mov	 eax, -858993460		; ccccccccH
  0001d	f3 ab		 rep stosd
  0001f	59		 pop	 ecx
  00020	89 4d f8	 mov	 DWORD PTR _this$[ebp], ecx

; 491  : 		fpos_t _Fileposition;
; 492  : 
; 493  : 		if (_Mysb::gptr() == &_Mychar	// something putback
; 494  : 			&& _Way == ios_base::cur	// a relative seek
; 495  : 			&& _Pcvt == 0)	// not converting

  00023	8b f4		 mov	 esi, esp
  00025	8b 4d f8	 mov	 ecx, DWORD PTR _this$[ebp]
  00028	ff 15 00 00 00
	00		 call	 DWORD PTR __imp_?gptr@?$basic_streambuf@DU?$char_traits@D@std@@@std@@IBEPADXZ
  0002e	3b f4		 cmp	 esi, esp
  00030	e8 00 00 00 00	 call	 __RTC_CheckEsp
  00035	8b 4d f8	 mov	 ecx, DWORD PTR _this$[ebp]
  00038	83 c1 48	 add	 ecx, 72			; 00000048H
  0003b	3b c1		 cmp	 eax, ecx
  0003d	75 21		 jne	 SHORT $LN5@seekoff
  0003f	83 7d 14 01	 cmp	 DWORD PTR __Way$[ebp], 1
  00043	75 1b		 jne	 SHORT $LN5@seekoff
  00045	8b 45 f8	 mov	 eax, DWORD PTR _this$[ebp]
  00048	83 78 44 00	 cmp	 DWORD PTR [eax+68], 0
  0004c	75 12		 jne	 SHORT $LN5@seekoff

; 496  : 			_Off -= (off_type)sizeof (_Elem);	// back up over _Elem bytes

  0004e	8b 45 0c	 mov	 eax, DWORD PTR __Off$[ebp]
  00051	83 e8 01	 sub	 eax, 1
  00054	8b 4d 10	 mov	 ecx, DWORD PTR __Off$[ebp+4]
  00057	83 d9 00	 sbb	 ecx, 0
  0005a	89 45 0c	 mov	 DWORD PTR __Off$[ebp], eax
  0005d	89 4d 10	 mov	 DWORD PTR __Off$[ebp+4], ecx
$LN5@seekoff:

; 497  : 
; 498  : 		if (_Myfile == 0 || !_Endwrite()
; 499  : 			|| (_Off != 0 || _Way != ios_base::cur)
; 500  : 				&& _FSEEK_OFF(_Myfile, _Off, _Way) != 0
; 501  : 			|| fgetpos(_Myfile, &_Fileposition) != 0)

  00060	8b 45 f8	 mov	 eax, DWORD PTR _this$[ebp]
  00063	83 78 54 00	 cmp	 DWORD PTR [eax+84], 0
  00067	74 67		 je	 SHORT $LN3@seekoff
  00069	8b 4d f8	 mov	 ecx, DWORD PTR _this$[ebp]
  0006c	e8 00 00 00 00	 call	 ?_Endwrite@?$basic_filebuf@DU?$char_traits@D@std@@@std@@IAE_NXZ ; std::basic_filebuf<char,std::char_traits<char> >::_Endwrite
  00071	0f b6 c0	 movzx	 eax, al
  00074	85 c0		 test	 eax, eax
  00076	74 58		 je	 SHORT $LN3@seekoff
  00078	8b 45 0c	 mov	 eax, DWORD PTR __Off$[ebp]
  0007b	0b 45 10	 or	 eax, DWORD PTR __Off$[ebp+4]
  0007e	75 06		 jne	 SHORT $LN1@seekoff
  00080	83 7d 14 01	 cmp	 DWORD PTR __Way$[ebp], 1
  00084	74 29		 je	 SHORT $LN2@seekoff
$LN1@seekoff:
  00086	8b f4		 mov	 esi, esp
  00088	8b 45 14	 mov	 eax, DWORD PTR __Way$[ebp]
  0008b	50		 push	 eax
  0008c	8b 4d 10	 mov	 ecx, DWORD PTR __Off$[ebp+4]
  0008f	51		 push	 ecx
  00090	8b 55 0c	 mov	 edx, DWORD PTR __Off$[ebp]
  00093	52		 push	 edx
  00094	8b 45 f8	 mov	 eax, DWORD PTR _this$[ebp]
  00097	8b 48 54	 mov	 ecx, DWORD PTR [eax+84]
  0009a	51		 push	 ecx
  0009b	ff 15 00 00 00
	00		 call	 DWORD PTR __imp___fseeki64
  000a1	83 c4 10	 add	 esp, 16			; 00000010H
  000a4	3b f4		 cmp	 esi, esp
  000a6	e8 00 00 00 00	 call	 __RTC_CheckEsp
  000ab	85 c0		 test	 eax, eax
  000ad	75 21		 jne	 SHORT $LN3@seekoff
$LN2@seekoff:
  000af	8b f4		 mov	 esi, esp
  000b1	8d 45 e8	 lea	 eax, DWORD PTR __Fileposition$[ebp]
  000b4	50		 push	 eax
  000b5	8b 4d f8	 mov	 ecx, DWORD PTR _this$[ebp]
  000b8	8b 51 54	 mov	 edx, DWORD PTR [ecx+84]
  000bb	52		 push	 edx
  000bc	ff 15 00 00 00
	00		 call	 DWORD PTR __imp__fgetpos
  000c2	83 c4 08	 add	 esp, 8
  000c5	3b f4		 cmp	 esi, esp
  000c7	e8 00 00 00 00	 call	 __RTC_CheckEsp
  000cc	85 c0		 test	 eax, eax
  000ce	74 19		 je	 SHORT $LN4@seekoff
$LN3@seekoff:

; 502  : 			return (pos_type(_BADOFF));	// report failure

  000d0	a1 00 00 00 00	 mov	 eax, DWORD PTR __imp_?_BADOFF@std@@3_JB
  000d5	8b 48 04	 mov	 ecx, DWORD PTR [eax+4]
  000d8	51		 push	 ecx
  000d9	8b 10		 mov	 edx, DWORD PTR [eax]
  000db	52		 push	 edx
  000dc	8b 4d 08	 mov	 ecx, DWORD PTR ___$ReturnUdt$[ebp]
  000df	e8 00 00 00 00	 call	 ??0?$fpos@H@std@@QAE@_J@Z ; std::fpos<int>::fpos<int>
  000e4	8b 45 08	 mov	 eax, DWORD PTR ___$ReturnUdt$[ebp]
  000e7	eb 22		 jmp	 SHORT $LN6@seekoff
$LN4@seekoff:

; 503  : 
; 504  : 		_Reset_back();	// revert from _Mychar buffer, discarding any putback

  000e9	8b 4d f8	 mov	 ecx, DWORD PTR _this$[ebp]
  000ec	e8 00 00 00 00	 call	 ?_Reset_back@?$basic_filebuf@DU?$char_traits@D@std@@@std@@AAEXXZ ; std::basic_filebuf<char,std::char_traits<char> >::_Reset_back

; 505  : 		return (_POS_TYPE_FROM_STATE(pos_type, _State,

  000f1	8b 45 ec	 mov	 eax, DWORD PTR __Fileposition$[ebp+4]
  000f4	50		 push	 eax
  000f5	8b 4d e8	 mov	 ecx, DWORD PTR __Fileposition$[ebp]
  000f8	51		 push	 ecx
  000f9	8b 55 f8	 mov	 edx, DWORD PTR _this$[ebp]
  000fc	8b 42 4c	 mov	 eax, DWORD PTR [edx+76]
  000ff	50		 push	 eax
  00100	8b 4d 08	 mov	 ecx, DWORD PTR ___$ReturnUdt$[ebp]
  00103	e8 00 00 00 00	 call	 ??0?$fpos@H@std@@QAE@H_J@Z ; std::fpos<int>::fpos<int>
  00108	8b 45 08	 mov	 eax, DWORD PTR ___$ReturnUdt$[ebp]
$LN6@seekoff:

; 506  : 			_Fileposition));	// return new position
; 507  : 		}

  0010b	52		 push	 edx
  0010c	8b cd		 mov	 ecx, ebp
  0010e	50		 push	 eax
  0010f	8d 15 00 00 00
	00		 lea	 edx, DWORD PTR $LN10@seekoff
  00115	e8 00 00 00 00	 call	 @_RTC_CheckStackVars@8
  0011a	58		 pop	 eax
  0011b	5a		 pop	 edx
  0011c	5f		 pop	 edi
  0011d	5e		 pop	 esi
  0011e	5b		 pop	 ebx
  0011f	81 c4 dc 00 00
	00		 add	 esp, 220		; 000000dcH
  00125	3b ec		 cmp	 ebp, esp
  00127	e8 00 00 00 00	 call	 __RTC_CheckEsp
  0012c	8b e5		 mov	 esp, ebp
  0012e	5d		 pop	 ebp
  0012f	c2 14 00	 ret	 20			; 00000014H
  00132	8b ff		 npad	 2
$LN10@seekoff:
  00134	01 00 00 00	 DD	 1
  00138	00 00 00 00	 DD	 $LN9@seekoff
$LN9@seekoff:
  0013c	e8 ff ff ff	 DD	 -24			; ffffffe8H
  00140	08 00 00 00	 DD	 8
  00144	00 00 00 00	 DD	 $LN8@seekoff
$LN8@seekoff:
  00148	5f		 DB	 95			; 0000005fH
  00149	46		 DB	 70			; 00000046H
  0014a	69		 DB	 105			; 00000069H
  0014b	6c		 DB	 108			; 0000006cH
  0014c	65		 DB	 101			; 00000065H
  0014d	70		 DB	 112			; 00000070H
  0014e	6f		 DB	 111			; 0000006fH
  0014f	73		 DB	 115			; 00000073H
  00150	69		 DB	 105			; 00000069H
  00151	74		 DB	 116			; 00000074H
  00152	69		 DB	 105			; 00000069H
  00153	6f		 DB	 111			; 0000006fH
  00154	6e		 DB	 110			; 0000006eH
  00155	00		 DB	 0
?seekoff@?$basic_filebuf@DU?$char_traits@D@std@@@std@@MAE?AV?$fpos@H@2@_JHH@Z ENDP ; std::basic_filebuf<char,std::char_traits<char> >::seekoff
_TEXT	ENDS
PUBLIC	?state@?$fpos@H@std@@QBEHXZ			; std::fpos<int>::state
PUBLIC	??B?$fpos@H@std@@QBE_JXZ			; std::fpos<int>::operator __int64
PUBLIC	?seekpos@?$fpos@H@std@@QBE_JXZ			; std::fpos<int>::seekpos
EXTRN	__imp__fsetpos:PROC
; Function compile flags: /Odtp /RTCsu /ZI
;	COMDAT ?seekpos@?$basic_filebuf@DU?$char_traits@D@std@@@std@@MAE?AV?$fpos@H@2@V32@H@Z
_TEXT	SEGMENT
__Off$ = -40						; size = 8
__Fileposition$ = -24					; size = 8
_this$ = -8						; size = 4
___$ReturnUdt$ = 8					; size = 4
__Pos$ = 12						; size = 24
___formal$ = 36						; size = 4
?seekpos@?$basic_filebuf@DU?$char_traits@D@std@@@std@@MAE?AV?$fpos@H@2@V32@H@Z PROC ; std::basic_filebuf<char,std::char_traits<char> >::seekpos, COMDAT
; _this$ = ecx

; 512  : 		{	// change position to _Pos

  00000	55		 push	 ebp
  00001	8b ec		 mov	 ebp, esp
  00003	81 ec ec 00 00
	00		 sub	 esp, 236		; 000000ecH
  00009	53		 push	 ebx
  0000a	56		 push	 esi
  0000b	57		 push	 edi
  0000c	51		 push	 ecx
  0000d	8d bd 14 ff ff
	ff		 lea	 edi, DWORD PTR [ebp-236]
  00013	b9 3b 00 00 00	 mov	 ecx, 59			; 0000003bH
  00018	b8 cc cc cc cc	 mov	 eax, -858993460		; ccccccccH
  0001d	f3 ab		 rep stosd
  0001f	59		 pop	 ecx
  00020	89 4d f8	 mov	 DWORD PTR _this$[ebp], ecx

; 513  : 		fpos_t _Fileposition = _POS_TYPE_TO_FPOS_T(_Pos);

  00023	8d 4d 0c	 lea	 ecx, DWORD PTR __Pos$[ebp]
  00026	e8 00 00 00 00	 call	 ?seekpos@?$fpos@H@std@@QBE_JXZ ; std::fpos<int>::seekpos
  0002b	89 45 e8	 mov	 DWORD PTR __Fileposition$[ebp], eax
  0002e	89 55 ec	 mov	 DWORD PTR __Fileposition$[ebp+4], edx

; 514  : 		off_type _Off = (off_type)_Pos - (off_type)_FPOSOFF(_Fileposition);

  00031	8d 4d 0c	 lea	 ecx, DWORD PTR __Pos$[ebp]
  00034	e8 00 00 00 00	 call	 ??B?$fpos@H@std@@QBE_JXZ ; std::fpos<int>::operator __int64
  00039	8b c8		 mov	 ecx, eax
  0003b	8b f2		 mov	 esi, edx
  0003d	8b 45 e8	 mov	 eax, DWORD PTR __Fileposition$[ebp]
  00040	99		 cdq
  00041	2b c8		 sub	 ecx, eax
  00043	1b f2		 sbb	 esi, edx
  00045	89 4d d8	 mov	 DWORD PTR __Off$[ebp], ecx
  00048	89 75 dc	 mov	 DWORD PTR __Off$[ebp+4], esi

; 515  : 
; 516  : 		if (_Myfile == 0 || !_Endwrite()
; 517  : 			|| fsetpos(_Myfile, &_Fileposition) != 0
; 518  : 			|| _Off != 0 && _FSEEK_OFF(_Myfile, _Off, SEEK_CUR) != 0
; 519  : 			|| fgetpos(_Myfile, &_Fileposition) != 0)

  0004b	8b 45 f8	 mov	 eax, DWORD PTR _this$[ebp]
  0004e	83 78 54 00	 cmp	 DWORD PTR [eax+84], 0
  00052	0f 84 80 00 00
	00		 je	 $LN2@seekpos
  00058	8b 4d f8	 mov	 ecx, DWORD PTR _this$[ebp]
  0005b	e8 00 00 00 00	 call	 ?_Endwrite@?$basic_filebuf@DU?$char_traits@D@std@@@std@@IAE_NXZ ; std::basic_filebuf<char,std::char_traits<char> >::_Endwrite
  00060	0f b6 c0	 movzx	 eax, al
  00063	85 c0		 test	 eax, eax
  00065	74 71		 je	 SHORT $LN2@seekpos
  00067	8b f4		 mov	 esi, esp
  00069	8d 45 e8	 lea	 eax, DWORD PTR __Fileposition$[ebp]
  0006c	50		 push	 eax
  0006d	8b 4d f8	 mov	 ecx, DWORD PTR _this$[ebp]
  00070	8b 51 54	 mov	 edx, DWORD PTR [ecx+84]
  00073	52		 push	 edx
  00074	ff 15 00 00 00
	00		 call	 DWORD PTR __imp__fsetpos
  0007a	83 c4 08	 add	 esp, 8
  0007d	3b f4		 cmp	 esi, esp
  0007f	e8 00 00 00 00	 call	 __RTC_CheckEsp
  00084	85 c0		 test	 eax, eax
  00086	75 50		 jne	 SHORT $LN2@seekpos
  00088	8b 45 d8	 mov	 eax, DWORD PTR __Off$[ebp]
  0008b	0b 45 dc	 or	 eax, DWORD PTR __Off$[ebp+4]
  0008e	74 27		 je	 SHORT $LN1@seekpos
  00090	8b f4		 mov	 esi, esp
  00092	6a 01		 push	 1
  00094	8b 45 dc	 mov	 eax, DWORD PTR __Off$[ebp+4]
  00097	50		 push	 eax
  00098	8b 4d d8	 mov	 ecx, DWORD PTR __Off$[ebp]
  0009b	51		 push	 ecx
  0009c	8b 55 f8	 mov	 edx, DWORD PTR _this$[ebp]
  0009f	8b 42 54	 mov	 eax, DWORD PTR [edx+84]
  000a2	50		 push	 eax
  000a3	ff 15 00 00 00
	00		 call	 DWORD PTR __imp___fseeki64
  000a9	83 c4 10	 add	 esp, 16			; 00000010H
  000ac	3b f4		 cmp	 esi, esp
  000ae	e8 00 00 00 00	 call	 __RTC_CheckEsp
  000b3	85 c0		 test	 eax, eax
  000b5	75 21		 jne	 SHORT $LN2@seekpos
$LN1@seekpos:
  000b7	8b f4		 mov	 esi, esp
  000b9	8d 45 e8	 lea	 eax, DWORD PTR __Fileposition$[ebp]
  000bc	50		 push	 eax
  000bd	8b 4d f8	 mov	 ecx, DWORD PTR _this$[ebp]
  000c0	8b 51 54	 mov	 edx, DWORD PTR [ecx+84]
  000c3	52		 push	 edx
  000c4	ff 15 00 00 00
	00		 call	 DWORD PTR __imp__fgetpos
  000ca	83 c4 08	 add	 esp, 8
  000cd	3b f4		 cmp	 esi, esp
  000cf	e8 00 00 00 00	 call	 __RTC_CheckEsp
  000d4	85 c0		 test	 eax, eax
  000d6	74 19		 je	 SHORT $LN3@seekpos
$LN2@seekpos:

; 520  : 			return (pos_type(_BADOFF));	// report failure

  000d8	a1 00 00 00 00	 mov	 eax, DWORD PTR __imp_?_BADOFF@std@@3_JB
  000dd	8b 48 04	 mov	 ecx, DWORD PTR [eax+4]
  000e0	51		 push	 ecx
  000e1	8b 10		 mov	 edx, DWORD PTR [eax]
  000e3	52		 push	 edx
  000e4	8b 4d 08	 mov	 ecx, DWORD PTR ___$ReturnUdt$[ebp]
  000e7	e8 00 00 00 00	 call	 ??0?$fpos@H@std@@QAE@_J@Z ; std::fpos<int>::fpos<int>
  000ec	8b 45 08	 mov	 eax, DWORD PTR ___$ReturnUdt$[ebp]
  000ef	eb 30		 jmp	 SHORT $LN4@seekpos
$LN3@seekpos:

; 521  : 
; 522  : 		_State = _POS_TYPE_TO_STATE(_Pos);

  000f1	8d 4d 0c	 lea	 ecx, DWORD PTR __Pos$[ebp]
  000f4	e8 00 00 00 00	 call	 ?state@?$fpos@H@std@@QBEHXZ ; std::fpos<int>::state
  000f9	8b 4d f8	 mov	 ecx, DWORD PTR _this$[ebp]
  000fc	89 41 4c	 mov	 DWORD PTR [ecx+76], eax

; 523  : 
; 524  : 		_Reset_back();	// revert from _Mychar buffer, discarding any putback

  000ff	8b 4d f8	 mov	 ecx, DWORD PTR _this$[ebp]
  00102	e8 00 00 00 00	 call	 ?_Reset_back@?$basic_filebuf@DU?$char_traits@D@std@@@std@@AAEXXZ ; std::basic_filebuf<char,std::char_traits<char> >::_Reset_back

; 525  : 		return (_POS_TYPE_FROM_STATE(pos_type, _State,

  00107	8b 45 ec	 mov	 eax, DWORD PTR __Fileposition$[ebp+4]
  0010a	50		 push	 eax
  0010b	8b 4d e8	 mov	 ecx, DWORD PTR __Fileposition$[ebp]
  0010e	51		 push	 ecx
  0010f	8b 55 f8	 mov	 edx, DWORD PTR _this$[ebp]
  00112	8b 42 4c	 mov	 eax, DWORD PTR [edx+76]
  00115	50		 push	 eax
  00116	8b 4d 08	 mov	 ecx, DWORD PTR ___$ReturnUdt$[ebp]
  00119	e8 00 00 00 00	 call	 ??0?$fpos@H@std@@QAE@H_J@Z ; std::fpos<int>::fpos<int>
  0011e	8b 45 08	 mov	 eax, DWORD PTR ___$ReturnUdt$[ebp]
$LN4@seekpos:

; 526  : 			_Fileposition));	// return new position
; 527  : 		}

  00121	52		 push	 edx
  00122	8b cd		 mov	 ecx, ebp
  00124	50		 push	 eax
  00125	8d 15 00 00 00
	00		 lea	 edx, DWORD PTR $LN8@seekpos
  0012b	e8 00 00 00 00	 call	 @_RTC_CheckStackVars@8
  00130	58		 pop	 eax
  00131	5a		 pop	 edx
  00132	5f		 pop	 edi
  00133	5e		 pop	 esi
  00134	5b		 pop	 ebx
  00135	81 c4 ec 00 00
	00		 add	 esp, 236		; 000000ecH
  0013b	3b ec		 cmp	 ebp, esp
  0013d	e8 00 00 00 00	 call	 __RTC_CheckEsp
  00142	8b e5		 mov	 esp, ebp
  00144	5d		 pop	 ebp
  00145	c2 20 00	 ret	 32			; 00000020H
$LN8@seekpos:
  00148	01 00 00 00	 DD	 1
  0014c	00 00 00 00	 DD	 $LN7@seekpos
$LN7@seekpos:
  00150	e8 ff ff ff	 DD	 -24			; ffffffe8H
  00154	08 00 00 00	 DD	 8
  00158	00 00 00 00	 DD	 $LN6@seekpos
$LN6@seekpos:
  0015c	5f		 DB	 95			; 0000005fH
  0015d	46		 DB	 70			; 00000046H
  0015e	69		 DB	 105			; 00000069H
  0015f	6c		 DB	 108			; 0000006cH
  00160	65		 DB	 101			; 00000065H
  00161	70		 DB	 112			; 00000070H
  00162	6f		 DB	 111			; 0000006fH
  00163	73		 DB	 115			; 00000073H
  00164	69		 DB	 105			; 00000069H
  00165	74		 DB	 116			; 00000074H
  00166	69		 DB	 105			; 00000069H
  00167	6f		 DB	 111			; 0000006fH
  00168	6e		 DB	 110			; 0000006eH
  00169	00		 DB	 0
?seekpos@?$basic_filebuf@DU?$char_traits@D@std@@@std@@MAE?AV?$fpos@H@2@V32@H@Z ENDP ; std::basic_filebuf<char,std::char_traits<char> >::seekpos
_TEXT	ENDS
PUBLIC	?_Init@?$basic_filebuf@DU?$char_traits@D@std@@@std@@IAEXPAU_iobuf@@W4_Initfl@12@@Z ; std::basic_filebuf<char,std::char_traits<char> >::_Init
EXTRN	__imp__setvbuf:PROC
; Function compile flags: /Odtp /RTCsu /ZI
;	COMDAT ?setbuf@?$basic_filebuf@DU?$char_traits@D@std@@@std@@MAEPAV?$basic_streambuf@DU?$char_traits@D@std@@@2@PAD_J@Z
_TEXT	SEGMENT
tv71 = -208						; size = 4
_this$ = -8						; size = 4
__Buffer$ = 8						; size = 4
__Count$ = 12						; size = 8
?setbuf@?$basic_filebuf@DU?$char_traits@D@std@@@std@@MAEPAV?$basic_streambuf@DU?$char_traits@D@std@@@2@PAD_J@Z PROC ; std::basic_filebuf<char,std::char_traits<char> >::setbuf, COMDAT
; _this$ = ecx

; 530  : 		{	// offer _Buffer to C stream

  00000	55		 push	 ebp
  00001	8b ec		 mov	 ebp, esp
  00003	81 ec d0 00 00
	00		 sub	 esp, 208		; 000000d0H
  00009	53		 push	 ebx
  0000a	56		 push	 esi
  0000b	57		 push	 edi
  0000c	51		 push	 ecx
  0000d	8d bd 30 ff ff
	ff		 lea	 edi, DWORD PTR [ebp-208]
  00013	b9 34 00 00 00	 mov	 ecx, 52			; 00000034H
  00018	b8 cc cc cc cc	 mov	 eax, -858993460		; ccccccccH
  0001d	f3 ab		 rep stosd
  0001f	59		 pop	 ecx
  00020	89 4d f8	 mov	 DWORD PTR _this$[ebp], ecx

; 531  : 		if (_Myfile == 0 || setvbuf(_Myfile, (char *)_Buffer,
; 532  : 			_Buffer == 0 && _Count == 0 ? _IONBF : _IOFBF,
; 533  : 			(size_t)_Count * sizeof (_Elem)) != 0)

  00023	8b 45 f8	 mov	 eax, DWORD PTR _this$[ebp]
  00026	83 78 54 00	 cmp	 DWORD PTR [eax+84], 0
  0002a	74 50		 je	 SHORT $LN2@setbuf
  0002c	83 7d 08 00	 cmp	 DWORD PTR __Buffer$[ebp], 0
  00030	75 14		 jne	 SHORT $LN6@setbuf
  00032	8b 45 0c	 mov	 eax, DWORD PTR __Count$[ebp]
  00035	0b 45 10	 or	 eax, DWORD PTR __Count$[ebp+4]
  00038	75 0c		 jne	 SHORT $LN6@setbuf
  0003a	c7 85 30 ff ff
	ff 04 00 00 00	 mov	 DWORD PTR tv71[ebp], 4
  00044	eb 0a		 jmp	 SHORT $LN7@setbuf
$LN6@setbuf:
  00046	c7 85 30 ff ff
	ff 00 00 00 00	 mov	 DWORD PTR tv71[ebp], 0
$LN7@setbuf:
  00050	8b 4d 0c	 mov	 ecx, DWORD PTR __Count$[ebp]
  00053	8b f4		 mov	 esi, esp
  00055	51		 push	 ecx
  00056	8b 95 30 ff ff
	ff		 mov	 edx, DWORD PTR tv71[ebp]
  0005c	52		 push	 edx
  0005d	8b 45 08	 mov	 eax, DWORD PTR __Buffer$[ebp]
  00060	50		 push	 eax
  00061	8b 4d f8	 mov	 ecx, DWORD PTR _this$[ebp]
  00064	8b 51 54	 mov	 edx, DWORD PTR [ecx+84]
  00067	52		 push	 edx
  00068	ff 15 00 00 00
	00		 call	 DWORD PTR __imp__setvbuf
  0006e	83 c4 10	 add	 esp, 16			; 00000010H
  00071	3b f4		 cmp	 esi, esp
  00073	e8 00 00 00 00	 call	 __RTC_CheckEsp
  00078	85 c0		 test	 eax, eax
  0007a	74 06		 je	 SHORT $LN3@setbuf
$LN2@setbuf:

; 534  : 			return (0);	// failed

  0007c	33 c0		 xor	 eax, eax
  0007e	eb 16		 jmp	 SHORT $LN4@setbuf

; 535  : 		else

  00080	eb 14		 jmp	 SHORT $LN4@setbuf
$LN3@setbuf:

; 536  : 			{	// new buffer, reinitialize pointers
; 537  : 			_Init(_Myfile, _Openfl);

  00082	6a 01		 push	 1
  00084	8b 45 f8	 mov	 eax, DWORD PTR _this$[ebp]
  00087	8b 48 54	 mov	 ecx, DWORD PTR [eax+84]
  0008a	51		 push	 ecx
  0008b	8b 4d f8	 mov	 ecx, DWORD PTR _this$[ebp]
  0008e	e8 00 00 00 00	 call	 ?_Init@?$basic_filebuf@DU?$char_traits@D@std@@@std@@IAEXPAU_iobuf@@W4_Initfl@12@@Z ; std::basic_filebuf<char,std::char_traits<char> >::_Init

; 538  : 			return (this);

  00093	8b 45 f8	 mov	 eax, DWORD PTR _this$[ebp]
$LN4@setbuf:

; 539  : 			}
; 540  : 		}

  00096	5f		 pop	 edi
  00097	5e		 pop	 esi
  00098	5b		 pop	 ebx
  00099	81 c4 d0 00 00
	00		 add	 esp, 208		; 000000d0H
  0009f	3b ec		 cmp	 ebp, esp
  000a1	e8 00 00 00 00	 call	 __RTC_CheckEsp
  000a6	8b e5		 mov	 esp, ebp
  000a8	5d		 pop	 ebp
  000a9	c2 0c 00	 ret	 12			; 0000000cH
?setbuf@?$basic_filebuf@DU?$char_traits@D@std@@@std@@MAEPAV?$basic_streambuf@DU?$char_traits@D@std@@@2@PAD_J@Z ENDP ; std::basic_filebuf<char,std::char_traits<char> >::setbuf
_TEXT	ENDS
EXTRN	__imp__fflush:PROC
; Function compile flags: /Odtp /RTCsu /ZI
;	COMDAT ?sync@?$basic_filebuf@DU?$char_traits@D@std@@@std@@MAEHXZ
_TEXT	SEGMENT
tv86 = -232						; size = 4
$T173949 = -224						; size = 4
$T173950 = -212						; size = 4
_this$ = -8						; size = 4
?sync@?$basic_filebuf@DU?$char_traits@D@std@@@std@@MAEHXZ PROC ; std::basic_filebuf<char,std::char_traits<char> >::sync, COMDAT
; _this$ = ecx

; 543  : 		{	// synchronize C stream with external file

  00000	55		 push	 ebp
  00001	8b ec		 mov	 ebp, esp
  00003	81 ec e8 00 00
	00		 sub	 esp, 232		; 000000e8H
  00009	53		 push	 ebx
  0000a	56		 push	 esi
  0000b	57		 push	 edi
  0000c	51		 push	 ecx
  0000d	8d bd 18 ff ff
	ff		 lea	 edi, DWORD PTR [ebp-232]
  00013	b9 3a 00 00 00	 mov	 ecx, 58			; 0000003aH
  00018	b8 cc cc cc cc	 mov	 eax, -858993460		; ccccccccH
  0001d	f3 ab		 rep stosd
  0001f	59		 pop	 ecx
  00020	89 4d f8	 mov	 DWORD PTR _this$[ebp], ecx

; 544  : 		return (_Myfile == 0
; 545  : 			|| _Traits::eq_int_type(_Traits::eof(), overflow())
; 546  : 			|| 0 <= fflush(_Myfile) ? 0 : -1);

  00023	8b 45 f8	 mov	 eax, DWORD PTR _this$[ebp]
  00026	83 78 54 00	 cmp	 DWORD PTR [eax+84], 0
  0002a	74 73		 je	 SHORT $LN3@sync
  0002c	e8 00 00 00 00	 call	 ?eof@?$char_traits@D@std@@SAHXZ ; std::char_traits<char>::eof
  00031	8b f4		 mov	 esi, esp
  00033	50		 push	 eax
  00034	8b 4d f8	 mov	 ecx, DWORD PTR _this$[ebp]
  00037	8b 11		 mov	 edx, DWORD PTR [ecx]
  00039	8b 4d f8	 mov	 ecx, DWORD PTR _this$[ebp]
  0003c	8b 42 0c	 mov	 eax, DWORD PTR [edx+12]
  0003f	ff d0		 call	 eax
  00041	3b f4		 cmp	 esi, esp
  00043	e8 00 00 00 00	 call	 __RTC_CheckEsp
  00048	89 85 20 ff ff
	ff		 mov	 DWORD PTR $T173949[ebp], eax
  0004e	e8 00 00 00 00	 call	 ?eof@?$char_traits@D@std@@SAHXZ ; std::char_traits<char>::eof
  00053	89 85 2c ff ff
	ff		 mov	 DWORD PTR $T173950[ebp], eax
  00059	8d 8d 20 ff ff
	ff		 lea	 ecx, DWORD PTR $T173949[ebp]
  0005f	51		 push	 ecx
  00060	8d 95 2c ff ff
	ff		 lea	 edx, DWORD PTR $T173950[ebp]
  00066	52		 push	 edx
  00067	e8 00 00 00 00	 call	 ?eq_int_type@?$char_traits@D@std@@SA_NABH0@Z ; std::char_traits<char>::eq_int_type
  0006c	83 c4 08	 add	 esp, 8
  0006f	0f b6 c0	 movzx	 eax, al
  00072	85 c0		 test	 eax, eax
  00074	75 29		 jne	 SHORT $LN3@sync
  00076	8b f4		 mov	 esi, esp
  00078	8b 4d f8	 mov	 ecx, DWORD PTR _this$[ebp]
  0007b	8b 51 54	 mov	 edx, DWORD PTR [ecx+84]
  0007e	52		 push	 edx
  0007f	ff 15 00 00 00
	00		 call	 DWORD PTR __imp__fflush
  00085	83 c4 04	 add	 esp, 4
  00088	3b f4		 cmp	 esi, esp
  0008a	e8 00 00 00 00	 call	 __RTC_CheckEsp
  0008f	85 c0		 test	 eax, eax
  00091	7d 0c		 jge	 SHORT $LN3@sync
  00093	c7 85 18 ff ff
	ff ff ff ff ff	 mov	 DWORD PTR tv86[ebp], -1
  0009d	eb 0a		 jmp	 SHORT $LN4@sync
$LN3@sync:
  0009f	c7 85 18 ff ff
	ff 00 00 00 00	 mov	 DWORD PTR tv86[ebp], 0
$LN4@sync:
  000a9	8b 85 18 ff ff
	ff		 mov	 eax, DWORD PTR tv86[ebp]

; 547  : 		}

  000af	5f		 pop	 edi
  000b0	5e		 pop	 esi
  000b1	5b		 pop	 ebx
  000b2	81 c4 e8 00 00
	00		 add	 esp, 232		; 000000e8H
  000b8	3b ec		 cmp	 ebp, esp
  000ba	e8 00 00 00 00	 call	 __RTC_CheckEsp
  000bf	8b e5		 mov	 esp, ebp
  000c1	5d		 pop	 ebp
  000c2	c3		 ret	 0
?sync@?$basic_filebuf@DU?$char_traits@D@std@@@std@@MAEHXZ ENDP ; std::basic_filebuf<char,std::char_traits<char> >::sync
_TEXT	ENDS
